
user/src/raw/runtest.exe:     file format elf64-littleriscv


Disassembly of section .text:

0000000000010120 <exit>:
   10120:	1101                	addi	sp,sp,-32
   10122:	e42a                	sd	a0,8(sp)
   10124:	ec06                	sd	ra,24(sp)
   10126:	67b000ef          	jal	ra,10fa0 <__funcs_on_exit>
   1012a:	679000ef          	jal	ra,10fa2 <__libc_exit_fini>
   1012e:	2f0060ef          	jal	ra,1641e <__stdio_exit>
   10132:	6522                	ld	a0,8(sp)
   10134:	0d8040ef          	jal	ra,1420c <_Exit>

0000000000010138 <main>:
	t_error("usage: %s [-t timeoutsec] [-w wrapcmd] cmd [args..]\n", argv[0]);
	exit(-1);
}

int main(int argc, char *argv[])
{
   10138:	7151                	addi	sp,sp,-240
   1013a:	e9ca                	sd	s2,208(sp)
	char *wrap = "";
   1013c:	6965                	lui	s2,0x19
{
   1013e:	f1a2                	sd	s0,224(sp)
   10140:	eda6                	sd	s1,216(sp)
   10142:	e5ce                	sd	s3,200(sp)
   10144:	e1d2                	sd	s4,192(sp)
   10146:	fd56                	sd	s5,184(sp)
   10148:	f95a                	sd	s6,176(sp)
   1014a:	f55e                	sd	s7,168(sp)
   1014c:	f162                	sd	s8,160(sp)
   1014e:	f586                	sd	ra,232(sp)
   10150:	84aa                	mv	s1,a0
   10152:	842e                	mv	s0,a1
	int timeoutsec = 5;
   10154:	4a15                	li	s4,5
	char *wrap = "";
   10156:	86890913          	addi	s2,s2,-1944 # 18868 <__clzdi2+0x262>
	int status;
	sigset_t set;
	int opt;
	int pid;

	while ((opt = getopt(argc, argv, "w:t:")) != -1) {
   1015a:	6b61                	lui	s6,0x18
   1015c:	5afd                	li	s5,-1
		switch (opt) {
   1015e:	07400b93          	li	s7,116
   10162:	07700c13          	li	s8,119
	while ((opt = getopt(argc, argv, "w:t:")) != -1) {
   10166:	6a0b0613          	addi	a2,s6,1696 # 186a0 <__clzdi2+0x9a>
   1016a:	85a2                	mv	a1,s0
   1016c:	8526                	mv	a0,s1
   1016e:	6ce020ef          	jal	ra,1283c <getopt>
   10172:	87aa                	mv	a5,a0
   10174:	01551f63          	bne	a0,s5,10192 <main+0x5a>
			break;
		default:
			usage(argv);
		}
	}
	if (optind >= argc)
   10178:	9641a583          	lw	a1,-1692(gp) # 1c164 <optind>
   1017c:	0295c863          	blt	a1,s1,101ac <main+0x74>
	t_error("usage: %s [-t timeoutsec] [-w wrapcmd] cmd [args..]\n", argv[0]);
   10180:	600c                	ld	a1,0(s0)
   10182:	6561                	lui	a0,0x18
   10184:	65050513          	addi	a0,a0,1616 # 18650 <__clzdi2+0x4a>
   10188:	664000ef          	jal	ra,107ec <t_printf>
	exit(-1);
   1018c:	557d                	li	a0,-1
		exit(1);
   1018e:	f93ff0ef          	jal	ra,10120 <exit>
		switch (opt) {
   10192:	01778763          	beq	a5,s7,101a0 <main+0x68>
   10196:	ff8795e3          	bne	a5,s8,10180 <main+0x48>
			wrap = optarg;
   1019a:	1f81b903          	ld	s2,504(gp) # 1c9f8 <optarg>
			break;
   1019e:	b7e1                	j	10166 <main+0x2e>
			timeoutsec = atoi(optarg);
   101a0:	1f81b503          	ld	a0,504(gp) # 1c9f8 <optarg>
   101a4:	214030ef          	jal	ra,133b8 <atoi>
   101a8:	8a2a                	mv	s4,a0
			break;
   101aa:	bf75                	j	10166 <main+0x2e>
		usage(argv);
	argv += optind;
   101ac:	058e                	slli	a1,a1,0x3
	sigemptyset(&set);
   101ae:	1008                	addi	a0,sp,32
	argv += optind;
   101b0:	942e                	add	s0,s0,a1
	sigemptyset(&set);
   101b2:	4f3020ef          	jal	ra,12ea4 <sigemptyset>
	sigaddset(&set, SIGCHLD);
   101b6:	45c5                	li	a1,17
   101b8:	1008                	addi	a0,sp,32
   101ba:	4b3020ef          	jal	ra,12e6c <sigaddset>
	sigprocmask(SIG_BLOCK, &set, 0);
   101be:	4601                	li	a2,0
   101c0:	100c                	addi	a1,sp,32
   101c2:	4501                	li	a0,0
   101c4:	529020ef          	jal	ra,12eec <sigprocmask>
	signal(SIGCHLD, handler);
   101c8:	65c1                	lui	a1,0x10
   101ca:	46c58593          	addi	a1,a1,1132 # 1046c <handler>
   101ce:	4545                	li	a0,17
   101d0:	4dd020ef          	jal	ra,12eac <signal>
	t_printf("========== START %s %s ==========\n", wrap, argv[0]);
   101d4:	6010                	ld	a2,0(s0)
   101d6:	6561                	lui	a0,0x18
   101d8:	85ca                	mv	a1,s2
   101da:	6a850513          	addi	a0,a0,1704 # 186a8 <__clzdi2+0xa2>
   101de:	60e000ef          	jal	ra,107ec <t_printf>
	pid = fork();
   101e2:	30f020ef          	jal	ra,12cf0 <fork>
   101e6:	84aa                	mv	s1,a0
	if (pid == 0) {
   101e8:	ed1d                	bnez	a0,10226 <main+0xee>
		t_setrlim(RLIMIT_STACK, 100*1024);
   101ea:	65e5                	lui	a1,0x19
   101ec:	450d                	li	a0,3
   101ee:	0d9000ef          	jal	ra,10ac6 <t_setrlim>
		if (*wrap) {
   101f2:	00094783          	lbu	a5,0(s2)
   101f6:	c781                	beqz	a5,101fe <main+0xc6>
			argv[0] = wrap;
   101f8:	ff243c23          	sd	s2,-8(s0)
			argv--;
   101fc:	1461                	addi	s0,s0,-8
		execv(argv[0], argv);
   101fe:	6008                	ld	a0,0(s0)
   10200:	85a2                	mv	a1,s0
   10202:	2cd020ef          	jal	ra,12cce <execv>
		t_error("%s exec failed: %s\n", argv[0], strerror(errno));
   10206:	600c                	ld	a1,0(s0)
   10208:	e42e                	sd	a1,8(sp)
   1020a:	563000ef          	jal	ra,10f6c <__errno_location>
   1020e:	4108                	lw	a0,0(a0)
   10210:	589000ef          	jal	ra,10f98 <strerror>
   10214:	65a2                	ld	a1,8(sp)
   10216:	862a                	mv	a2,a0
   10218:	6561                	lui	a0,0x18
   1021a:	6d050513          	addi	a0,a0,1744 # 186d0 <__clzdi2+0xca>
   1021e:	5ce000ef          	jal	ra,107ec <t_printf>
		exit(1);
   10222:	4505                	li	a0,1
   10224:	b7ad                	j	1018e <main+0x56>
	pid = start(wrap, argv);
	int err = 0;
   10226:	4981                	li	s3,0
	if (pid == -1) {
   10228:	03551763          	bne	a0,s5,10256 <main+0x11e>
		t_error("%s fork failed: %s\n", argv[0], strerror(errno));
   1022c:	600c                	ld	a1,0(s0)
		t_printf("FAIL %s [internal]\n", argv[0]);
		err = 1;
   1022e:	4985                	li	s3,1
		t_error("%s fork failed: %s\n", argv[0], strerror(errno));
   10230:	e42e                	sd	a1,8(sp)
   10232:	53b000ef          	jal	ra,10f6c <__errno_location>
   10236:	4108                	lw	a0,0(a0)
   10238:	561000ef          	jal	ra,10f98 <strerror>
   1023c:	65a2                	ld	a1,8(sp)
   1023e:	862a                	mv	a2,a0
   10240:	6561                	lui	a0,0x18
   10242:	70050513          	addi	a0,a0,1792 # 18700 <__clzdi2+0xfa>
   10246:	5a6000ef          	jal	ra,107ec <t_printf>
		t_printf("FAIL %s [internal]\n", argv[0]);
   1024a:	600c                	ld	a1,0(s0)
   1024c:	6561                	lui	a0,0x18
   1024e:	73050513          	addi	a0,a0,1840 # 18730 <__clzdi2+0x12a>
   10252:	59a000ef          	jal	ra,107ec <t_printf>
	}
	if (sigtimedwait(&set, 0, &(struct timespec){timeoutsec,0}) == -1) {
   10256:	0810                	addi	a2,sp,16
   10258:	4581                	li	a1,0
   1025a:	1008                	addi	a0,sp,32
   1025c:	ec02                	sd	zero,24(sp)
   1025e:	e852                	sd	s4,16(sp)
   10260:	4ad020ef          	jal	ra,12f0c <sigtimedwait>
   10264:	57fd                	li	a5,-1
	int timeout = 0;
   10266:	4a81                	li	s5,0
	if (sigtimedwait(&set, 0, &(struct timespec){timeoutsec,0}) == -1) {
   10268:	04f51c63          	bne	a0,a5,102c0 <main+0x188>
		if (errno == EAGAIN)
   1026c:	501000ef          	jal	ra,10f6c <__errno_location>
   10270:	8a2a                	mv	s4,a0
   10272:	4108                	lw	a0,0(a0)
   10274:	47ad                	li	a5,11
			timeout = 1;
   10276:	4a85                	li	s5,1
		if (errno == EAGAIN)
   10278:	00f50f63          	beq	a0,a5,10296 <main+0x15e>
		else {
			t_error("%s sigtimedwait failed: %s\n", argv[0], strerror(errno));
   1027c:	600c                	ld	a1,0(s0)
			err = 1;
   1027e:	4985                	li	s3,1
	int timeout = 0;
   10280:	4a81                	li	s5,0
			t_error("%s sigtimedwait failed: %s\n", argv[0], strerror(errno));
   10282:	e42e                	sd	a1,8(sp)
   10284:	515000ef          	jal	ra,10f98 <strerror>
   10288:	65a2                	ld	a1,8(sp)
   1028a:	862a                	mv	a2,a0
   1028c:	6561                	lui	a0,0x18
   1028e:	74850513          	addi	a0,a0,1864 # 18748 <__clzdi2+0x142>
   10292:	55a000ef          	jal	ra,107ec <t_printf>
		}
		if (kill(pid, SIGKILL) == -1) {
   10296:	45a5                	li	a1,9
   10298:	8526                	mv	a0,s1
   1029a:	3bb020ef          	jal	ra,12e54 <kill>
   1029e:	57fd                	li	a5,-1
   102a0:	02f51063          	bne	a0,a5,102c0 <main+0x188>
			t_error("%s kill failed: %s\n", argv[0], strerror(errno));
   102a4:	600c                	ld	a1,0(s0)
   102a6:	000a2503          	lw	a0,0(s4)
			err = 1;
   102aa:	4985                	li	s3,1
			t_error("%s kill failed: %s\n", argv[0], strerror(errno));
   102ac:	e42e                	sd	a1,8(sp)
   102ae:	4eb000ef          	jal	ra,10f98 <strerror>
   102b2:	65a2                	ld	a1,8(sp)
   102b4:	862a                	mv	a2,a0
   102b6:	6561                	lui	a0,0x18
   102b8:	78050513          	addi	a0,a0,1920 # 18780 <__clzdi2+0x17a>
   102bc:	530000ef          	jal	ra,107ec <t_printf>
		}
	}
	if (waitpid(pid, &status, 0) != pid) {
   102c0:	4601                	li	a2,0
   102c2:	080c                	addi	a1,sp,16
   102c4:	8526                	mv	a0,s1
   102c6:	32d020ef          	jal	ra,12df2 <waitpid>
   102ca:	02950763          	beq	a0,s1,102f8 <main+0x1c0>
		t_error("%s waitpid failed: %s\n", argv[0], strerror(errno));
   102ce:	600c                	ld	a1,0(s0)
		t_printf("FAIL %s [internal]\n", argv[0]);
		err = 1;
   102d0:	4985                	li	s3,1
		t_error("%s waitpid failed: %s\n", argv[0], strerror(errno));
   102d2:	e42e                	sd	a1,8(sp)
   102d4:	499000ef          	jal	ra,10f6c <__errno_location>
   102d8:	4108                	lw	a0,0(a0)
   102da:	4bf000ef          	jal	ra,10f98 <strerror>
   102de:	65a2                	ld	a1,8(sp)
   102e0:	862a                	mv	a2,a0
   102e2:	6561                	lui	a0,0x18
   102e4:	7b050513          	addi	a0,a0,1968 # 187b0 <__clzdi2+0x1aa>
   102e8:	504000ef          	jal	ra,107ec <t_printf>
		t_printf("FAIL %s [internal]\n", argv[0]);
   102ec:	600c                	ld	a1,0(s0)
   102ee:	6561                	lui	a0,0x18
   102f0:	73050513          	addi	a0,a0,1840 # 18730 <__clzdi2+0x12a>
   102f4:	4f8000ef          	jal	ra,107ec <t_printf>
	}
	if (WIFEXITED(status)) {
   102f8:	4642                	lw	a2,16(sp)
   102fa:	07f67513          	andi	a0,a2,127
   102fe:	e121                	bnez	a0,1033e <main+0x206>
		if (WEXITSTATUS(status) != 0) {
   10300:	4086561b          	sraiw	a2,a2,0x8
   10304:	0ff67613          	andi	a2,a2,255
   10308:	ca35                	beqz	a2,1037c <main+0x244>
			t_printf("FAIL %s [status %d]\n", argv[0], WEXITSTATUS(status));
   1030a:	600c                	ld	a1,0(s0)
   1030c:	6561                	lui	a0,0x18
   1030e:	7e050513          	addi	a0,a0,2016 # 187e0 <__clzdi2+0x1da>
   10312:	4da000ef          	jal	ra,107ec <t_printf>


	if (err == 0) {
		t_printf("Pass!\n");
	}
	t_printf("========== END %s %s ==========\n", wrap, argv[0]);
   10316:	6010                	ld	a2,0(s0)
   10318:	6565                	lui	a0,0x19
   1031a:	85ca                	mv	a1,s2
   1031c:	84850513          	addi	a0,a0,-1976 # 18848 <__clzdi2+0x242>
   10320:	4cc000ef          	jal	ra,107ec <t_printf>
	return 1;
}
   10324:	70ae                	ld	ra,232(sp)
   10326:	740e                	ld	s0,224(sp)
   10328:	64ee                	ld	s1,216(sp)
   1032a:	694e                	ld	s2,208(sp)
   1032c:	69ae                	ld	s3,200(sp)
   1032e:	6a0e                	ld	s4,192(sp)
   10330:	7aea                	ld	s5,184(sp)
   10332:	7b4a                	ld	s6,176(sp)
   10334:	7baa                	ld	s7,168(sp)
   10336:	7c0a                	ld	s8,160(sp)
   10338:	4505                	li	a0,1
   1033a:	616d                	addi	sp,sp,240
   1033c:	8082                	ret
	} else if (timeout) {
   1033e:	600c                	ld	a1,0(s0)
   10340:	000a8863          	beqz	s5,10350 <main+0x218>
		t_printf("FAIL %s [timed out]\n", argv[0]);
   10344:	6561                	lui	a0,0x18
   10346:	7f850513          	addi	a0,a0,2040 # 187f8 <__clzdi2+0x1f2>
		t_printf("FAIL %s [unknown]\n", argv[0]);
   1034a:	4a2000ef          	jal	ra,107ec <t_printf>
	if (err == 0) {
   1034e:	b7e1                	j	10316 <main+0x1de>
	} else if (WIFSIGNALED(status)) {
   10350:	1642                	slli	a2,a2,0x30
   10352:	9241                	srli	a2,a2,0x30
   10354:	367d                	addiw	a2,a2,-1
   10356:	0fe00793          	li	a5,254
   1035a:	00c7ed63          	bltu	a5,a2,10374 <main+0x23c>
   1035e:	e42e                	sd	a1,8(sp)
		t_printf("FAIL %s [signal %s]\n", argv[0], strsignal(WTERMSIG(status)));
   10360:	708030ef          	jal	ra,13a68 <strsignal>
   10364:	65a2                	ld	a1,8(sp)
   10366:	862a                	mv	a2,a0
   10368:	6565                	lui	a0,0x19
   1036a:	81050513          	addi	a0,a0,-2032 # 18810 <__clzdi2+0x20a>
   1036e:	47e000ef          	jal	ra,107ec <t_printf>
	if (err == 0) {
   10372:	b755                	j	10316 <main+0x1de>
		t_printf("FAIL %s [unknown]\n", argv[0]);
   10374:	6565                	lui	a0,0x19
   10376:	82850513          	addi	a0,a0,-2008 # 18828 <__clzdi2+0x222>
   1037a:	bfc1                	j	1034a <main+0x212>
	if (err == 0) {
   1037c:	f8099de3          	bnez	s3,10316 <main+0x1de>
		t_printf("Pass!\n");
   10380:	6565                	lui	a0,0x19
   10382:	84050513          	addi	a0,a0,-1984 # 18840 <__clzdi2+0x23a>
   10386:	466000ef          	jal	ra,107ec <t_printf>
   1038a:	b771                	j	10316 <main+0x1de>

000000000001038c <_start>:
   1038c:	0000c197          	auipc	gp,0xc
   10390:	47418193          	addi	gp,gp,1140 # 1c800 <__global_pointer$>
   10394:	850a                	mv	a0,sp
   10396:	ffff0597          	auipc	a1,0xffff0
   1039a:	c6a58593          	addi	a1,a1,-918 # 0 <exit-0x10120>
   1039e:	ff017113          	andi	sp,sp,-16
   103a2:	a009                	j	103a4 <_start_c>

00000000000103a4 <_start_c>:
   103a4:	410c                	lw	a1,0(a0)
   103a6:	6745                	lui	a4,0x11
   103a8:	66c5                	lui	a3,0x11
   103aa:	00850613          	addi	a2,a0,8
   103ae:	6541                	lui	a0,0x10
   103b0:	4781                	li	a5,0
   103b2:	fa070713          	addi	a4,a4,-96 # 10fa0 <__funcs_on_exit>
   103b6:	db868693          	addi	a3,a3,-584 # 10db8 <_init>
   103ba:	13850513          	addi	a0,a0,312 # 10138 <main>
   103be:	37d0006f          	j	10f3a <__libc_start_main>

00000000000103c2 <deregister_tm_clones>:
   103c2:	8e818793          	addi	a5,gp,-1816 # 1c0e8 <__TMC_END__>
   103c6:	8e818713          	addi	a4,gp,-1816 # 1c0e8 <__TMC_END__>
   103ca:	00f70b63          	beq	a4,a5,103e0 <deregister_tm_clones+0x1e>
   103ce:	00000337          	lui	t1,0x0
   103d2:	00030313          	mv	t1,t1
   103d6:	00030563          	beqz	t1,103e0 <deregister_tm_clones+0x1e>
   103da:	8e818513          	addi	a0,gp,-1816 # 1c0e8 <__TMC_END__>
   103de:	8302                	jr	t1
   103e0:	8082                	ret

00000000000103e2 <register_tm_clones>:
   103e2:	8e818593          	addi	a1,gp,-1816 # 1c0e8 <__TMC_END__>
   103e6:	8e818793          	addi	a5,gp,-1816 # 1c0e8 <__TMC_END__>
   103ea:	8f8d                	sub	a5,a5,a1
   103ec:	4037d713          	srai	a4,a5,0x3
   103f0:	03f7d593          	srli	a1,a5,0x3f
   103f4:	95ba                	add	a1,a1,a4
   103f6:	8585                	srai	a1,a1,0x1
   103f8:	c991                	beqz	a1,1040c <register_tm_clones+0x2a>
   103fa:	00000337          	lui	t1,0x0
   103fe:	00030313          	mv	t1,t1
   10402:	00030563          	beqz	t1,1040c <register_tm_clones+0x2a>
   10406:	8e818513          	addi	a0,gp,-1816 # 1c0e8 <__TMC_END__>
   1040a:	8302                	jr	t1
   1040c:	8082                	ret

000000000001040e <__do_global_dtors_aux>:
   1040e:	1141                	addi	sp,sp,-16
   10410:	e022                	sd	s0,0(sp)
   10412:	a101c783          	lbu	a5,-1520(gp) # 1c210 <completed.4703>
   10416:	e406                	sd	ra,8(sp)
   10418:	e395                	bnez	a5,1043c <__do_global_dtors_aux+0x2e>
   1041a:	fa9ff0ef          	jal	ra,103c2 <deregister_tm_clones>
   1041e:	000007b7          	lui	a5,0x0
   10422:	00078793          	mv	a5,a5
   10426:	cb81                	beqz	a5,10436 <__do_global_dtors_aux+0x28>
   10428:	6569                	lui	a0,0x1a
   1042a:	24850513          	addi	a0,a0,584 # 1a248 <__FRAME_END__>
   1042e:	00000097          	auipc	ra,0x0
   10432:	000000e7          	jalr	zero # 0 <exit-0x10120>
   10436:	4785                	li	a5,1
   10438:	a0f18823          	sb	a5,-1520(gp) # 1c210 <completed.4703>
   1043c:	60a2                	ld	ra,8(sp)
   1043e:	6402                	ld	s0,0(sp)
   10440:	0141                	addi	sp,sp,16
   10442:	8082                	ret

0000000000010444 <frame_dummy>:
   10444:	000007b7          	lui	a5,0x0
   10448:	00078793          	mv	a5,a5
   1044c:	cf99                	beqz	a5,1046a <frame_dummy+0x26>
   1044e:	6569                	lui	a0,0x1a
   10450:	1141                	addi	sp,sp,-16
   10452:	a1818593          	addi	a1,gp,-1512 # 1c218 <object.4708>
   10456:	24850513          	addi	a0,a0,584 # 1a248 <__FRAME_END__>
   1045a:	e406                	sd	ra,8(sp)
   1045c:	00000097          	auipc	ra,0x0
   10460:	000000e7          	jalr	zero # 0 <exit-0x10120>
   10464:	60a2                	ld	ra,8(sp)
   10466:	0141                	addi	sp,sp,16
   10468:	bfad                	j	103e2 <register_tm_clones>
   1046a:	bfa5                	j	103e2 <register_tm_clones>

000000000001046c <handler>:
}
   1046c:	8082                	ret

000000000001046e <t_fdfill>:
#include <unistd.h>
#include <errno.h>
#include "test.h"

void t_fdfill(void)
{
   1046e:	1101                	addi	sp,sp,-32
	int fd = 1;
	if (dup(fd) == -1) {
   10470:	4505                	li	a0,1
{
   10472:	e822                	sd	s0,16(sp)
   10474:	ec06                	sd	ra,24(sp)
   10476:	e426                	sd	s1,8(sp)
	if (dup(fd) == -1) {
   10478:	357030ef          	jal	ra,13fce <dup>
   1047c:	57fd                	li	a5,-1
   1047e:	4405                	li	s0,1
   10480:	00f51f63          	bne	a0,a5,1049e <t_fdfill+0x30>
		if (errno == EMFILE)
   10484:	2e9000ef          	jal	ra,10f6c <__errno_location>
   10488:	4118                	lw	a4,0(a0)
   1048a:	47e1                	li	a5,24
   1048c:	00f70f63          	beq	a4,a5,104aa <t_fdfill+0x3c>
			return;
		fd = open("/dev/null", O_RDONLY);
   10490:	6565                	lui	a0,0x19
   10492:	4581                	li	a1,0
   10494:	87050513          	addi	a0,a0,-1936 # 18870 <__clzdi2+0x26a>
   10498:	337000ef          	jal	ra,10fce <open>
   1049c:	842a                	mv	s0,a0
	}
	while(dup(fd) != -1);
   1049e:	54fd                	li	s1,-1
   104a0:	8522                	mv	a0,s0
   104a2:	32d030ef          	jal	ra,13fce <dup>
   104a6:	fe951de3          	bne	a0,s1,104a0 <t_fdfill+0x32>
}
   104aa:	60e2                	ld	ra,24(sp)
   104ac:	6442                	ld	s0,16(sp)
   104ae:	64a2                	ld	s1,8(sp)
   104b0:	6105                	addi	sp,sp,32
   104b2:	8082                	ret

00000000000104b4 <t_memfill>:
#include <errno.h>
#include <sys/resource.h>
#include "test.h"

int t_memfill()
{
   104b4:	1141                	addi	sp,sp,-16
	int r = 0;
	/* alloc mmap space with PROT_NONE */
	if (t_vmfill(0,0,0) < 0) {
   104b6:	4601                	li	a2,0
   104b8:	4581                	li	a1,0
   104ba:	4501                	li	a0,0
{
   104bc:	e022                	sd	s0,0(sp)
   104be:	e406                	sd	ra,8(sp)
	if (t_vmfill(0,0,0) < 0) {
   104c0:	708000ef          	jal	ra,10bc8 <t_vmfill>
   104c4:	4401                	li	s0,0
   104c6:	00055e63          	bgez	a0,104e2 <t_memfill+0x2e>
		t_error("vmfill failed: %s\n", strerror(errno));
   104ca:	2a3000ef          	jal	ra,10f6c <__errno_location>
   104ce:	4108                	lw	a0,0(a0)
		r = -1;
   104d0:	547d                	li	s0,-1
		t_error("vmfill failed: %s\n", strerror(errno));
   104d2:	2c7000ef          	jal	ra,10f98 <strerror>
   104d6:	85aa                	mv	a1,a0
   104d8:	6565                	lui	a0,0x19
   104da:	88050513          	addi	a0,a0,-1920 # 18880 <__clzdi2+0x27a>
   104de:	30e000ef          	jal	ra,107ec <t_printf>
	}
	/* limit brk space */
	if (t_setrlim(RLIMIT_DATA, 0) < 0)
   104e2:	4581                	li	a1,0
   104e4:	4509                	li	a0,2
   104e6:	5e0000ef          	jal	ra,10ac6 <t_setrlim>
   104ea:	00054c63          	bltz	a0,10502 <t_memfill+0x4e>
		r = -1;
	if (!r)
   104ee:	e811                	bnez	s0,10502 <t_memfill+0x4e>
		/* use up libc reserves if any */
		while (malloc(1));
   104f0:	4505                	li	a0,1
   104f2:	0c8010ef          	jal	ra,115ba <malloc>
   104f6:	fd6d                	bnez	a0,104f0 <t_memfill+0x3c>
	return r;
}
   104f8:	60a2                	ld	ra,8(sp)
   104fa:	8522                	mv	a0,s0
   104fc:	6402                	ld	s0,0(sp)
   104fe:	0141                	addi	sp,sp,16
   10500:	8082                	ret
		r = -1;
   10502:	547d                	li	s0,-1
   10504:	bfd5                	j	104f8 <t_memfill+0x44>

0000000000010506 <eulpf>:
#include <stdio.h>
#include <stdint.h>
#include "mtest.h"

int eulpf(float x)
{
   10506:	e0050553          	fmv.x.w	a0,fa0
	union { float f; uint32_t i; } u = { x };
	int e = u.i>>23 & 0xff;
   1050a:	0175551b          	srliw	a0,a0,0x17
   1050e:	0ff57513          	andi	a0,a0,255

	if (!e)
   10512:	e111                	bnez	a0,10516 <eulpf+0x10>
		e++;
   10514:	4505                	li	a0,1
	return e - 0x7f - 23;
}
   10516:	f6a5051b          	addiw	a0,a0,-150
   1051a:	8082                	ret

000000000001051c <eulp>:

int eulp(double x)
{
   1051c:	e20507d3          	fmv.x.d	a5,fa0
	union { double f; uint64_t i; } u = { x };
	int e = u.i>>52 & 0x7ff;
   10520:	93d1                	srli	a5,a5,0x34

	if (!e)
   10522:	03579713          	slli	a4,a5,0x35
	int e = u.i>>52 & 0x7ff;
   10526:	7ff7f513          	andi	a0,a5,2047
	if (!e)
   1052a:	e311                	bnez	a4,1052e <eulp+0x12>
		e++;
   1052c:	4505                	li	a0,1
	return e - 0x3ff - 52;
}
   1052e:	bcd5051b          	addiw	a0,a0,-1075
   10532:	8082                	ret

0000000000010534 <eulpl>:
	return e - 0x3fff - 63;
#else
	// TODO
	return 0;
#endif
}
   10534:	4501                	li	a0,0
   10536:	8082                	ret

0000000000010538 <ulperrf>:

float ulperrf(float got, float want, float dwant)
{
   10538:	7179                	addi	sp,sp,-48
   1053a:	00a12627          	fsw	fa0,12(sp)
int __fpclassifyl(long double);

static __inline unsigned __FLOAT_BITS(float __f)
{
	union {float __f; unsigned __i;} __u;
	__u.__f = __f;
   1053e:	4732                	lw	a4,12(sp)
	if (isnan(got) && isnan(want))
   10540:	800007b7          	lui	a5,0x80000
   10544:	fff7c793          	not	a5,a5
{
   10548:	f022                	sd	s0,32(sp)
   1054a:	ac22                	fsd	fs0,24(sp)
   1054c:	f406                	sd	ra,40(sp)
	if (isnan(got) && isnan(want))
   1054e:	00f77633          	and	a2,a4,a5
   10552:	7f8006b7          	lui	a3,0x7f800
{
   10556:	e0058453          	fmv.x.w	s0,fa1
   1055a:	20c60453          	fmv.s	fs0,fa2
	if (isnan(got) && isnan(want))
   1055e:	00c6f963          	bgeu	a3,a2,10570 <ulperrf+0x38>
   10562:	8fe1                	and	a5,a5,s0
   10564:	2781                	sext.w	a5,a5
   10566:	08f6f263          	bgeu	a3,a5,105ea <ulperrf+0xb2>
		return 0;
   1056a:	f0000453          	fmv.w.x	fs0,zero
   1056e:	a831                	j	1058a <ulperrf+0x52>
	if (got == want) {
   10570:	00c12787          	flw	fa5,12(sp)
   10574:	a0b7a7d3          	feq.s	a5,fa5,fa1
   10578:	c385                	beqz	a5,10598 <ulperrf+0x60>
		if (signbit(got) == signbit(want))
   1057a:	01f7571b          	srliw	a4,a4,0x1f
   1057e:	01f4541b          	srliw	s0,s0,0x1f
   10582:	00870463          	beq	a4,s0,1058a <ulperrf+0x52>
			return dwant;
		return inf;
   10586:	9401a407          	flw	fs0,-1728(gp) # 1c140 <__SDATA_BEGIN__+0x38>
	if (isinf(got)) {
		got = copysignf(0x1p127, got);
		want *= 0.5;
	}
	return scalbn(got - want, -eulpf(want)) + dwant;
}
   1058a:	70a2                	ld	ra,40(sp)
   1058c:	7402                	ld	s0,32(sp)
   1058e:	20840553          	fmv.s	fa0,fs0
   10592:	2462                	fld	fs0,24(sp)
   10594:	6145                	addi	sp,sp,48
   10596:	8082                	ret
	if (isinf(got)) {
   10598:	02d61263          	bne	a2,a3,105bc <ulperrf+0x84>
		got = copysignf(0x1p127, got);
   1059c:	9441a507          	flw	fa0,-1724(gp) # 1c144 <__SDATA_BEGIN__+0x3c>
   105a0:	00c12587          	flw	fa1,12(sp)
   105a4:	182020ef          	jal	ra,12726 <copysignf>
		want *= 0.5;
   105a8:	f0040753          	fmv.w.x	fa4,s0
   105ac:	9481a787          	flw	fa5,-1720(gp) # 1c148 <__SDATA_BEGIN__+0x40>
		got = copysignf(0x1p127, got);
   105b0:	00a12627          	fsw	fa0,12(sp)
		want *= 0.5;
   105b4:	10f777d3          	fmul.s	fa5,fa4,fa5
   105b8:	e0078453          	fmv.x.w	s0,fa5
	return scalbn(got - want, -eulpf(want)) + dwant;
   105bc:	f0040553          	fmv.w.x	fa0,s0
   105c0:	f47ff0ef          	jal	ra,10506 <eulpf>
   105c4:	00c12787          	flw	fa5,12(sp)
   105c8:	f0040753          	fmv.w.x	fa4,s0
   105cc:	40a0053b          	negw	a0,a0
   105d0:	08e7f553          	fsub.s	fa0,fa5,fa4
   105d4:	42050553          	fcvt.d.s	fa0,fa0
   105d8:	154020ef          	jal	ra,1272c <scalbn>
   105dc:	42040453          	fcvt.d.s	fs0,fs0
   105e0:	02a47453          	fadd.d	fs0,fs0,fa0
   105e4:	40147453          	fcvt.s.d	fs0,fs0
   105e8:	b74d                	j	1058a <ulperrf+0x52>
	if (got == want) {
   105ea:	00c12787          	flw	fa5,12(sp)
   105ee:	a0b7a7d3          	feq.s	a5,fa5,fa1
   105f2:	f7c1                	bnez	a5,1057a <ulperrf+0x42>
   105f4:	b7e1                	j	105bc <ulperrf+0x84>

00000000000105f6 <ulperr>:

float ulperr(double got, double want, float dwant)
{
   105f6:	e20507d3          	fmv.x.d	a5,fa0
	if (isnan(got) && isnan(want))
   105fa:	577d                	li	a4,-1
{
   105fc:	1101                	addi	sp,sp,-32
	if (isnan(got) && isnan(want))
   105fe:	8305                	srli	a4,a4,0x1
   10600:	7ff00693          	li	a3,2047
{
   10604:	e822                	sd	s0,16(sp)
   10606:	a026                	fsd	fs1,0(sp)
   10608:	ec06                	sd	ra,24(sp)
   1060a:	a422                	fsd	fs0,8(sp)
	if (isnan(got) && isnan(want))
   1060c:	00f775b3          	and	a1,a4,a5
   10610:	16d2                	slli	a3,a3,0x34
{
   10612:	e2058453          	fmv.x.d	s0,fa1
   10616:	20c604d3          	fmv.s	fs1,fa2
	return __u.__i;
}
static __inline unsigned long long __DOUBLE_BITS(double __f)
{
	union {double __f; unsigned long long __i;} __u;
	__u.__f = __f;
   1061a:	863e                	mv	a2,a5
	if (isnan(got) && isnan(want))
   1061c:	00b6f863          	bgeu	a3,a1,1062c <ulperr+0x36>
   10620:	8f61                	and	a4,a4,s0
   10622:	08e6f163          	bgeu	a3,a4,106a4 <ulperr+0xae>
		return 0;
   10626:	f00004d3          	fmv.w.x	fs1,zero
   1062a:	a821                	j	10642 <ulperr+0x4c>
	if (got == want) {
   1062c:	a2b52753          	feq.d	a4,fa0,fa1
   10630:	c30d                	beqz	a4,10652 <ulperr+0x5c>
		if (signbit(got) == signbit(want))
   10632:	00062613          	slti	a2,a2,0
   10636:	00042413          	slti	s0,s0,0
   1063a:	00860463          	beq	a2,s0,10642 <ulperr+0x4c>
			return dwant;
		return inf; // treat 0 sign errors badly
   1063e:	9401a487          	flw	fs1,-1728(gp) # 1c140 <__SDATA_BEGIN__+0x38>
	if (isinf(got)) {
		got = copysign(0x1p1023, got);
		want *= 0.5;
	}
	return scalbn(got - want, -eulp(want)) + dwant;
}
   10642:	60e2                	ld	ra,24(sp)
   10644:	6442                	ld	s0,16(sp)
   10646:	20948553          	fmv.s	fa0,fs1
   1064a:	2422                	fld	fs0,8(sp)
   1064c:	2482                	fld	fs1,0(sp)
   1064e:	6105                	addi	sp,sp,32
   10650:	8082                	ret
	if (isinf(got)) {
   10652:	02d59263          	bne	a1,a3,10676 <ulperr+0x80>
		got = copysign(0x1p1023, got);
   10656:	22a505d3          	fmv.d	fa1,fa0
   1065a:	9081b507          	fld	fa0,-1784(gp) # 1c108 <__SDATA_BEGIN__>
   1065e:	0c2020ef          	jal	ra,12720 <copysign>
		want *= 0.5;
   10662:	f2040753          	fmv.d.x	fa4,s0
   10666:	9101b787          	fld	fa5,-1776(gp) # 1c110 <__SDATA_BEGIN__+0x8>
		got = copysign(0x1p1023, got);
   1066a:	e20507d3          	fmv.x.d	a5,fa0
		want *= 0.5;
   1066e:	12f777d3          	fmul.d	fa5,fa4,fa5
   10672:	e2078453          	fmv.x.d	s0,fa5
	return scalbn(got - want, -eulp(want)) + dwant;
   10676:	f20787d3          	fmv.d.x	fa5,a5
   1067a:	f2040753          	fmv.d.x	fa4,s0
   1067e:	f2040553          	fmv.d.x	fa0,s0
   10682:	0ae7f453          	fsub.d	fs0,fa5,fa4
   10686:	e97ff0ef          	jal	ra,1051c <eulp>
   1068a:	40a0053b          	negw	a0,a0
   1068e:	22840553          	fmv.d	fa0,fs0
   10692:	09a020ef          	jal	ra,1272c <scalbn>
   10696:	420484d3          	fcvt.d.s	fs1,fs1
   1069a:	02a4f4d3          	fadd.d	fs1,fs1,fa0
   1069e:	4014f4d3          	fcvt.s.d	fs1,fs1
   106a2:	b745                	j	10642 <ulperr+0x4c>
	if (got == want) {
   106a4:	a2b52753          	feq.d	a4,fa0,fa1
   106a8:	f749                	bnez	a4,10632 <ulperr+0x3c>
   106aa:	b7f1                	j	10676 <ulperr+0x80>

00000000000106ac <ulperrl>:
	return scalbnl(got - want, -eulpl(want)) + dwant;
#else
	// TODO
	return inf;
#endif
}
   106ac:	9401a507          	flw	fa0,-1728(gp) # 1c140 <__SDATA_BEGIN__+0x38>
   106b0:	8082                	ret

00000000000106b2 <estr>:
	flag(UNDERFLOW),
	flag(OVERFLOW)
};

char *estr(int f)
{
   106b2:	711d                	addi	sp,sp,-96
   106b4:	e4a6                	sd	s1,72(sp)
   106b6:	64e5                	lui	s1,0x19
   106b8:	f852                	sd	s4,48(sp)
   106ba:	f456                	sd	s5,40(sp)
   106bc:	f05a                	sd	s6,32(sp)
   106be:	94048493          	addi	s1,s1,-1728 # 18940 <eflags>
	char *p = buf;
	int i, all = 0;

	for (i = 0; i < length(eflags); i++)
		if (f & eflags[i].flag) {
			p += sprintf(p, "%s%s", all ? "|" : "", eflags[i].s);
   106c2:	6ae5                	lui	s5,0x19
   106c4:	6b65                	lui	s6,0x19
{
   106c6:	e8a2                	sd	s0,80(sp)
   106c8:	e0ca                	sd	s2,64(sp)
   106ca:	fc4e                	sd	s3,56(sp)
   106cc:	e862                	sd	s8,16(sp)
   106ce:	e466                	sd	s9,8(sp)
   106d0:	ec86                	sd	ra,88(sp)
   106d2:	ec5e                	sd	s7,24(sp)
   106d4:	89aa                	mv	s3,a0
   106d6:	05048c13          	addi	s8,s1,80
	int i, all = 0;
   106da:	4401                	li	s0,0
	char *p = buf;
   106dc:	a4818913          	addi	s2,gp,-1464 # 1c248 <buf.2024>
			p += sprintf(p, "%s%s", all ? "|" : "", eflags[i].s);
   106e0:	6ce5                	lui	s9,0x19
   106e2:	8b0a8a93          	addi	s5,s5,-1872 # 188b0 <__clzdi2+0x2aa>
   106e6:	868b0b13          	addi	s6,s6,-1944 # 18868 <__clzdi2+0x262>
		if (f & eflags[i].flag) {
   106ea:	0004ab83          	lw	s7,0(s1)
   106ee:	013bf7b3          	and	a5,s7,s3
   106f2:	cf89                	beqz	a5,1070c <estr+0x5a>
			p += sprintf(p, "%s%s", all ? "|" : "", eflags[i].s);
   106f4:	8656                	mv	a2,s5
   106f6:	e011                	bnez	s0,106fa <estr+0x48>
   106f8:	865a                	mv	a2,s6
   106fa:	6494                	ld	a3,8(s1)
   106fc:	854a                	mv	a0,s2
   106fe:	8c0c8593          	addi	a1,s9,-1856 # 188c0 <__clzdi2+0x2ba>
   10702:	389020ef          	jal	ra,1328a <sprintf>
   10706:	992a                	add	s2,s2,a0
			all |= eflags[i].flag;
   10708:	008be433          	or	s0,s7,s0
	for (i = 0; i < length(eflags); i++)
   1070c:	04c1                	addi	s1,s1,16
   1070e:	fd849ee3          	bne	s1,s8,106ea <estr+0x38>
		}
	if (all != f) {
   10712:	03340163          	beq	s0,s3,10734 <estr+0x82>
		p += sprintf(p, "%s%d", all ? "|" : "", f & ~all);
   10716:	e829                	bnez	s0,10768 <estr+0xb6>
   10718:	6665                	lui	a2,0x19
   1071a:	86860613          	addi	a2,a2,-1944 # 18868 <__clzdi2+0x262>
   1071e:	fff44693          	not	a3,s0
   10722:	65e5                	lui	a1,0x19
   10724:	854a                	mv	a0,s2
   10726:	0136f6b3          	and	a3,a3,s3
   1072a:	8c858593          	addi	a1,a1,-1848 # 188c8 <__clzdi2+0x2c2>
   1072e:	35d020ef          	jal	ra,1328a <sprintf>
   10732:	992a                	add	s2,s2,a0
		all = f;
	}
	p += sprintf(p, "%s", all ? "" : "0");
   10734:	02099e63          	bnez	s3,10770 <estr+0xbe>
   10738:	6665                	lui	a2,0x19
   1073a:	8b860613          	addi	a2,a2,-1864 # 188b8 <__clzdi2+0x2b2>
   1073e:	65e5                	lui	a1,0x19
   10740:	854a                	mv	a0,s2
   10742:	8d058593          	addi	a1,a1,-1840 # 188d0 <__clzdi2+0x2ca>
   10746:	345020ef          	jal	ra,1328a <sprintf>
	return buf;
}
   1074a:	60e6                	ld	ra,88(sp)
   1074c:	6446                	ld	s0,80(sp)
   1074e:	64a6                	ld	s1,72(sp)
   10750:	6906                	ld	s2,64(sp)
   10752:	79e2                	ld	s3,56(sp)
   10754:	7aa2                	ld	s5,40(sp)
   10756:	7b02                	ld	s6,32(sp)
   10758:	6be2                	ld	s7,24(sp)
   1075a:	6c42                	ld	s8,16(sp)
   1075c:	6ca2                	ld	s9,8(sp)
   1075e:	a4818513          	addi	a0,gp,-1464 # 1c248 <buf.2024>
   10762:	7a42                	ld	s4,48(sp)
   10764:	6125                	addi	sp,sp,96
   10766:	8082                	ret
		p += sprintf(p, "%s%d", all ? "|" : "", f & ~all);
   10768:	6665                	lui	a2,0x19
   1076a:	8b060613          	addi	a2,a2,-1872 # 188b0 <__clzdi2+0x2aa>
   1076e:	bf45                	j	1071e <estr+0x6c>
	p += sprintf(p, "%s", all ? "" : "0");
   10770:	6665                	lui	a2,0x19
   10772:	86860613          	addi	a2,a2,-1944 # 18868 <__clzdi2+0x262>
   10776:	b7e1                	j	1073e <estr+0x8c>

0000000000010778 <rstr>:

char *rstr(int r)
{
	switch (r) {
   10778:	478d                	li	a5,3
   1077a:	00a7ea63          	bltu	a5,a0,1078e <rstr+0x16>
   1077e:	1502                	slli	a0,a0,0x20
   10780:	67e5                	lui	a5,0x19
   10782:	94078793          	addi	a5,a5,-1728 # 18940 <eflags>
   10786:	8175                	srli	a0,a0,0x1d
   10788:	953e                	add	a0,a0,a5
   1078a:	6928                	ld	a0,80(a0)
   1078c:	8082                	ret
{
   1078e:	6565                	lui	a0,0x19
   10790:	8d850513          	addi	a0,a0,-1832 # 188d8 <__clzdi2+0x2d2>
#ifdef FE_DOWNWARD
	case RD: return "RD";
#endif
	}
	return "R?";
}
   10794:	8082                	ret

0000000000010796 <t_pathrel>:
#include <stdio.h>
#include "test.h"

/* relative path to p */
char *t_pathrel(char *buf, size_t n, char *argv0, char *p)
{
   10796:	7179                	addi	sp,sp,-48
   10798:	f022                	sd	s0,32(sp)
   1079a:	ec26                	sd	s1,24(sp)
   1079c:	842a                	mv	s0,a0
   1079e:	84ae                	mv	s1,a1
	char *s = strrchr(argv0, '/');
   107a0:	8532                	mv	a0,a2
   107a2:	02f00593          	li	a1,47
{
   107a6:	e436                	sd	a3,8(sp)
   107a8:	f406                	sd	ra,40(sp)
	char *s = strrchr(argv0, '/');
   107aa:	e032                	sd	a2,0(sp)
   107ac:	298030ef          	jal	ra,13a44 <strrchr>
	int k;

	if (s)
   107b0:	66a2                	ld	a3,8(sp)
   107b2:	c50d                	beqz	a0,107dc <t_pathrel+0x46>
		k = snprintf(buf, n, "%.*s/%s", (int)(s-argv0), argv0, p);
   107b4:	6702                	ld	a4,0(sp)
   107b6:	6665                	lui	a2,0x19
   107b8:	87b6                	mv	a5,a3
   107ba:	9b060613          	addi	a2,a2,-1616 # 189b0 <CSWTCH.18+0x20>
   107be:	40e506bb          	subw	a3,a0,a4
   107c2:	85a6                	mv	a1,s1
   107c4:	8522                	mv	a0,s0
   107c6:	2a9020ef          	jal	ra,1326e <snprintf>
	else
		k = snprintf(buf, n, "./%s", p);
	if ((size_t)k >= n)
   107ca:	00956363          	bltu	a0,s1,107d0 <t_pathrel+0x3a>
		return 0;
   107ce:	4401                	li	s0,0
	return buf;
}
   107d0:	70a2                	ld	ra,40(sp)
   107d2:	8522                	mv	a0,s0
   107d4:	7402                	ld	s0,32(sp)
   107d6:	64e2                	ld	s1,24(sp)
   107d8:	6145                	addi	sp,sp,48
   107da:	8082                	ret
		k = snprintf(buf, n, "./%s", p);
   107dc:	6665                	lui	a2,0x19
   107de:	9b860613          	addi	a2,a2,-1608 # 189b8 <CSWTCH.18+0x28>
   107e2:	85a6                	mv	a1,s1
   107e4:	8522                	mv	a0,s0
   107e6:	289020ef          	jal	ra,1326e <snprintf>
   107ea:	b7c5                	j	107ca <t_pathrel+0x34>

00000000000107ec <t_printf>:
#include "test.h"

volatile int t_status = 0;

int t_printf(const char *s, ...)
{
   107ec:	da010113          	addi	sp,sp,-608
   107f0:	22b13423          	sd	a1,552(sp)
   107f4:	22c13823          	sd	a2,560(sp)
   107f8:	22d13c23          	sd	a3,568(sp)
	char buf[512];
	int n;

	t_status = 1;
	va_start(ap, s);
	n = vsnprintf(buf, sizeof buf, s, ap);
   107fc:	862a                	mv	a2,a0
{
   107fe:	24e13023          	sd	a4,576(sp)
   10802:	24f13423          	sd	a5,584(sp)
	t_status = 1;
   10806:	4705                	li	a4,1
	va_start(ap, s);
   10808:	1434                	addi	a3,sp,552
	n = vsnprintf(buf, sizeof buf, s, ap);
   1080a:	20000593          	li	a1,512
   1080e:	0808                	addi	a0,sp,16
{
   10810:	20113c23          	sd	ra,536(sp)
   10814:	25013823          	sd	a6,592(sp)
   10818:	25113c23          	sd	a7,600(sp)
	t_status = 1;
   1081c:	96e1ac23          	sw	a4,-1672(gp) # 1c178 <_edata>
	va_start(ap, s);
   10820:	e436                	sd	a3,8(sp)
	n = vsnprintf(buf, sizeof buf, s, ap);
   10822:	30d020ef          	jal	ra,1332e <vsnprintf>
	va_end(ap);
	if (n < 0)
		n = 0;
   10826:	4601                	li	a2,0
	if (n < 0)
   10828:	00054f63          	bltz	a0,10846 <t_printf+0x5a>
	else if (n >= sizeof buf) {
   1082c:	1ff00793          	li	a5,511
   10830:	862a                	mv	a2,a0
   10832:	00a7da63          	bge	a5,a0,10846 <t_printf+0x5a>
		n = sizeof buf;
		buf[n - 1] = '\n';
		buf[n - 2] = '.';
		buf[n - 3] = '.';
		buf[n - 4] = '.';
   10836:	0a2e37b7          	lui	a5,0xa2e3
   1083a:	e2e7879b          	addiw	a5,a5,-466
   1083e:	20f12623          	sw	a5,524(sp)
		n = sizeof buf;
   10842:	20000613          	li	a2,512
	}
	return write(1, buf, n);
   10846:	080c                	addi	a1,sp,16
   10848:	4505                	li	a0,1
   1084a:	79a030ef          	jal	ra,13fe4 <write>
}
   1084e:	21813083          	ld	ra,536(sp)
   10852:	2501                	sext.w	a0,a0
   10854:	26010113          	addi	sp,sp,608
   10858:	8082                	ret

000000000001085a <rand32>:

// TODO: use large period prng
static uint64_t seed = -1;
static uint32_t rand32(void)
{
	seed = 6364136223846793005ULL*seed + 1;
   1085a:	9581b503          	ld	a0,-1704(gp) # 1c158 <seed>
   1085e:	9181b703          	ld	a4,-1768(gp) # 1c118 <__SDATA_BEGIN__+0x10>
   10862:	02e50533          	mul	a0,a0,a4
   10866:	0505                	addi	a0,a0,1
   10868:	94a1bc23          	sd	a0,-1704(gp) # 1c158 <seed>
	return seed >> 32;
}
   1086c:	9501                	srai	a0,a0,0x20
   1086e:	8082                	ret

0000000000010870 <t_randseed>:
;
}

void t_randseed(uint64_t s)
{
	seed = s;
   10870:	94a1bc23          	sd	a0,-1704(gp) # 1c158 <seed>
}
   10874:	8082                	ret

0000000000010876 <t_randn>:

/* uniform random in [0,n), n > 0 must hold */
uint64_t t_randn(uint64_t n)
{
   10876:	1101                	addi	sp,sp,-32
   10878:	e426                	sd	s1,8(sp)
	uint64_t r, m;

	/* m is the largest multiple of n */
	m = -1;
	m -= m%n;
   1087a:	54fd                	li	s1,-1
   1087c:	02a4f4b3          	remu	s1,s1,a0
{
   10880:	e04a                	sd	s2,0(sp)
   10882:	ec06                	sd	ra,24(sp)
   10884:	e822                	sd	s0,16(sp)
   10886:	892a                	mv	s2,a0
	m -= m%n;
   10888:	fff4c493          	not	s1,s1
	uint64_t u = rand32();
   1088c:	fcfff0ef          	jal	ra,1085a <rand32>
   10890:	0005041b          	sext.w	s0,a0
	return u<<32 | rand32();
   10894:	fc7ff0ef          	jal	ra,1085a <rand32>
   10898:	02051793          	slli	a5,a0,0x20
   1089c:	1402                	slli	s0,s0,0x20
   1089e:	9381                	srli	a5,a5,0x20
   108a0:	8fc1                	or	a5,a5,s0
	while ((r = rand64()) >= m);
   108a2:	fe97f5e3          	bgeu	a5,s1,1088c <t_randn+0x16>
	return r%n;
}
   108a6:	60e2                	ld	ra,24(sp)
   108a8:	6442                	ld	s0,16(sp)
   108aa:	0327f533          	remu	a0,a5,s2
   108ae:	64a2                	ld	s1,8(sp)
   108b0:	6902                	ld	s2,0(sp)
   108b2:	6105                	addi	sp,sp,32
   108b4:	8082                	ret

00000000000108b6 <shuffle2>:
	return rand64();
}

/* shuffle the elements of p and q until the elements in p are well shuffled */
static void shuffle2(uint64_t *p, uint64_t *q, size_t np, size_t nq)
{
   108b6:	7179                	addi	sp,sp,-48
   108b8:	ec26                	sd	s1,24(sp)
   108ba:	00361493          	slli	s1,a2,0x3
   108be:	f022                	sd	s0,32(sp)
   108c0:	e84a                	sd	s2,16(sp)
   108c2:	e44e                	sd	s3,8(sp)
   108c4:	e052                	sd	s4,0(sp)
   108c6:	f406                	sd	ra,40(sp)
   108c8:	89aa                	mv	s3,a0
   108ca:	8a2e                	mv	s4,a1
   108cc:	8432                	mv	s0,a2
   108ce:	8936                	mv	s2,a3
   108d0:	94aa                	add	s1,s1,a0
	size_t r;
	uint64_t t;

	while (np) {
   108d2:	e809                	bnez	s0,108e4 <shuffle2+0x2e>
		} else {
			p[np] = p[r-nq];
			p[r-nq] = t;
		}
	}
}
   108d4:	70a2                	ld	ra,40(sp)
   108d6:	7402                	ld	s0,32(sp)
   108d8:	64e2                	ld	s1,24(sp)
   108da:	6942                	ld	s2,16(sp)
   108dc:	69a2                	ld	s3,8(sp)
   108de:	6a02                	ld	s4,0(sp)
   108e0:	6145                	addi	sp,sp,48
   108e2:	8082                	ret
		r = t_randn(nq+np--);
   108e4:	01240533          	add	a0,s0,s2
   108e8:	f8fff0ef          	jal	ra,10876 <t_randn>
		t = p[np];
   108ec:	ff84b703          	ld	a4,-8(s1)
		if (r < nq) {
   108f0:	01257b63          	bgeu	a0,s2,10906 <shuffle2+0x50>
			p[np] = q[r];
   108f4:	00351793          	slli	a5,a0,0x3
   108f8:	97d2                	add	a5,a5,s4
			p[np] = p[r-nq];
   108fa:	6394                	ld	a3,0(a5)
   108fc:	147d                	addi	s0,s0,-1
   108fe:	14e1                	addi	s1,s1,-8
   10900:	e094                	sd	a3,0(s1)
			p[r-nq] = t;
   10902:	e398                	sd	a4,0(a5)
   10904:	b7f9                	j	108d2 <shuffle2+0x1c>
			p[np] = p[r-nq];
   10906:	412507b3          	sub	a5,a0,s2
   1090a:	078e                	slli	a5,a5,0x3
   1090c:	97ce                	add	a5,a5,s3
   1090e:	b7f5                	j	108fa <shuffle2+0x44>

0000000000010910 <t_randint>:
{
   10910:	1141                	addi	sp,sp,-16
	uint64_t n = b - a + 1;
   10912:	8d89                	sub	a1,a1,a0
{
   10914:	e022                	sd	s0,0(sp)
   10916:	e406                	sd	ra,8(sp)
   10918:	842a                	mv	s0,a0
	uint64_t n = b - a + 1;
   1091a:	00158513          	addi	a0,a1,1
	if (n)
   1091e:	c901                	beqz	a0,1092e <t_randint+0x1e>
		return a + t_randn(n);
   10920:	f57ff0ef          	jal	ra,10876 <t_randn>
   10924:	9522                	add	a0,a0,s0
}
   10926:	60a2                	ld	ra,8(sp)
   10928:	6402                	ld	s0,0(sp)
   1092a:	0141                	addi	sp,sp,16
   1092c:	8082                	ret
	uint64_t u = rand32();
   1092e:	f2dff0ef          	jal	ra,1085a <rand32>
   10932:	0005041b          	sext.w	s0,a0
	return u<<32 | rand32();
   10936:	f25ff0ef          	jal	ra,1085a <rand32>
   1093a:	1502                	slli	a0,a0,0x20
   1093c:	1402                	slli	s0,s0,0x20
   1093e:	9101                	srli	a0,a0,0x20
   10940:	8d41                	or	a0,a0,s0
	return rand64();
   10942:	b7d5                	j	10926 <t_randint+0x16>

0000000000010944 <t_shuffle>:

/* shuffle the elements of p */
void t_shuffle(uint64_t *p, size_t n)
{
   10944:	862e                	mv	a2,a1
	shuffle2(p,0,n,0);
   10946:	4681                	li	a3,0
   10948:	4581                	li	a1,0
   1094a:	b7b5                	j	108b6 <shuffle2>

000000000001094c <t_randrange>:
}

void t_randrange(uint64_t *p, size_t n)
{
   1094c:	87ae                	mv	a5,a1
	size_t i;
	for (i = 0; i < n; i++)
   1094e:	4581                	li	a1,0
   10950:	00f59363          	bne	a1,a5,10956 <t_randrange+0xa>
		p[i] = i;
	t_shuffle(p, n);
   10954:	bfc5                	j	10944 <t_shuffle>
		p[i] = i;
   10956:	00359713          	slli	a4,a1,0x3
   1095a:	972a                	add	a4,a4,a0
   1095c:	e30c                	sd	a1,0(a4)
	for (i = 0; i < n; i++)
   1095e:	0585                	addi	a1,a1,1
   10960:	bfc5                	j	10950 <t_randrange+0x4>

0000000000010962 <t_choose>:
int t_choose(uint64_t n, size_t k, uint64_t *p)
{
	uint64_t *tab;
	size_t i, j, len;

	if (n < k)
   10962:	00b57f63          	bgeu	a0,a1,10980 <t_choose+0x1e>
		return -1;
   10966:	557d                	li	a0,-1
	for (i = 0; i < len; i++)
		if (tab[i])
			*p++ = tab[i]-1;
	free(tab);
	return 0;
}
   10968:	8082                	ret
		return -1;
   1096a:	557d                	li	a0,-1
}
   1096c:	60a6                	ld	ra,72(sp)
   1096e:	6406                	ld	s0,64(sp)
   10970:	74e2                	ld	s1,56(sp)
   10972:	7942                	ld	s2,48(sp)
   10974:	79a2                	ld	s3,40(sp)
   10976:	7a02                	ld	s4,32(sp)
   10978:	6ae2                	ld	s5,24(sp)
   1097a:	6b42                	ld	s6,16(sp)
   1097c:	6161                	addi	sp,sp,80
   1097e:	8082                	ret
{
   10980:	715d                	addi	sp,sp,-80
   10982:	e0a2                	sd	s0,64(sp)
   10984:	fc26                	sd	s1,56(sp)
   10986:	f84a                	sd	s2,48(sp)
   10988:	e486                	sd	ra,72(sp)
   1098a:	f44e                	sd	s3,40(sp)
   1098c:	f052                	sd	s4,32(sp)
   1098e:	ec56                	sd	s5,24(sp)
   10990:	e85a                	sd	s6,16(sp)
	if (n < 16) {
   10992:	47bd                	li	a5,15
   10994:	84aa                	mv	s1,a0
   10996:	842e                	mv	s0,a1
   10998:	8932                	mv	s2,a2
   1099a:	02a7e463          	bltu	a5,a0,109c2 <t_choose+0x60>
		while (k)
   1099e:	e019                	bnez	s0,109a4 <t_choose+0x42>
	return 0;
   109a0:	4501                	li	a0,0
   109a2:	b7e9                	j	1096c <t_choose+0xa>
			if (t_randn(n--) < k)
   109a4:	8526                	mv	a0,s1
   109a6:	fff48993          	addi	s3,s1,-1
   109aa:	ecdff0ef          	jal	ra,10876 <t_randn>
   109ae:	00857863          	bgeu	a0,s0,109be <t_choose+0x5c>
				p[--k] = n;
   109b2:	147d                	addi	s0,s0,-1
   109b4:	00341793          	slli	a5,s0,0x3
   109b8:	97ca                	add	a5,a5,s2
   109ba:	0137b023          	sd	s3,0(a5) # a2e3000 <__BSS_END__+0xa2c65e0>
{
   109be:	84ce                	mv	s1,s3
   109c0:	bff9                	j	1099e <t_choose+0x3c>
	if (k < 8) {
   109c2:	479d                	li	a5,7
   109c4:	02b7eb63          	bltu	a5,a1,109fa <t_choose+0x98>
		for (i = 0; i < k;) {
   109c8:	4981                	li	s3,0
   109ca:	a01d                	j	109f0 <t_choose+0x8e>
			p[i] = t_randn(n);
   109cc:	00399a13          	slli	s4,s3,0x3
   109d0:	8526                	mv	a0,s1
   109d2:	ea5ff0ef          	jal	ra,10876 <t_randn>
   109d6:	9a4a                	add	s4,s4,s2
   109d8:	00aa3023          	sd	a0,0(s4)
			for (j = 0; p[j] != p[i]; j++);
   109dc:	4781                	li	a5,0
   109de:	00379713          	slli	a4,a5,0x3
   109e2:	974a                	add	a4,a4,s2
   109e4:	6318                	ld	a4,0(a4)
   109e6:	00e51863          	bne	a0,a4,109f6 <t_choose+0x94>
			if (j == i)
   109ea:	00f99363          	bne	s3,a5,109f0 <t_choose+0x8e>
				i++;
   109ee:	0985                	addi	s3,s3,1
		for (i = 0; i < k;) {
   109f0:	fc89eee3          	bltu	s3,s0,109cc <t_choose+0x6a>
   109f4:	b775                	j	109a0 <t_choose+0x3e>
			for (j = 0; p[j] != p[i]; j++);
   109f6:	0785                	addi	a5,a5,1
   109f8:	b7dd                	j	109de <t_choose+0x7c>
	if (n < 5*k && (n-k)*sizeof *tab < (size_t)-1) {
   109fa:	4795                	li	a5,5
   109fc:	02f587b3          	mul	a5,a1,a5
   10a00:	04f56063          	bltu	a0,a5,10a40 <t_choose+0xde>
	for (len = 16; len < 2*k; len *= 2);
   10a04:	00159793          	slli	a5,a1,0x1
   10a08:	4a41                	li	s4,16
   10a0a:	08fa6663          	bltu	s4,a5,10a96 <t_choose+0x134>
	tab = calloc(len, sizeof *tab);
   10a0e:	45a1                	li	a1,8
   10a10:	8552                	mv	a0,s4
   10a12:	0c9000ef          	jal	ra,112da <calloc>
   10a16:	89aa                	mv	s3,a0
	if (!tab)
   10a18:	d929                	beqz	a0,1096a <t_choose+0x8>
	for (i = 0; i < k; i++)
   10a1a:	4a81                	li	s5,0
	size_t i = v & (len-1);
   10a1c:	fffa0b13          	addi	s6,s4,-1
	for (i = 0; i < k; i++)
   10a20:	068a9d63          	bne	s5,s0,10a9a <t_choose+0x138>
	for (i = 0; i < len; i++)
   10a24:	4781                	li	a5,0
   10a26:	05478663          	beq	a5,s4,10a72 <t_choose+0x110>
		if (tab[i])
   10a2a:	00379713          	slli	a4,a5,0x3
   10a2e:	974e                	add	a4,a4,s3
   10a30:	6318                	ld	a4,0(a4)
   10a32:	c709                	beqz	a4,10a3c <t_choose+0xda>
			*p++ = tab[i]-1;
   10a34:	177d                	addi	a4,a4,-1
   10a36:	00e93023          	sd	a4,0(s2)
   10a3a:	0921                	addi	s2,s2,8
	for (i = 0; i < len; i++)
   10a3c:	0785                	addi	a5,a5,1
   10a3e:	b7e5                	j	10a26 <t_choose+0xc4>
	if (n < 5*k && (n-k)*sizeof *tab < (size_t)-1) {
   10a40:	40b50633          	sub	a2,a0,a1
		tab = malloc((n-k) * sizeof *tab);
   10a44:	00361513          	slli	a0,a2,0x3
   10a48:	e432                	sd	a2,8(sp)
   10a4a:	371000ef          	jal	ra,115ba <malloc>
   10a4e:	89aa                	mv	s3,a0
		if (!tab)
   10a50:	dd09                	beqz	a0,1096a <t_choose+0x8>
   10a52:	6622                	ld	a2,8(sp)
		for (i = 0; i < k; i++)
   10a54:	4781                	li	a5,0
   10a56:	02879263          	bne	a5,s0,10a7a <t_choose+0x118>
   10a5a:	874e                	mv	a4,s3
   10a5c:	87a2                	mv	a5,s0
		for (; i < n; i++)
   10a5e:	02979463          	bne	a5,s1,10a86 <t_choose+0x124>
		if (k < n-k)
   10a62:	02c47663          	bgeu	s0,a2,10a8e <t_choose+0x12c>
			shuffle2(p, tab, k, n-k);
   10a66:	86b2                	mv	a3,a2
   10a68:	85ce                	mv	a1,s3
   10a6a:	8622                	mv	a2,s0
   10a6c:	854a                	mv	a0,s2
			shuffle2(tab, p, n-k, k);
   10a6e:	e49ff0ef          	jal	ra,108b6 <shuffle2>
	free(tab);
   10a72:	854e                	mv	a0,s3
   10a74:	113000ef          	jal	ra,11386 <free>
   10a78:	b725                	j	109a0 <t_choose+0x3e>
			p[i] = i;
   10a7a:	00379713          	slli	a4,a5,0x3
   10a7e:	974a                	add	a4,a4,s2
   10a80:	e31c                	sd	a5,0(a4)
		for (i = 0; i < k; i++)
   10a82:	0785                	addi	a5,a5,1
   10a84:	bfc9                	j	10a56 <t_choose+0xf4>
			tab[i-k] = i;
   10a86:	e31c                	sd	a5,0(a4)
		for (; i < n; i++)
   10a88:	0785                	addi	a5,a5,1
   10a8a:	0721                	addi	a4,a4,8
   10a8c:	bfc9                	j	10a5e <t_choose+0xfc>
			shuffle2(tab, p, n-k, k);
   10a8e:	86a2                	mv	a3,s0
   10a90:	85ca                	mv	a1,s2
   10a92:	854e                	mv	a0,s3
   10a94:	bfe9                	j	10a6e <t_choose+0x10c>
	for (len = 16; len < 2*k; len *= 2);
   10a96:	0a06                	slli	s4,s4,0x1
   10a98:	bf8d                	j	10a0a <t_choose+0xa8>
		while (insert(tab, len, t_randn(n)+1));
   10a9a:	8526                	mv	a0,s1
   10a9c:	ddbff0ef          	jal	ra,10876 <t_randn>
   10aa0:	0505                	addi	a0,a0,1
	size_t i = v & (len-1);
   10aa2:	016577b3          	and	a5,a0,s6
	size_t j = 1;
   10aa6:	4685                	li	a3,1
	while (tab[i]) {
   10aa8:	00379713          	slli	a4,a5,0x3
   10aac:	974e                	add	a4,a4,s3
   10aae:	6310                	ld	a2,0(a4)
   10ab0:	e601                	bnez	a2,10ab8 <t_choose+0x156>
	tab[i] = v;
   10ab2:	e308                	sd	a0,0(a4)
	for (i = 0; i < k; i++)
   10ab4:	0a85                	addi	s5,s5,1
   10ab6:	b7ad                	j	10a20 <t_choose+0xbe>
		if (tab[i] == v)
   10ab8:	fec501e3          	beq	a0,a2,10a9a <t_choose+0x138>
		i += j++;
   10abc:	97b6                	add	a5,a5,a3
		i &= len-1;
   10abe:	00fb77b3          	and	a5,s6,a5
		i += j++;
   10ac2:	0685                	addi	a3,a3,1
   10ac4:	b7d5                	j	10aa8 <t_choose+0x146>

0000000000010ac6 <t_setrlim>:
#include <errno.h>
#include <sys/resource.h>
#include "test.h"

int t_setrlim(int r, long lim)
{
   10ac6:	7179                	addi	sp,sp,-48
   10ac8:	f022                	sd	s0,32(sp)
   10aca:	842e                	mv	s0,a1
	struct rlimit rl;

	if (getrlimit(r, &rl)) {
   10acc:	858a                	mv	a1,sp
{
   10ace:	e84a                	sd	s2,16(sp)
   10ad0:	f406                	sd	ra,40(sp)
   10ad2:	ec26                	sd	s1,24(sp)
   10ad4:	892a                	mv	s2,a0
	if (getrlimit(r, &rl)) {
   10ad6:	727010ef          	jal	ra,129fc <getrlimit>
   10ada:	c50d                	beqz	a0,10b04 <t_setrlim+0x3e>
		t_error("getrlimit %d: %s\n", r, strerror(errno));
   10adc:	490000ef          	jal	ra,10f6c <__errno_location>
   10ae0:	4108                	lw	a0,0(a0)
   10ae2:	4b6000ef          	jal	ra,10f98 <strerror>
   10ae6:	862a                	mv	a2,a0
   10ae8:	6565                	lui	a0,0x19
   10aea:	85ca                	mv	a1,s2
   10aec:	9c050513          	addi	a0,a0,-1600 # 189c0 <CSWTCH.18+0x30>
   10af0:	cfdff0ef          	jal	ra,107ec <t_printf>
		return -1;
	}
	if (lim > rl.rlim_max)
		return -1;
   10af4:	54fd                	li	s1,-1
	if (setrlimit(r, &rl)) {
		t_error("setrlimit(%d, %ld): %s\n", r, lim, strerror(errno));
		return -1;
	}
	return 0;
}
   10af6:	70a2                	ld	ra,40(sp)
   10af8:	7402                	ld	s0,32(sp)
   10afa:	6942                	ld	s2,16(sp)
   10afc:	8526                	mv	a0,s1
   10afe:	64e2                	ld	s1,24(sp)
   10b00:	6145                	addi	sp,sp,48
   10b02:	8082                	ret
	if (lim > rl.rlim_max)
   10b04:	67a2                	ld	a5,8(sp)
   10b06:	fe87e7e3          	bltu	a5,s0,10af4 <t_setrlim+0x2e>
   10b0a:	84aa                	mv	s1,a0
	if (lim == rl.rlim_max && lim == rl.rlim_cur)
   10b0c:	00879563          	bne	a5,s0,10b16 <t_setrlim+0x50>
   10b10:	6782                	ld	a5,0(sp)
   10b12:	fef402e3          	beq	s0,a5,10af6 <t_setrlim+0x30>
	if (setrlimit(r, &rl)) {
   10b16:	858a                	mv	a1,sp
   10b18:	854a                	mv	a0,s2
	rl.rlim_max = lim;
   10b1a:	e422                	sd	s0,8(sp)
	rl.rlim_cur = lim;
   10b1c:	e022                	sd	s0,0(sp)
	if (setrlimit(r, &rl)) {
   10b1e:	75f010ef          	jal	ra,12a7c <setrlimit>
   10b22:	d971                	beqz	a0,10af6 <t_setrlim+0x30>
		t_error("setrlimit(%d, %ld): %s\n", r, lim, strerror(errno));
   10b24:	448000ef          	jal	ra,10f6c <__errno_location>
   10b28:	4108                	lw	a0,0(a0)
   10b2a:	46e000ef          	jal	ra,10f98 <strerror>
   10b2e:	86aa                	mv	a3,a0
   10b30:	6565                	lui	a0,0x19
   10b32:	8622                	mv	a2,s0
   10b34:	85ca                	mv	a1,s2
   10b36:	9f050513          	addi	a0,a0,-1552 # 189f0 <CSWTCH.18+0x60>
   10b3a:	cb3ff0ef          	jal	ra,107ec <t_printf>
		return -1;
   10b3e:	bf5d                	j	10af4 <t_setrlim+0x2e>

0000000000010b40 <t_setutf8>:
#include "test.h"

int t_setutf8()
{
	(void)(
	setlocale(LC_CTYPE, "C.UTF-8") ||
   10b40:	65e5                	lui	a1,0x19
{
   10b42:	1141                	addi	sp,sp,-16
	setlocale(LC_CTYPE, "C.UTF-8") ||
   10b44:	a2858593          	addi	a1,a1,-1496 # 18a28 <CSWTCH.18+0x98>
   10b48:	4501                	li	a0,0
{
   10b4a:	e022                	sd	s0,0(sp)
   10b4c:	e406                	sd	ra,8(sp)
	setlocale(LC_CTYPE, "C.UTF-8") ||
   10b4e:	606000ef          	jal	ra,11154 <setlocale>
   10b52:	6465                	lui	s0,0x19
	(void)(
   10b54:	e139                	bnez	a0,10b9a <t_setutf8+0x5a>
	setlocale(LC_CTYPE, "POSIX.UTF-8") ||
   10b56:	65e5                	lui	a1,0x19
   10b58:	a3058593          	addi	a1,a1,-1488 # 18a30 <CSWTCH.18+0xa0>
   10b5c:	5f8000ef          	jal	ra,11154 <setlocale>
	setlocale(LC_CTYPE, "C.UTF-8") ||
   10b60:	ed0d                	bnez	a0,10b9a <t_setutf8+0x5a>
	setlocale(LC_CTYPE, "en_US.UTF-8") ||
   10b62:	65e5                	lui	a1,0x19
   10b64:	a4058593          	addi	a1,a1,-1472 # 18a40 <CSWTCH.18+0xb0>
   10b68:	5ec000ef          	jal	ra,11154 <setlocale>
	setlocale(LC_CTYPE, "POSIX.UTF-8") ||
   10b6c:	e51d                	bnez	a0,10b9a <t_setutf8+0x5a>
	setlocale(LC_CTYPE, "en_GB.UTF-8") ||
   10b6e:	65e5                	lui	a1,0x19
   10b70:	a5058593          	addi	a1,a1,-1456 # 18a50 <CSWTCH.18+0xc0>
   10b74:	5e0000ef          	jal	ra,11154 <setlocale>
	setlocale(LC_CTYPE, "en_US.UTF-8") ||
   10b78:	e10d                	bnez	a0,10b9a <t_setutf8+0x5a>
	setlocale(LC_CTYPE, "en.UTF-8") ||
   10b7a:	65e5                	lui	a1,0x19
   10b7c:	a6058593          	addi	a1,a1,-1440 # 18a60 <CSWTCH.18+0xd0>
   10b80:	5d4000ef          	jal	ra,11154 <setlocale>
	setlocale(LC_CTYPE, "en_GB.UTF-8") ||
   10b84:	e919                	bnez	a0,10b9a <t_setutf8+0x5a>
	setlocale(LC_CTYPE, "UTF-8") ||
   10b86:	a7040593          	addi	a1,s0,-1424 # 18a70 <CSWTCH.18+0xe0>
   10b8a:	5ca000ef          	jal	ra,11154 <setlocale>
	setlocale(LC_CTYPE, "en.UTF-8") ||
   10b8e:	e511                	bnez	a0,10b9a <t_setutf8+0x5a>
	setlocale(LC_CTYPE, "") );
   10b90:	65e5                	lui	a1,0x19
   10b92:	86858593          	addi	a1,a1,-1944 # 18868 <__clzdi2+0x262>
   10b96:	5be000ef          	jal	ra,11154 <setlocale>
	
	if (strcmp(nl_langinfo(CODESET), "UTF-8"))
   10b9a:	4539                	li	a0,14
   10b9c:	5b0000ef          	jal	ra,1114c <__nl_langinfo>
   10ba0:	a7040593          	addi	a1,s0,-1424
   10ba4:	62d020ef          	jal	ra,139d0 <strcmp>
   10ba8:	cd01                	beqz	a0,10bc0 <t_setutf8+0x80>
		return t_error("cannot set UTF-8 locale for test (codeset=%s)\n", nl_langinfo(CODESET));
   10baa:	4539                	li	a0,14
   10bac:	5a0000ef          	jal	ra,1114c <__nl_langinfo>

	return 0;
}
   10bb0:	6402                	ld	s0,0(sp)
   10bb2:	60a2                	ld	ra,8(sp)
		return t_error("cannot set UTF-8 locale for test (codeset=%s)\n", nl_langinfo(CODESET));
   10bb4:	85aa                	mv	a1,a0
   10bb6:	6565                	lui	a0,0x19
   10bb8:	a7850513          	addi	a0,a0,-1416 # 18a78 <CSWTCH.18+0xe8>
}
   10bbc:	0141                	addi	sp,sp,16
		return t_error("cannot set UTF-8 locale for test (codeset=%s)\n", nl_langinfo(CODESET));
   10bbe:	b13d                	j	107ec <t_printf>
}
   10bc0:	60a2                	ld	ra,8(sp)
   10bc2:	6402                	ld	s0,0(sp)
   10bc4:	0141                	addi	sp,sp,16
   10bc6:	8082                	ret

0000000000010bc8 <t_vmfill>:
fills the virtual memory with anonymous PROT_NONE mmaps,
returns the mappings in *p and *n in decreasing size order,
the return value is the number of mappings or -1 on failure.
*/
int t_vmfill(void **p, size_t *n, int len)
{
   10bc8:	715d                	addi	sp,sp,-80
   10bca:	fc26                	sd	s1,56(sp)
	int fd = MAP_ANONYMOUS ? -1 : open("/dev/zero", O_RDWR);
	size_t start = SIZE_MAX/2 + 1;
   10bcc:	54fd                	li	s1,-1
{
   10bce:	f84a                	sd	s2,48(sp)
   10bd0:	f44e                	sd	s3,40(sp)
   10bd2:	f052                	sd	s4,32(sp)
   10bd4:	ec56                	sd	s5,24(sp)
   10bd6:	e486                	sd	ra,72(sp)
   10bd8:	e0a2                	sd	s0,64(sp)
   10bda:	e85a                	sd	s6,16(sp)
   10bdc:	e45e                	sd	s7,8(sp)
   10bde:	e062                	sd	s8,0(sp)
   10be0:	89aa                	mv	s3,a0
   10be2:	8a2e                	mv	s4,a1
   10be4:	8ab2                	mv	s5,a2
   10be6:	4901                	li	s2,0
	size_t start = SIZE_MAX/2 + 1;
   10be8:	14fe                	slli	s1,s1,0x3f
   10bea:	00090b1b          	sext.w	s6,s2
	for (i=n=*start; i>=PAGE_SIZE; i/=2) {
   10bee:	8426                	mv	s0,s1
   10bf0:	8ba6                	mv	s7,s1
   10bf2:	4579                	li	a0,30
   10bf4:	094000ef          	jal	ra,10c88 <sysconf>
   10bf8:	04abf063          	bgeu	s7,a0,10c38 <t_vmfill+0x70>
	return n & -PAGE_SIZE;
   10bfc:	4579                	li	a0,30
   10bfe:	08a000ef          	jal	ra,10c88 <sysconf>
   10c02:	40a007b3          	neg	a5,a0
   10c06:	8c7d                	and	s0,s0,a5
	void *q;
	int i;

	for (i=0;;i++) {
		m = mmax(fd, &start);
		if (!m)
   10c08:	c03d                	beqz	s0,10c6e <t_vmfill+0xa6>
			break;
		q = mmap(0, m, PROT_NONE, MAP_PRIVATE|MAP_ANONYMOUS, fd, 0);
   10c0a:	4781                	li	a5,0
   10c0c:	577d                	li	a4,-1
   10c0e:	02200693          	li	a3,34
   10c12:	4601                	li	a2,0
   10c14:	85a2                	mv	a1,s0
   10c16:	4501                	li	a0,0
   10c18:	6df010ef          	jal	ra,12af6 <__mmap>
		if (q == MAP_FAILED)
   10c1c:	57fd                	li	a5,-1
   10c1e:	04f50763          	beq	a0,a5,10c6c <t_vmfill+0xa4>
			return -1;
		if (i < len) {
   10c22:	015b5963          	bge	s6,s5,10c34 <t_vmfill+0x6c>
			p[i] = q;
   10c26:	00391793          	slli	a5,s2,0x3
   10c2a:	00f98733          	add	a4,s3,a5
   10c2e:	e308                	sd	a0,0(a4)
			n[i] = m;
   10c30:	97d2                	add	a5,a5,s4
   10c32:	e380                	sd	s0,0(a5)
	for (i=0;;i++) {
   10c34:	0905                	addi	s2,s2,1
		m = mmax(fd, &start);
   10c36:	bf55                	j	10bea <t_vmfill+0x22>
		if ((p=mmap(0, n, PROT_NONE, MAP_PRIVATE|MAP_ANONYMOUS, fd, 0)) == MAP_FAILED) {
   10c38:	4781                	li	a5,0
   10c3a:	577d                	li	a4,-1
   10c3c:	02200693          	li	a3,34
   10c40:	4601                	li	a2,0
   10c42:	85a2                	mv	a1,s0
   10c44:	4501                	li	a0,0
   10c46:	6b1010ef          	jal	ra,12af6 <__mmap>
   10c4a:	57fd                	li	a5,-1
   10c4c:	001bdc13          	srli	s8,s7,0x1
   10c50:	00f51663          	bne	a0,a5,10c5c <t_vmfill+0x94>
			n -= i/2;
   10c54:	41840433          	sub	s0,s0,s8
	for (i=n=*start; i>=PAGE_SIZE; i/=2) {
   10c58:	8be2                	mv	s7,s8
   10c5a:	bf61                	j	10bf2 <t_vmfill+0x2a>
			munmap(p, n);
   10c5c:	85a2                	mv	a1,s0
   10c5e:	749010ef          	jal	ra,12ba6 <__munmap>
			if (n == i)
   10c62:	01741363          	bne	s0,s7,10c68 <t_vmfill+0xa0>
   10c66:	84a2                	mv	s1,s0
			n += i/2;
   10c68:	9462                	add	s0,s0,s8
   10c6a:	b7fd                	j	10c58 <t_vmfill+0x90>
			return -1;
   10c6c:	5b7d                	li	s6,-1
		}
	}
	return i;
}
   10c6e:	60a6                	ld	ra,72(sp)
   10c70:	6406                	ld	s0,64(sp)
   10c72:	74e2                	ld	s1,56(sp)
   10c74:	7942                	ld	s2,48(sp)
   10c76:	79a2                	ld	s3,40(sp)
   10c78:	7a02                	ld	s4,32(sp)
   10c7a:	6ae2                	ld	s5,24(sp)
   10c7c:	6ba2                	ld	s7,8(sp)
   10c7e:	6c02                	ld	s8,0(sp)
   10c80:	855a                	mv	a0,s6
   10c82:	6b42                	ld	s6,16(sp)
   10c84:	6161                	addi	sp,sp,80
   10c86:	8082                	ret

0000000000010c88 <sysconf>:
   10c88:	7165                	addi	sp,sp,-400
   10c8a:	e706                	sd	ra,392(sp)
   10c8c:	e322                	sd	s0,384(sp)
   10c8e:	fea6                	sd	s1,376(sp)
   10c90:	0f800793          	li	a5,248
   10c94:	00a7ec63          	bltu	a5,a0,10cac <sysconf+0x24>
   10c98:	6765                	lui	a4,0x19
   10c9a:	00151793          	slli	a5,a0,0x1
   10c9e:	af070713          	addi	a4,a4,-1296 # 18af0 <values.2211>
   10ca2:	97ba                	add	a5,a5,a4
   10ca4:	842a                	mv	s0,a0
   10ca6:	00079503          	lh	a0,0(a5)
   10caa:	e919                	bnez	a0,10cc0 <sysconf+0x38>
   10cac:	2c0000ef          	jal	ra,10f6c <__errno_location>
   10cb0:	47d9                	li	a5,22
   10cb2:	c11c                	sw	a5,0(a0)
   10cb4:	557d                	li	a0,-1
   10cb6:	60ba                	ld	ra,392(sp)
   10cb8:	641a                	ld	s0,384(sp)
   10cba:	74f6                	ld	s1,376(sp)
   10cbc:	6159                	addi	sp,sp,400
   10cbe:	8082                	ret
   10cc0:	54fd                	li	s1,-1
   10cc2:	0005071b          	sext.w	a4,a0
   10cc6:	fe9558e3          	bge	a0,s1,10cb6 <sysconf+0x2e>
   10cca:	f0000793          	li	a5,-256
   10cce:	02f75163          	bge	a4,a5,10cf0 <sysconf+0x68>
   10cd2:	154a                	slli	a0,a0,0x32
   10cd4:	858a                	mv	a1,sp
   10cd6:	9149                	srli	a0,a0,0x32
   10cd8:	525010ef          	jal	ra,129fc <getrlimit>
   10cdc:	6782                	ld	a5,0(sp)
   10cde:	557d                	li	a0,-1
   10ce0:	fc978be3          	beq	a5,s1,10cb6 <sysconf+0x2e>
   10ce4:	853e                	mv	a0,a5
   10ce6:	fc07d8e3          	bgez	a5,10cb6 <sysconf+0x2e>
   10cea:	0014d513          	srli	a0,s1,0x1
   10cee:	b7e1                	j	10cb6 <sysconf+0x2e>
   10cf0:	fff5079b          	addiw	a5,a0,-1
   10cf4:	0ff7f793          	andi	a5,a5,255
   10cf8:	4729                	li	a4,10
   10cfa:	faf76ee3          	bltu	a4,a5,10cb6 <sysconf+0x2e>
   10cfe:	6765                	lui	a4,0x19
   10d00:	078a                	slli	a5,a5,0x2
   10d02:	ac070713          	addi	a4,a4,-1344 # 18ac0 <CSWTCH.18+0x130>
   10d06:	97ba                	add	a5,a5,a4
   10d08:	439c                	lw	a5,0(a5)
   10d0a:	8782                	jr	a5
   10d0c:	00020537          	lui	a0,0x20
   10d10:	b75d                	j	10cb6 <sysconf+0x2e>
   10d12:	6521                	lui	a0,0x8
   10d14:	b74d                	j	10cb6 <sysconf+0x2e>
   10d16:	1b01b503          	ld	a0,432(gp) # 1c9b0 <__libc+0x30>
   10d1a:	bf71                	j	10cb6 <sysconf+0x2e>
   10d1c:	80000537          	lui	a0,0x80000
   10d20:	fff54513          	not	a0,a0
   10d24:	bf49                	j	10cb6 <sysconf+0x2e>
   10d26:	4785                	li	a5,1
   10d28:	07800613          	li	a2,120
   10d2c:	4581                	li	a1,0
   10d2e:	0028                	addi	a0,sp,8
   10d30:	e03e                	sd	a5,0(sp)
   10d32:	32b020ef          	jal	ra,1385c <memset>
   10d36:	07b00893          	li	a7,123
   10d3a:	4501                	li	a0,0
   10d3c:	08000593          	li	a1,128
   10d40:	860a                	mv	a2,sp
   10d42:	00000073          	ecall
   10d46:	4701                	li	a4,0
   10d48:	4501                	li	a0,0
   10d4a:	08000613          	li	a2,128
   10d4e:	1a9c                	addi	a5,sp,368
   10d50:	00e786b3          	add	a3,a5,a4
   10d54:	e906c783          	lbu	a5,-368(a3) # 7f7ffe90 <__BSS_END__+0x7f7e3470>
   10d58:	e789                	bnez	a5,10d62 <sysconf+0xda>
   10d5a:	2705                	addiw	a4,a4,1
   10d5c:	fec719e3          	bne	a4,a2,10d4e <sysconf+0xc6>
   10d60:	bf99                	j	10cb6 <sysconf+0x2e>
   10d62:	fff7859b          	addiw	a1,a5,-1
   10d66:	8fed                	and	a5,a5,a1
   10d68:	e8f68823          	sb	a5,-368(a3)
   10d6c:	2505                	addiw	a0,a0,1
   10d6e:	b7c5                	j	10d4e <sysconf+0xc6>
   10d70:	850a                	mv	a0,sp
   10d72:	2fa000ef          	jal	ra,1106c <__lsysinfo>
   10d76:	57a6                	lw	a5,104(sp)
   10d78:	e399                	bnez	a5,10d7e <sysconf+0xf6>
   10d7a:	4785                	li	a5,1
   10d7c:	d4be                	sw	a5,104(sp)
   10d7e:	05500793          	li	a5,85
   10d82:	02f41063          	bne	s0,a5,10da2 <sysconf+0x11a>
   10d86:	7782                	ld	a5,32(sp)
   10d88:	06816503          	lwu	a0,104(sp)
   10d8c:	02f50533          	mul	a0,a0,a5
   10d90:	1b01b783          	ld	a5,432(gp) # 1c9b0 <__libc+0x30>
   10d94:	02f55533          	divu	a0,a0,a5
   10d98:	f0055fe3          	bgez	a0,10cb6 <sysconf+0x2e>
   10d9c:	557d                	li	a0,-1
   10d9e:	8105                	srli	a0,a0,0x1
   10da0:	bf19                	j	10cb6 <sysconf+0x2e>
   10da2:	7522                	ld	a0,40(sp)
   10da4:	77e2                	ld	a5,56(sp)
   10da6:	97aa                	add	a5,a5,a0
   10da8:	b7c5                	j	10d88 <sysconf+0x100>
   10daa:	4501                	li	a0,0
   10dac:	b729                	j	10cb6 <sysconf+0x2e>
   10dae:	00031537          	lui	a0,0x31
   10db2:	06950513          	addi	a0,a0,105 # 31069 <__BSS_END__+0x14649>
   10db6:	b701                	j	10cb6 <sysconf+0x2e>

0000000000010db8 <_init>:
   10db8:	8082                	ret

0000000000010dba <__init_ssp>:
   10dba:	8082                	ret

0000000000010dbc <__init_libc>:
   10dbc:	7109                	addi	sp,sp,-384
   10dbe:	f2ca                	sd	s2,352(sp)
   10dc0:	03010913          	addi	s2,sp,48
   10dc4:	faa2                	sd	s0,368(sp)
   10dc6:	f6a6                	sd	s1,360(sp)
   10dc8:	842e                	mv	s0,a1
   10dca:	84aa                	mv	s1,a0
   10dcc:	13000613          	li	a2,304
   10dd0:	4581                	li	a1,0
   10dd2:	854a                	mv	a0,s2
   10dd4:	fe86                	sd	ra,376(sp)
   10dd6:	287020ef          	jal	ra,1385c <memset>
   10dda:	9c91bc23          	sd	s1,-1576(gp) # 1c1d8 <__environ>
   10dde:	4501                	li	a0,0
   10de0:	00351793          	slli	a5,a0,0x3
   10de4:	97a6                	add	a5,a5,s1
   10de6:	639c                	ld	a5,0(a5)
   10de8:	0505                	addi	a0,a0,1
   10dea:	fbfd                	bnez	a5,10de0 <__init_libc+0x24>
   10dec:	050e                	slli	a0,a0,0x3
   10dee:	9526                	add	a0,a0,s1
   10df0:	18018793          	addi	a5,gp,384 # 1c980 <__libc>
   10df4:	e788                	sd	a0,8(a5)
   10df6:	18018493          	addi	s1,gp,384 # 1c980 <__libc>
   10dfa:	02500713          	li	a4,37
   10dfe:	611c                	ld	a5,0(a0)
   10e00:	e7d5                	bnez	a5,10eac <__init_libc+0xf0>
   10e02:	774a                	ld	a4,176(sp)
   10e04:	16e1bc23          	sd	a4,376(gp) # 1c978 <__hwcap>
   10e08:	77d2                	ld	a5,304(sp)
   10e0a:	c399                	beqz	a5,10e10 <__init_libc+0x54>
   10e0c:	16f1b823          	sd	a5,368(gp) # 1c970 <__sysinfo>
   10e10:	7786                	ld	a5,96(sp)
   10e12:	f89c                	sd	a5,48(s1)
   10e14:	e411                	bnez	s0,10e20 <__init_libc+0x64>
   10e16:	7432                	ld	s0,296(sp)
   10e18:	e401                	bnez	s0,10e20 <__init_libc+0x64>
   10e1a:	6465                	lui	s0,0x19
   10e1c:	86840413          	addi	s0,s0,-1944 # 18868 <__clzdi2+0x262>
   10e20:	9881b423          	sd	s0,-1656(gp) # 1c188 <__progname_full>
   10e24:	9881b023          	sd	s0,-1664(gp) # 1c180 <__progname>
   10e28:	02f00693          	li	a3,47
   10e2c:	0405                	addi	s0,s0,1
   10e2e:	fff44703          	lbu	a4,-1(s0)
   10e32:	e759                	bnez	a4,10ec0 <__init_libc+0x104>
   10e34:	854a                	mv	a0,s2
   10e36:	2b0030ef          	jal	ra,140e6 <__init_tls>
   10e3a:	756e                	ld	a0,248(sp)
   10e3c:	f7fff0ef          	jal	ra,10dba <__init_ssp>
   10e40:	672a                	ld	a4,136(sp)
   10e42:	67ca                	ld	a5,144(sp)
   10e44:	00f71863          	bne	a4,a5,10e54 <__init_libc+0x98>
   10e48:	676a                	ld	a4,152(sp)
   10e4a:	778a                	ld	a5,160(sp)
   10e4c:	00f71463          	bne	a4,a5,10e54 <__init_libc+0x98>
   10e50:	77ae                	ld	a5,232(sp)
   10e52:	c3d9                	beqz	a5,10ed8 <__init_libc+0x11c>
   10e54:	f002                	sd	zero,32(sp)
   10e56:	4785                	li	a5,1
   10e58:	f402                	sd	zero,40(sp)
   10e5a:	d03e                	sw	a5,32(sp)
   10e5c:	4789                	li	a5,2
   10e5e:	ec02                	sd	zero,24(sp)
   10e60:	d43e                	sw	a5,40(sp)
   10e62:	e402                	sd	zero,8(sp)
   10e64:	e802                	sd	zero,16(sp)
   10e66:	04900893          	li	a7,73
   10e6a:	0828                	addi	a0,sp,24
   10e6c:	458d                	li	a1,3
   10e6e:	0030                	addi	a2,sp,8
   10e70:	4681                	li	a3,0
   10e72:	4721                	li	a4,8
   10e74:	00000073          	ecall
   10e78:	02051713          	slli	a4,a0,0x20
   10e7c:	083c                	addi	a5,sp,24
   10e7e:	02074463          	bltz	a4,10ea6 <__init_libc+0xea>
   10e82:	6621                	lui	a2,0x8
   10e84:	66e5                	lui	a3,0x19
   10e86:	0609                	addi	a2,a2,2
   10e88:	0067d703          	lhu	a4,6(a5)
   10e8c:	02077713          	andi	a4,a4,32
   10e90:	cf15                	beqz	a4,10ecc <__init_libc+0x110>
   10e92:	03800893          	li	a7,56
   10e96:	f9c00513          	li	a0,-100
   10e9a:	87068593          	addi	a1,a3,-1936 # 18870 <__clzdi2+0x26a>
   10e9e:	00000073          	ecall
   10ea2:	02055563          	bgez	a0,10ecc <__init_libc+0x110>
   10ea6:	00000023          	sb	zero,0(zero) # 0 <exit-0x10120>
   10eaa:	9002                	ebreak
   10eac:	00f76863          	bltu	a4,a5,10ebc <__init_libc+0x100>
   10eb0:	1294                	addi	a3,sp,352
   10eb2:	078e                	slli	a5,a5,0x3
   10eb4:	97b6                	add	a5,a5,a3
   10eb6:	6514                	ld	a3,8(a0)
   10eb8:	ecd7b823          	sd	a3,-304(a5)
   10ebc:	0541                	addi	a0,a0,16
   10ebe:	b781                	j	10dfe <__init_libc+0x42>
   10ec0:	00d71463          	bne	a4,a3,10ec8 <__init_libc+0x10c>
   10ec4:	9881b023          	sd	s0,-1664(gp) # 1c180 <__progname>
   10ec8:	0405                	addi	s0,s0,1
   10eca:	b795                	j	10e2e <__init_libc+0x72>
   10ecc:	07a1                	addi	a5,a5,8
   10ece:	faf91de3          	bne	s2,a5,10e88 <__init_libc+0xcc>
   10ed2:	4785                	li	a5,1
   10ed4:	00f48123          	sb	a5,2(s1)
   10ed8:	70f6                	ld	ra,376(sp)
   10eda:	7456                	ld	s0,368(sp)
   10edc:	74b6                	ld	s1,360(sp)
   10ede:	7916                	ld	s2,352(sp)
   10ee0:	6119                	addi	sp,sp,384
   10ee2:	8082                	ret

0000000000010ee4 <__libc_start_init>:
   10ee4:	1101                	addi	sp,sp,-32
   10ee6:	e822                	sd	s0,16(sp)
   10ee8:	e426                	sd	s1,8(sp)
   10eea:	6471                	lui	s0,0x1c
   10eec:	64f1                	lui	s1,0x1c
   10eee:	ec06                	sd	ra,24(sp)
   10ef0:	ff040413          	addi	s0,s0,-16 # 1bff0 <__frame_dummy_init_array_entry>
   10ef4:	ec5ff0ef          	jal	ra,10db8 <_init>
   10ef8:	ff848493          	addi	s1,s1,-8 # 1bff8 <__init_array_end>
   10efc:	00946763          	bltu	s0,s1,10f0a <__libc_start_init+0x26>
   10f00:	60e2                	ld	ra,24(sp)
   10f02:	6442                	ld	s0,16(sp)
   10f04:	64a2                	ld	s1,8(sp)
   10f06:	6105                	addi	sp,sp,32
   10f08:	8082                	ret
   10f0a:	601c                	ld	a5,0(s0)
   10f0c:	0421                	addi	s0,s0,8
   10f0e:	9782                	jalr	a5
   10f10:	b7f5                	j	10efc <__libc_start_init+0x18>

0000000000010f12 <libc_start_main_stage2>:
   10f12:	7179                	addi	sp,sp,-48
   10f14:	f022                	sd	s0,32(sp)
   10f16:	00158413          	addi	s0,a1,1
   10f1a:	040e                	slli	s0,s0,0x3
   10f1c:	f406                	sd	ra,40(sp)
   10f1e:	ec26                	sd	s1,24(sp)
   10f20:	e84a                	sd	s2,16(sp)
   10f22:	84ae                	mv	s1,a1
   10f24:	892a                	mv	s2,a0
   10f26:	9432                	add	s0,s0,a2
   10f28:	e432                	sd	a2,8(sp)
   10f2a:	fbbff0ef          	jal	ra,10ee4 <__libc_start_init>
   10f2e:	65a2                	ld	a1,8(sp)
   10f30:	8622                	mv	a2,s0
   10f32:	8526                	mv	a0,s1
   10f34:	9902                	jalr	s2
   10f36:	9eaff0ef          	jal	ra,10120 <exit>

0000000000010f3a <__libc_start_main>:
   10f3a:	7179                	addi	sp,sp,-48
   10f3c:	f022                	sd	s0,32(sp)
   10f3e:	ec26                	sd	s1,24(sp)
   10f40:	842e                	mv	s0,a1
   10f42:	84aa                	mv	s1,a0
   10f44:	00158513          	addi	a0,a1,1
   10f48:	620c                	ld	a1,0(a2)
   10f4a:	050e                	slli	a0,a0,0x3
   10f4c:	9532                	add	a0,a0,a2
   10f4e:	f406                	sd	ra,40(sp)
   10f50:	e432                	sd	a2,8(sp)
   10f52:	e6bff0ef          	jal	ra,10dbc <__init_libc>
   10f56:	6345                	lui	t1,0x11
   10f58:	f1230313          	addi	t1,t1,-238 # 10f12 <libc_start_main_stage2>
   10f5c:	85a2                	mv	a1,s0
   10f5e:	7402                	ld	s0,32(sp)
   10f60:	6622                	ld	a2,8(sp)
   10f62:	70a2                	ld	ra,40(sp)
   10f64:	8526                	mv	a0,s1
   10f66:	64e2                	ld	s1,24(sp)
   10f68:	6145                	addi	sp,sp,48
   10f6a:	8302                	jr	t1

0000000000010f6c <__errno_location>:
   10f6c:	8512                	mv	a0,tp
   10f6e:	f5c50513          	addi	a0,a0,-164
   10f72:	8082                	ret

0000000000010f74 <__strerror_l>:
   10f74:	08300793          	li	a5,131
   10f78:	00a7f363          	bgeu	a5,a0,10f7e <__strerror_l+0xa>
   10f7c:	4501                	li	a0,0
   10f7e:	67e5                	lui	a5,0x19
   10f80:	ce878793          	addi	a5,a5,-792 # 18ce8 <errmsgidx>
   10f84:	0506                	slli	a0,a0,0x1
   10f86:	953e                	add	a0,a0,a5
   10f88:	00055503          	lhu	a0,0(a0)
   10f8c:	67e5                	lui	a5,0x19
   10f8e:	758c                	ld	a1,40(a1)
   10f90:	df078793          	addi	a5,a5,-528 # 18df0 <errmsgstr>
   10f94:	953e                	add	a0,a0,a5
   10f96:	a8c5                	j	11086 <__lctrans>

0000000000010f98 <strerror>:
   10f98:	8792                	mv	a5,tp
   10f9a:	fd07b583          	ld	a1,-48(a5)
   10f9e:	bfd9                	j	10f74 <__strerror_l>

0000000000010fa0 <__funcs_on_exit>:
   10fa0:	8082                	ret

0000000000010fa2 <__libc_exit_fini>:
   10fa2:	1101                	addi	sp,sp,-32
   10fa4:	e822                	sd	s0,16(sp)
   10fa6:	e426                	sd	s1,8(sp)
   10fa8:	6471                	lui	s0,0x1c
   10faa:	64f1                	lui	s1,0x1c
   10fac:	ec06                	sd	ra,24(sp)
   10fae:	00040413          	mv	s0,s0
   10fb2:	ff848493          	addi	s1,s1,-8 # 1bff8 <__init_array_end>
   10fb6:	0084e763          	bltu	s1,s0,10fc4 <__libc_exit_fini+0x22>
   10fba:	6442                	ld	s0,16(sp)
   10fbc:	60e2                	ld	ra,24(sp)
   10fbe:	64a2                	ld	s1,8(sp)
   10fc0:	6105                	addi	sp,sp,32
   10fc2:	bff9                	j	10fa0 <__funcs_on_exit>
   10fc4:	ff843783          	ld	a5,-8(s0) # 1bff8 <__init_array_end>
   10fc8:	1461                	addi	s0,s0,-8
   10fca:	9782                	jalr	a5
   10fcc:	b7ed                	j	10fb6 <__libc_exit_fini+0x14>

0000000000010fce <open>:
   10fce:	715d                	addi	sp,sp,-80
   10fd0:	e822                	sd	s0,16(sp)
   10fd2:	fc3e                	sd	a5,56(sp)
   10fd4:	ec06                	sd	ra,24(sp)
   10fd6:	f032                	sd	a2,32(sp)
   10fd8:	f436                	sd	a3,40(sp)
   10fda:	f83a                	sd	a4,48(sp)
   10fdc:	e0c2                	sd	a6,64(sp)
   10fde:	e4c6                	sd	a7,72(sp)
   10fe0:	0405f793          	andi	a5,a1,64
   10fe4:	842e                	mv	s0,a1
   10fe6:	eb89                	bnez	a5,10ff8 <open+0x2a>
   10fe8:	004107b7          	lui	a5,0x410
   10fec:	8fed                	and	a5,a5,a1
   10fee:	004106b7          	lui	a3,0x410
   10ff2:	4701                	li	a4,0
   10ff4:	00d79563          	bne	a5,a3,10ffe <open+0x30>
   10ff8:	5702                	lw	a4,32(sp)
   10ffa:	101c                	addi	a5,sp,32
   10ffc:	e43e                	sd	a5,8(sp)
   10ffe:	1702                	slli	a4,a4,0x20
   11000:	66a1                	lui	a3,0x8
   11002:	4781                	li	a5,0
   11004:	9301                	srli	a4,a4,0x20
   11006:	862a                	mv	a2,a0
   11008:	4801                	li	a6,0
   1100a:	8ec1                	or	a3,a3,s0
   1100c:	f9c00593          	li	a1,-100
   11010:	03800513          	li	a0,56
   11014:	3dd020ef          	jal	ra,13bf0 <__syscall_cp>
   11018:	02051713          	slli	a4,a0,0x20
   1101c:	0005079b          	sext.w	a5,a0
   11020:	00074c63          	bltz	a4,11038 <open+0x6a>
   11024:	02c41713          	slli	a4,s0,0x2c
   11028:	00075863          	bgez	a4,11038 <open+0x6a>
   1102c:	48e5                	li	a7,25
   1102e:	853e                	mv	a0,a5
   11030:	4589                	li	a1,2
   11032:	4605                	li	a2,1
   11034:	00000073          	ecall
   11038:	853e                	mv	a0,a5
   1103a:	00e000ef          	jal	ra,11048 <__syscall_ret>
   1103e:	60e2                	ld	ra,24(sp)
   11040:	6442                	ld	s0,16(sp)
   11042:	2501                	sext.w	a0,a0
   11044:	6161                	addi	sp,sp,80
   11046:	8082                	ret

0000000000011048 <__syscall_ret>:
   11048:	1141                	addi	sp,sp,-16
   1104a:	e022                	sd	s0,0(sp)
   1104c:	e406                	sd	ra,8(sp)
   1104e:	77fd                	lui	a5,0xfffff
   11050:	842a                	mv	s0,a0
   11052:	00a7e663          	bltu	a5,a0,1105e <__syscall_ret+0x16>
   11056:	60a2                	ld	ra,8(sp)
   11058:	6402                	ld	s0,0(sp)
   1105a:	0141                	addi	sp,sp,16
   1105c:	8082                	ret
   1105e:	f0fff0ef          	jal	ra,10f6c <__errno_location>
   11062:	4080043b          	negw	s0,s0
   11066:	c100                	sw	s0,0(a0)
   11068:	557d                	li	a0,-1
   1106a:	b7f5                	j	11056 <__syscall_ret+0xe>

000000000001106c <__lsysinfo>:
   1106c:	1141                	addi	sp,sp,-16
   1106e:	e406                	sd	ra,8(sp)
   11070:	0b300893          	li	a7,179
   11074:	00000073          	ecall
   11078:	fd1ff0ef          	jal	ra,11048 <__syscall_ret>
   1107c:	60a2                	ld	ra,8(sp)
   1107e:	2501                	sext.w	a0,a0
   11080:	0141                	addi	sp,sp,16
   11082:	8082                	ret

0000000000011084 <dummy>:
   11084:	8082                	ret

0000000000011086 <__lctrans>:
   11086:	1980306f          	j	1421e <__lctrans_impl>

000000000001108a <__lctrans_cur>:
   1108a:	8792                	mv	a5,tp
   1108c:	fd07b783          	ld	a5,-48(a5) # ffffffffffffefd0 <__BSS_END__+0xfffffffffffe25b0>
   11090:	778c                	ld	a1,40(a5)
   11092:	18c0306f          	j	1421e <__lctrans_impl>

0000000000011096 <__nl_langinfo_l>:
   11096:	6741                	lui	a4,0x10
   11098:	fff70613          	addi	a2,a4,-1 # ffff <exit-0x121>
   1109c:	4839                	li	a6,14
   1109e:	41055793          	srai	a5,a0,0x10
   110a2:	00c576b3          	and	a3,a0,a2
   110a6:	01051863          	bne	a0,a6,110b6 <__nl_langinfo_l+0x20>
   110aa:	619c                	ld	a5,0(a1)
   110ac:	ebc1                	bnez	a5,1113c <__nl_langinfo_l+0xa6>
   110ae:	6565                	lui	a0,0x19
   110b0:	57850513          	addi	a0,a0,1400 # 19578 <errmsgstr+0x788>
   110b4:	8082                	ret
   110b6:	00c69b63          	bne	a3,a2,110cc <__nl_langinfo_l+0x36>
   110ba:	4715                	li	a4,5
   110bc:	02f74063          	blt	a4,a5,110dc <__nl_langinfo_l+0x46>
   110c0:	078e                	slli	a5,a5,0x3
   110c2:	97ae                	add	a5,a5,a1
   110c4:	6388                	ld	a0,0(a5)
   110c6:	cd3d                	beqz	a0,11144 <__nl_langinfo_l+0xae>
   110c8:	0541                	addi	a0,a0,16
   110ca:	8082                	ret
   110cc:	4609                	li	a2,2
   110ce:	04c78963          	beq	a5,a2,11120 <__nl_langinfo_l+0x8a>
   110d2:	00f64963          	blt	a2,a5,110e4 <__nl_langinfo_l+0x4e>
   110d6:	4605                	li	a2,1
   110d8:	02c78363          	beq	a5,a2,110fe <__nl_langinfo_l+0x68>
   110dc:	6565                	lui	a0,0x19
   110de:	86850513          	addi	a0,a0,-1944 # 18868 <__clzdi2+0x262>
   110e2:	8082                	ret
   110e4:	4611                	li	a2,4
   110e6:	fec78be3          	beq	a5,a2,110dc <__nl_langinfo_l+0x46>
   110ea:	4615                	li	a2,5
   110ec:	fec798e3          	bne	a5,a2,110dc <__nl_langinfo_l+0x46>
   110f0:	1771                	addi	a4,a4,-4
   110f2:	8d79                	and	a0,a0,a4
   110f4:	f565                	bnez	a0,110dc <__nl_langinfo_l+0x46>
   110f6:	6565                	lui	a0,0x19
   110f8:	58050513          	addi	a0,a0,1408 # 19580 <c_messages>
   110fc:	a039                	j	1110a <__nl_langinfo_l+0x74>
   110fe:	1779                	addi	a4,a4,-2
   11100:	8d79                	and	a0,a0,a4
   11102:	fd69                	bnez	a0,110dc <__nl_langinfo_l+0x46>
   11104:	6569                	lui	a0,0x1a
   11106:	20050513          	addi	a0,a0,512 # 1a200 <c_numeric>
   1110a:	e29d                	bnez	a3,11130 <__nl_langinfo_l+0x9a>
   1110c:	4705                	li	a4,1
   1110e:	fce78ae3          	beq	a5,a4,110e2 <__nl_langinfo_l+0x4c>
   11112:	00054703          	lbu	a4,0(a0)
   11116:	d771                	beqz	a4,110e2 <__nl_langinfo_l+0x4c>
   11118:	078e                	slli	a5,a5,0x3
   1111a:	97ae                	add	a5,a5,a1
   1111c:	638c                	ld	a1,0(a5)
   1111e:	b7a5                	j	11086 <__lctrans>
   11120:	03100713          	li	a4,49
   11124:	fad74ce3          	blt	a4,a3,110dc <__nl_langinfo_l+0x46>
   11128:	6565                	lui	a0,0x19
   1112a:	59850513          	addi	a0,a0,1432 # 19598 <c_time>
   1112e:	bff1                	j	1110a <__nl_langinfo_l+0x74>
   11130:	00054703          	lbu	a4,0(a0)
   11134:	0505                	addi	a0,a0,1
   11136:	ff6d                	bnez	a4,11130 <__nl_langinfo_l+0x9a>
   11138:	36fd                	addiw	a3,a3,-1
   1113a:	bfc1                	j	1110a <__nl_langinfo_l+0x74>
   1113c:	6565                	lui	a0,0x19
   1113e:	a7050513          	addi	a0,a0,-1424 # 18a70 <CSWTCH.18+0xe0>
   11142:	8082                	ret
   11144:	6565                	lui	a0,0x19
   11146:	57050513          	addi	a0,a0,1392 # 19570 <errmsgstr+0x780>
   1114a:	8082                	ret

000000000001114c <__nl_langinfo>:
   1114c:	8792                	mv	a5,tp
   1114e:	fd07b583          	ld	a1,-48(a5)
   11152:	b791                	j	11096 <__nl_langinfo_l>

0000000000011154 <setlocale>:
   11154:	7171                	addi	sp,sp,-176
   11156:	e152                	sd	s4,128(sp)
   11158:	f506                	sd	ra,168(sp)
   1115a:	f122                	sd	s0,160(sp)
   1115c:	ed26                	sd	s1,152(sp)
   1115e:	e94a                	sd	s2,144(sp)
   11160:	e54e                	sd	s3,136(sp)
   11162:	fcd6                	sd	s5,120(sp)
   11164:	f8da                	sd	s6,112(sp)
   11166:	f4de                	sd	s7,104(sp)
   11168:	f0e2                	sd	s8,96(sp)
   1116a:	ece6                	sd	s9,88(sp)
   1116c:	e8ea                	sd	s10,80(sp)
   1116e:	4a19                	li	s4,6
   11170:	06aa6b63          	bltu	s4,a0,111e6 <setlocale+0x92>
   11174:	842a                	mv	s0,a0
   11176:	21018513          	addi	a0,gp,528 # 1ca10 <__locale_lock>
   1117a:	84ae                	mv	s1,a1
   1117c:	894e                	mv	s2,s3
   1117e:	129020ef          	jal	ra,13aa6 <__lock>
   11182:	11441763          	bne	s0,s4,11290 <setlocale+0x13c>
   11186:	ccbd                	beqz	s1,11204 <setlocale+0xb0>
   11188:	67e5                	lui	a5,0x19
   1118a:	6d87b783          	ld	a5,1752(a5) # 196d8 <c_time+0x140>
   1118e:	02010a93          	addi	s5,sp,32
   11192:	e802                	sd	zero,16(sp)
   11194:	e43e                	sd	a5,8(sp)
   11196:	ec02                	sd	zero,24(sp)
   11198:	4a01                	li	s4,0
   1119a:	8b56                	mv	s6,s5
   1119c:	4c5d                	li	s8,23
   1119e:	5cfd                	li	s9,-1
   111a0:	4b99                	li	s7,6
   111a2:	03b00593          	li	a1,59
   111a6:	8526                	mv	a0,s1
   111a8:	784020ef          	jal	ra,1392c <__strchrnul>
   111ac:	409509b3          	sub	s3,a0,s1
   111b0:	842a                	mv	s0,a0
   111b2:	033c4063          	blt	s8,s3,111d2 <setlocale+0x7e>
   111b6:	864e                	mv	a2,s3
   111b8:	85a6                	mv	a1,s1
   111ba:	0028                	addi	a0,sp,8
   111bc:	258020ef          	jal	ra,13414 <memcpy>
   111c0:	089c                	addi	a5,sp,80
   111c2:	99be                	add	s3,s3,a5
   111c4:	fa098c23          	sb	zero,-72(s3)
   111c8:	00044783          	lbu	a5,0(s0)
   111cc:	c399                	beqz	a5,111d2 <setlocale+0x7e>
   111ce:	00140493          	addi	s1,s0,1
   111d2:	002c                	addi	a1,sp,8
   111d4:	8552                	mv	a0,s4
   111d6:	06c030ef          	jal	ra,14242 <__get_locale>
   111da:	01951863          	bne	a0,s9,111ea <setlocale+0x96>
   111de:	21018513          	addi	a0,gp,528 # 1ca10 <__locale_lock>
   111e2:	19d020ef          	jal	ra,13b7e <__unlock>
   111e6:	4401                	li	s0,0
   111e8:	a069                	j	11272 <setlocale+0x11e>
   111ea:	00aab023          	sd	a0,0(s5)
   111ee:	2a05                	addiw	s4,s4,1
   111f0:	0aa1                	addi	s5,s5,8
   111f2:	fb7a18e3          	bne	s4,s7,111a2 <setlocale+0x4e>
   111f6:	03000613          	li	a2,48
   111fa:	85da                	mv	a1,s6
   111fc:	1b818513          	addi	a0,gp,440 # 1c9b8 <__libc+0x38>
   11200:	214020ef          	jal	ra,13414 <memcpy>
   11204:	18018a13          	addi	s4,gp,384 # 1c980 <__libc>
   11208:	6c65                	lui	s8,0x19
   1120a:	b4818993          	addi	s3,gp,-1208 # 1c348 <buf>
   1120e:	030a0c93          	addi	s9,s4,48
   11212:	4b81                	li	s7,0
   11214:	18018b13          	addi	s6,gp,384 # 1c980 <__libc>
   11218:	b4818a93          	addi	s5,gp,-1208 # 1c348 <buf>
   1121c:	570c0c13          	addi	s8,s8,1392 # 19570 <errmsgstr+0x780>
   11220:	03b00d13          	li	s10,59
   11224:	038a3783          	ld	a5,56(s4)
   11228:	038b3703          	ld	a4,56(s6)
   1122c:	00f71363          	bne	a4,a5,11232 <setlocale+0xde>
   11230:	2b85                	addiw	s7,s7,1
   11232:	8462                	mv	s0,s8
   11234:	c399                	beqz	a5,1123a <setlocale+0xe6>
   11236:	01078413          	addi	s0,a5,16
   1123a:	8522                	mv	a0,s0
   1123c:	7b2020ef          	jal	ra,139ee <strlen>
   11240:	84aa                	mv	s1,a0
   11242:	862a                	mv	a2,a0
   11244:	85a2                	mv	a1,s0
   11246:	854e                	mv	a0,s3
   11248:	1cc020ef          	jal	ra,13414 <memcpy>
   1124c:	009987b3          	add	a5,s3,s1
   11250:	01a78023          	sb	s10,0(a5)
   11254:	0485                	addi	s1,s1,1
   11256:	0a21                	addi	s4,s4,8
   11258:	99a6                	add	s3,s3,s1
   1125a:	fd4c95e3          	bne	s9,s4,11224 <setlocale+0xd0>
   1125e:	fe098fa3          	sb	zero,-1(s3)
   11262:	21018513          	addi	a0,gp,528 # 1ca10 <__locale_lock>
   11266:	119020ef          	jal	ra,13b7e <__unlock>
   1126a:	4799                	li	a5,6
   1126c:	00fb8363          	beq	s7,a5,11272 <setlocale+0x11e>
   11270:	8456                	mv	s0,s5
   11272:	70aa                	ld	ra,168(sp)
   11274:	8522                	mv	a0,s0
   11276:	740a                	ld	s0,160(sp)
   11278:	64ea                	ld	s1,152(sp)
   1127a:	694a                	ld	s2,144(sp)
   1127c:	69aa                	ld	s3,136(sp)
   1127e:	6a0a                	ld	s4,128(sp)
   11280:	7ae6                	ld	s5,120(sp)
   11282:	7b46                	ld	s6,112(sp)
   11284:	7ba6                	ld	s7,104(sp)
   11286:	7c06                	ld	s8,96(sp)
   11288:	6ce6                	ld	s9,88(sp)
   1128a:	6d46                	ld	s10,80(sp)
   1128c:	614d                	addi	sp,sp,176
   1128e:	8082                	ret
   11290:	cc85                	beqz	s1,112c8 <setlocale+0x174>
   11292:	85a6                	mv	a1,s1
   11294:	8522                	mv	a0,s0
   11296:	7ad020ef          	jal	ra,14242 <__get_locale>
   1129a:	57fd                	li	a5,-1
   1129c:	00f51563          	bne	a0,a5,112a6 <setlocale+0x152>
   112a0:	21018513          	addi	a0,gp,528 # 1ca10 <__locale_lock>
   112a4:	bf3d                	j	111e2 <setlocale+0x8e>
   112a6:	0419                	addi	s0,s0,6
   112a8:	040e                	slli	s0,s0,0x3
   112aa:	18018793          	addi	a5,gp,384 # 1c980 <__libc>
   112ae:	943e                	add	s0,s0,a5
   112b0:	e408                	sd	a0,8(s0)
   112b2:	01050413          	addi	s0,a0,16
   112b6:	e501                	bnez	a0,112be <setlocale+0x16a>
   112b8:	6465                	lui	s0,0x19
   112ba:	57040413          	addi	s0,s0,1392 # 19570 <errmsgstr+0x780>
   112be:	21018513          	addi	a0,gp,528 # 1ca10 <__locale_lock>
   112c2:	0bd020ef          	jal	ra,13b7e <__unlock>
   112c6:	b775                	j	11272 <setlocale+0x11e>
   112c8:	0419                	addi	s0,s0,6
   112ca:	040e                	slli	s0,s0,0x3
   112cc:	18018793          	addi	a5,gp,384 # 1c980 <__libc>
   112d0:	943e                	add	s0,s0,a5
   112d2:	6408                	ld	a0,8(s0)
   112d4:	bff9                	j	112b2 <setlocale+0x15e>

00000000000112d6 <allzerop>:
   112d6:	4501                	li	a0,0
   112d8:	8082                	ret

00000000000112da <calloc>:
   112da:	1101                	addi	sp,sp,-32
   112dc:	ec06                	sd	ra,24(sp)
   112de:	e822                	sd	s0,16(sp)
   112e0:	e426                	sd	s1,8(sp)
   112e2:	e04a                	sd	s2,0(sp)
   112e4:	c581                	beqz	a1,112ec <calloc+0x12>
   112e6:	02b537b3          	mulhu	a5,a0,a1
   112ea:	e3d1                	bnez	a5,1136e <calloc+0x94>
   112ec:	02a58433          	mul	s0,a1,a0
   112f0:	8522                	mv	a0,s0
   112f2:	2c8000ef          	jal	ra,115ba <malloc>
   112f6:	84aa                	mv	s1,a0
   112f8:	c141                	beqz	a0,11378 <calloc+0x9e>
   112fa:	1ec1a783          	lw	a5,492(gp) # 1c9ec <__malloc_replaced>
   112fe:	e781                	bnez	a5,11306 <calloc+0x2c>
   11300:	2f2010ef          	jal	ra,125f2 <__malloc_allzerop>
   11304:	e935                	bnez	a0,11378 <calloc+0x9e>
   11306:	6605                	lui	a2,0x1
   11308:	04c46963          	bltu	s0,a2,1135a <calloc+0x80>
   1130c:	9426                	add	s0,s0,s1
   1130e:	167d                	addi	a2,a2,-1
   11310:	8e61                	and	a2,a2,s0
   11312:	6905                	lui	s2,0x1
   11314:	40c40533          	sub	a0,s0,a2
   11318:	4581                	li	a1,0
   1131a:	542020ef          	jal	ra,1385c <memset>
   1131e:	40950433          	sub	s0,a0,s1
   11322:	03246c63          	bltu	s0,s2,1135a <calloc+0x80>
   11326:	842a                	mv	s0,a0
   11328:	408906b3          	sub	a3,s2,s0
   1132c:	41250533          	sub	a0,a0,s2
   11330:	ff843703          	ld	a4,-8(s0)
   11334:	ff043583          	ld	a1,-16(s0)
   11338:	00d40633          	add	a2,s0,a3
   1133c:	8f4d                	or	a4,a4,a1
   1133e:	fb79                	bnez	a4,11314 <calloc+0x3a>
   11340:	1441                	addi	s0,s0,-16
   11342:	fe8517e3          	bne	a0,s0,11330 <calloc+0x56>
   11346:	4601                	li	a2,0
   11348:	40c40533          	sub	a0,s0,a2
   1134c:	4581                	li	a1,0
   1134e:	50e020ef          	jal	ra,1385c <memset>
   11352:	40950433          	sub	s0,a0,s1
   11356:	fd2478e3          	bgeu	s0,s2,11326 <calloc+0x4c>
   1135a:	8622                	mv	a2,s0
   1135c:	6442                	ld	s0,16(sp)
   1135e:	60e2                	ld	ra,24(sp)
   11360:	6902                	ld	s2,0(sp)
   11362:	8526                	mv	a0,s1
   11364:	64a2                	ld	s1,8(sp)
   11366:	4581                	li	a1,0
   11368:	6105                	addi	sp,sp,32
   1136a:	4f20206f          	j	1385c <memset>
   1136e:	bffff0ef          	jal	ra,10f6c <__errno_location>
   11372:	47b1                	li	a5,12
   11374:	c11c                	sw	a5,0(a0)
   11376:	4481                	li	s1,0
   11378:	60e2                	ld	ra,24(sp)
   1137a:	6442                	ld	s0,16(sp)
   1137c:	6902                	ld	s2,0(sp)
   1137e:	8526                	mv	a0,s1
   11380:	64a2                	ld	s1,8(sp)
   11382:	6105                	addi	sp,sp,32
   11384:	8082                	ret

0000000000011386 <free>:
   11386:	abe1                	j	1195e <__libc_free>

0000000000011388 <__simple_malloc>:
   11388:	715d                	addi	sp,sp,-80
   1138a:	e486                	sd	ra,72(sp)
   1138c:	e0a2                	sd	s0,64(sp)
   1138e:	fc26                	sd	s1,56(sp)
   11390:	f84a                	sd	s2,48(sp)
   11392:	f44e                	sd	s3,40(sp)
   11394:	f052                	sd	s4,32(sp)
   11396:	1c054f63          	bltz	a0,11574 <__simple_malloc+0x1ec>
   1139a:	8a2a                	mv	s4,a0
   1139c:	c971                	beqz	a0,11470 <__simple_malloc+0xe8>
   1139e:	4785                	li	a5,1
   113a0:	1ea7ff63          	bgeu	a5,a0,1159e <__simple_malloc+0x216>
   113a4:	4789                	li	a5,2
   113a6:	1ca7f363          	bgeu	a5,a0,1156c <__simple_malloc+0x1e4>
   113aa:	4791                	li	a5,4
   113ac:	1ea7fb63          	bgeu	a5,a0,115a2 <__simple_malloc+0x21a>
   113b0:	47a1                	li	a5,8
   113b2:	1ea7fc63          	bgeu	a5,a0,115aa <__simple_malloc+0x222>
   113b6:	47c1                	li	a5,16
   113b8:	443d                	li	s0,15
   113ba:	1aa7fa63          	bgeu	a5,a0,1156e <__simple_malloc+0x1e6>
   113be:	9a818513          	addi	a0,gp,-1624 # 1c1a8 <lock>
   113c2:	6e4020ef          	jal	ra,13aa6 <__lock>
   113c6:	99818913          	addi	s2,gp,-1640 # 1c198 <cur.1724>
   113ca:	00093683          	ld	a3,0(s2) # 1000 <exit-0xf120>
   113ce:	9a018993          	addi	s3,gp,-1632 # 1c1a0 <end.1725>
   113d2:	0009b803          	ld	a6,0(s3)
   113d6:	40d007b3          	neg	a5,a3
   113da:	8fe1                	and	a5,a5,s0
   113dc:	97b6                	add	a5,a5,a3
   113de:	00f93023          	sd	a5,0(s2)
   113e2:	40f80733          	sub	a4,a6,a5
   113e6:	13477d63          	bgeu	a4,s4,11520 <__simple_malloc+0x198>
   113ea:	18018e93          	addi	t4,gp,384 # 1c980 <__libc>
   113ee:	030eb683          	ld	a3,48(t4)
   113f2:	fff68713          	addi	a4,a3,-1 # 7fff <exit-0x8121>
   113f6:	40d00333          	neg	t1,a3
   113fa:	cfad                	beqz	a5,11474 <__simple_malloc+0xec>
   113fc:	99018e13          	addi	t3,gp,-1648 # 1c190 <brk.1723>
   11400:	000e3603          	ld	a2,0(t3)
   11404:	1ac80763          	beq	a6,a2,115b2 <__simple_malloc+0x22a>
   11408:	00ea05b3          	add	a1,s4,a4
   1140c:	0065f5b3          	and	a1,a1,t1
   11410:	41458733          	sub	a4,a1,s4
   11414:	0035d793          	srli	a5,a1,0x3
   11418:	02e7f363          	bgeu	a5,a4,1143e <__simple_malloc+0xb6>
   1141c:	9ac18713          	addi	a4,gp,-1620 # 1c1ac <mmap_step.1726>
   11420:	4308                	lw	a0,0(a4)
   11422:	0009b603          	ld	a2,0(s3)
   11426:	00093883          	ld	a7,0(s2)
   1142a:	0015579b          	srliw	a5,a0,0x1
   1142e:	00f697b3          	sll	a5,a3,a5
   11432:	41478833          	sub	a6,a5,s4
   11436:	411606b3          	sub	a3,a2,a7
   1143a:	0f06ec63          	bltu	a3,a6,11532 <__simple_malloc+0x1aa>
   1143e:	4781                	li	a5,0
   11440:	577d                	li	a4,-1
   11442:	02200693          	li	a3,34
   11446:	460d                	li	a2,3
   11448:	4501                	li	a0,0
   1144a:	6ac010ef          	jal	ra,12af6 <__mmap>
   1144e:	57fd                	li	a5,-1
   11450:	842a                	mv	s0,a0
   11452:	12f50763          	beq	a0,a5,11580 <__simple_malloc+0x1f8>
   11456:	9a818513          	addi	a0,gp,-1624 # 1c1a8 <lock>
   1145a:	724020ef          	jal	ra,13b7e <__unlock>
   1145e:	60a6                	ld	ra,72(sp)
   11460:	8522                	mv	a0,s0
   11462:	6406                	ld	s0,64(sp)
   11464:	74e2                	ld	s1,56(sp)
   11466:	7942                	ld	s2,48(sp)
   11468:	79a2                	ld	s3,40(sp)
   1146a:	7a02                	ld	s4,32(sp)
   1146c:	6161                	addi	sp,sp,80
   1146e:	8082                	ret
   11470:	4a05                	li	s4,1
   11472:	b735                	j	1139e <__simple_malloc+0x16>
   11474:	0d600893          	li	a7,214
   11478:	4501                	li	a0,0
   1147a:	00000073          	ecall
   1147e:	030eb683          	ld	a3,48(t4)
   11482:	40a00633          	neg	a2,a0
   11486:	fff68893          	addi	a7,a3,-1
   1148a:	01167633          	and	a2,a2,a7
   1148e:	962a                	add	a2,a2,a0
   11490:	99018e13          	addi	t3,gp,-1648 # 1c190 <brk.1723>
   11494:	00ce3023          	sd	a2,0(t3)
   11498:	00c9b023          	sd	a2,0(s3)
   1149c:	00c93023          	sd	a2,0(s2)
   114a0:	41070733          	sub	a4,a4,a6
   114a4:	9752                	add	a4,a4,s4
   114a6:	97ba                	add	a5,a5,a4
   114a8:	0067f5b3          	and	a1,a5,t1
   114ac:	fff64793          	not	a5,a2
   114b0:	0af5fa63          	bgeu	a1,a5,11564 <__simple_malloc+0x1dc>
   114b4:	008eb703          	ld	a4,8(t4)
   114b8:	00800837          	lui	a6,0x800
   114bc:	00c58533          	add	a0,a1,a2
   114c0:	87ba                	mv	a5,a4
   114c2:	0d076563          	bltu	a4,a6,1158c <__simple_malloc+0x204>
   114c6:	ff800837          	lui	a6,0xff800
   114ca:	97c2                	add	a5,a5,a6
   114cc:	00a7f463          	bgeu	a5,a0,114d4 <__simple_malloc+0x14c>
   114d0:	08e66a63          	bltu	a2,a4,11564 <__simple_malloc+0x1dc>
   114d4:	0838                	addi	a4,sp,24
   114d6:	00800837          	lui	a6,0x800
   114da:	87ba                	mv	a5,a4
   114dc:	0b076b63          	bltu	a4,a6,11592 <__simple_malloc+0x20a>
   114e0:	ff800837          	lui	a6,0xff800
   114e4:	97c2                	add	a5,a5,a6
   114e6:	00a7f463          	bgeu	a5,a0,114ee <__simple_malloc+0x166>
   114ea:	06e66d63          	bltu	a2,a4,11564 <__simple_malloc+0x1dc>
   114ee:	0d600893          	li	a7,214
   114f2:	00000073          	ecall
   114f6:	000e3783          	ld	a5,0(t3)
   114fa:	97ae                	add	a5,a5,a1
   114fc:	00f50963          	beq	a0,a5,1150e <__simple_malloc+0x186>
   11500:	030eb683          	ld	a3,48(t4)
   11504:	40d00333          	neg	t1,a3
   11508:	fff68713          	addi	a4,a3,-1
   1150c:	bdf5                	j	11408 <__simple_malloc+0x80>
   1150e:	0009b703          	ld	a4,0(s3)
   11512:	00093783          	ld	a5,0(s2)
   11516:	95ba                	add	a1,a1,a4
   11518:	00b9b023          	sd	a1,0(s3)
   1151c:	00be3023          	sd	a1,0(t3)
   11520:	843e                	mv	s0,a5
   11522:	97d2                	add	a5,a5,s4
   11524:	9a818513          	addi	a0,gp,-1624 # 1c1a8 <lock>
   11528:	00f93023          	sd	a5,0(s2)
   1152c:	652020ef          	jal	ra,13b7e <__unlock>
   11530:	b73d                	j	1145e <__simple_malloc+0xd6>
   11532:	00f5f663          	bgeu	a1,a5,1153e <__simple_malloc+0x1b6>
   11536:	46ad                	li	a3,11
   11538:	85be                	mv	a1,a5
   1153a:	04a6ff63          	bgeu	a3,a0,11598 <__simple_malloc+0x210>
   1153e:	4781                	li	a5,0
   11540:	577d                	li	a4,-1
   11542:	02200693          	li	a3,34
   11546:	460d                	li	a2,3
   11548:	4501                	li	a0,0
   1154a:	e42e                	sd	a1,8(sp)
   1154c:	5aa010ef          	jal	ra,12af6 <__mmap>
   11550:	57fd                	li	a5,-1
   11552:	65a2                	ld	a1,8(sp)
   11554:	842a                	mv	s0,a0
   11556:	02f50563          	beq	a0,a5,11580 <__simple_malloc+0x1f8>
   1155a:	95a2                	add	a1,a1,s0
   1155c:	87a2                	mv	a5,s0
   1155e:	00b9b023          	sd	a1,0(s3)
   11562:	b7c1                	j	11522 <__simple_malloc+0x19a>
   11564:	40d00333          	neg	t1,a3
   11568:	8746                	mv	a4,a7
   1156a:	bd79                	j	11408 <__simple_malloc+0x80>
   1156c:	4789                	li	a5,2
   1156e:	fff78413          	addi	s0,a5,-1
   11572:	b5b1                	j	113be <__simple_malloc+0x36>
   11574:	9f9ff0ef          	jal	ra,10f6c <__errno_location>
   11578:	47b1                	li	a5,12
   1157a:	c11c                	sw	a5,0(a0)
   1157c:	4401                	li	s0,0
   1157e:	b5c5                	j	1145e <__simple_malloc+0xd6>
   11580:	9a818513          	addi	a0,gp,-1624 # 1c1a8 <lock>
   11584:	5fa020ef          	jal	ra,13b7e <__unlock>
   11588:	4401                	li	s0,0
   1158a:	bdd1                	j	1145e <__simple_malloc+0xd6>
   1158c:	008007b7          	lui	a5,0x800
   11590:	bf1d                	j	114c6 <__simple_malloc+0x13e>
   11592:	008007b7          	lui	a5,0x800
   11596:	b7a9                	j	114e0 <__simple_malloc+0x158>
   11598:	2505                	addiw	a0,a0,1
   1159a:	c308                	sw	a0,0(a4)
   1159c:	b74d                	j	1153e <__simple_malloc+0x1b6>
   1159e:	4401                	li	s0,0
   115a0:	bd39                	j	113be <__simple_malloc+0x36>
   115a2:	4791                	li	a5,4
   115a4:	fff78413          	addi	s0,a5,-1 # 7fffff <__BSS_END__+0x7e35df>
   115a8:	bd19                	j	113be <__simple_malloc+0x36>
   115aa:	47a1                	li	a5,8
   115ac:	fff78413          	addi	s0,a5,-1
   115b0:	b539                	j	113be <__simple_malloc+0x36>
   115b2:	88ba                	mv	a7,a4
   115b4:	b5f5                	j	114a0 <__simple_malloc+0x118>

00000000000115b6 <__libc_malloc>:
   115b6:	6910006f          	j	12446 <__libc_malloc_impl>

00000000000115ba <malloc>:
   115ba:	68d0006f          	j	12446 <__libc_malloc_impl>

00000000000115be <queue>:
   115be:	659c                	ld	a5,8(a1)
   115c0:	c781                	beqz	a5,115c8 <queue+0xa>
   115c2:	00000023          	sb	zero,0(zero) # 0 <exit-0x10120>
   115c6:	9002                	ebreak
   115c8:	619c                	ld	a5,0(a1)
   115ca:	ffe5                	bnez	a5,115c2 <queue+0x4>
   115cc:	611c                	ld	a5,0(a0)
   115ce:	cb81                	beqz	a5,115de <queue+0x20>
   115d0:	e59c                	sd	a5,8(a1)
   115d2:	639c                	ld	a5,0(a5)
   115d4:	e19c                	sd	a5,0(a1)
   115d6:	e78c                	sd	a1,8(a5)
   115d8:	659c                	ld	a5,8(a1)
   115da:	e38c                	sd	a1,0(a5)
   115dc:	8082                	ret
   115de:	e58c                	sd	a1,8(a1)
   115e0:	e18c                	sd	a1,0(a1)
   115e2:	e10c                	sd	a1,0(a0)
   115e4:	8082                	ret

00000000000115e6 <get_meta>:
   115e6:	00f57793          	andi	a5,a0,15
   115ea:	c781                	beqz	a5,115f2 <get_meta+0xc>
   115ec:	00000023          	sb	zero,0(zero) # 0 <exit-0x10120>
   115f0:	9002                	ebreak
   115f2:	ffd54683          	lbu	a3,-3(a0)
   115f6:	ffc54783          	lbu	a5,-4(a0)
   115fa:	ffe55703          	lhu	a4,-2(a0)
   115fe:	01f6f593          	andi	a1,a3,31
   11602:	8afd                	andi	a3,a3,31
   11604:	c799                	beqz	a5,11612 <get_meta+0x2c>
   11606:	f37d                	bnez	a4,115ec <get_meta+0x6>
   11608:	ff852703          	lw	a4,-8(a0)
   1160c:	67c1                	lui	a5,0x10
   1160e:	fcf74fe3          	blt	a4,a5,115ec <get_meta+0x6>
   11612:	0047179b          	slliw	a5,a4,0x4
   11616:	8d1d                	sub	a0,a0,a5
   11618:	ff050793          	addi	a5,a0,-16
   1161c:	6388                	ld	a0,0(a5)
   1161e:	6910                	ld	a2,16(a0)
   11620:	fcf616e3          	bne	a2,a5,115ec <get_meta+0x6>
   11624:	711c                	ld	a5,32(a0)
   11626:	01f7f613          	andi	a2,a5,31
   1162a:	fcd641e3          	blt	a2,a3,115ec <get_meta+0x6>
   1162e:	4d10                	lw	a2,24(a0)
   11630:	00d6563b          	srlw	a2,a2,a3
   11634:	8a05                	andi	a2,a2,1
   11636:	fa5d                	bnez	a2,115ec <get_meta+0x6>
   11638:	4d50                	lw	a2,28(a0)
   1163a:	00d656bb          	srlw	a3,a2,a3
   1163e:	8a85                	andi	a3,a3,1
   11640:	f6d5                	bnez	a3,115ec <get_meta+0x6>
   11642:	76fd                	lui	a3,0xfffff
   11644:	8ee9                	and	a3,a3,a0
   11646:	6290                	ld	a2,0(a3)
   11648:	bd81b683          	ld	a3,-1064(gp) # 1c3d8 <__malloc_context>
   1164c:	fad610e3          	bne	a2,a3,115ec <get_meta+0x6>
   11650:	0067d693          	srli	a3,a5,0x6
   11654:	03f6f693          	andi	a3,a3,63
   11658:	02f00613          	li	a2,47
   1165c:	02d66963          	bltu	a2,a3,1168e <get_meta+0xa8>
   11660:	6665                	lui	a2,0x19
   11662:	0686                	slli	a3,a3,0x1
   11664:	6f060613          	addi	a2,a2,1776 # 196f0 <__malloc_size_classes>
   11668:	96b2                	add	a3,a3,a2
   1166a:	0006d683          	lhu	a3,0(a3) # fffffffffffff000 <__BSS_END__+0xfffffffffffe25e0>
   1166e:	02b685bb          	mulw	a1,a3,a1
   11672:	f6b74de3          	blt	a4,a1,115ec <get_meta+0x6>
   11676:	9ead                	addw	a3,a3,a1
   11678:	f6d75ae3          	bge	a4,a3,115ec <get_meta+0x6>
   1167c:	76fd                	lui	a3,0xfffff
   1167e:	8efd                	and	a3,a3,a5
   11680:	c691                	beqz	a3,1168c <get_meta+0xa6>
   11682:	83b1                	srli	a5,a5,0xc
   11684:	07a2                	slli	a5,a5,0x8
   11686:	17fd                	addi	a5,a5,-1
   11688:	f6e7e2e3          	bltu	a5,a4,115ec <get_meta+0x6>
   1168c:	8082                	ret
   1168e:	6685                	lui	a3,0x1
   11690:	fc068693          	addi	a3,a3,-64 # fc0 <exit-0xf160>
   11694:	00d7f633          	and	a2,a5,a3
   11698:	f4d61ae3          	bne	a2,a3,115ec <get_meta+0x6>
   1169c:	b7c5                	j	1167c <get_meta+0x96>

000000000001169e <get_stride>:
   1169e:	7108                	ld	a0,32(a0)
   116a0:	01f57793          	andi	a5,a0,31
   116a4:	eb81                	bnez	a5,116b4 <get_stride+0x16>
   116a6:	77fd                	lui	a5,0xfffff
   116a8:	8fe9                	and	a5,a5,a0
   116aa:	c789                	beqz	a5,116b4 <get_stride+0x16>
   116ac:	8131                	srli	a0,a0,0xc
   116ae:	0532                	slli	a0,a0,0xc
   116b0:	1541                	addi	a0,a0,-16
   116b2:	8082                	ret
   116b4:	67e5                	lui	a5,0x19
   116b6:	8115                	srli	a0,a0,0x5
   116b8:	6f078793          	addi	a5,a5,1776 # 196f0 <__malloc_size_classes>
   116bc:	07e57513          	andi	a0,a0,126
   116c0:	953e                	add	a0,a0,a5
   116c2:	00055503          	lhu	a0,0(a0)
   116c6:	0045151b          	slliw	a0,a0,0x4
   116ca:	8082                	ret

00000000000116cc <nontrivial_free>:
   116cc:	7159                	addi	sp,sp,-112
   116ce:	4d58                	lw	a4,28(a0)
   116d0:	4d1c                	lw	a5,24(a0)
   116d2:	e4ce                	sd	s3,72(sp)
   116d4:	02053983          	ld	s3,32(a0)
   116d8:	8fd9                	or	a5,a5,a4
   116da:	e0d2                	sd	s4,64(sp)
   116dc:	4709                	li	a4,2
   116de:	4a05                	li	s4,1
   116e0:	eca6                	sd	s1,88(sp)
   116e2:	00ba1a3b          	sllw	s4,s4,a1
   116e6:	0069d493          	srli	s1,s3,0x6
   116ea:	0137173b          	sllw	a4,a4,s3
   116ee:	f0a2                	sd	s0,96(sp)
   116f0:	fc56                	sd	s5,56(sp)
   116f2:	f45e                	sd	s7,40(sp)
   116f4:	03f4fa93          	andi	s5,s1,63
   116f8:	00078b9b          	sext.w	s7,a5
   116fc:	f486                	sd	ra,104(sp)
   116fe:	e8ca                	sd	s2,80(sp)
   11700:	f85a                	sd	s6,48(sp)
   11702:	00fa07bb          	addw	a5,s4,a5
   11706:	377d                	addiw	a4,a4,-1
   11708:	842a                	mv	s0,a0
   1170a:	84d6                	mv	s1,s5
   1170c:	1ee79863          	bne	a5,a4,118fc <nontrivial_free+0x230>
   11710:	0209f793          	andi	a5,s3,32
   11714:	1e078463          	beqz	a5,118fc <nontrivial_free+0x230>
   11718:	02f00793          	li	a5,47
   1171c:	00853903          	ld	s2,8(a0)
   11720:	2357c963          	blt	a5,s5,11952 <nontrivial_free+0x286>
   11724:	f7bff0ef          	jal	ra,1169e <get_stride>
   11728:	6765                	lui	a4,0x19
   1172a:	001a9793          	slli	a5,s5,0x1
   1172e:	6f070713          	addi	a4,a4,1776 # 196f0 <__malloc_size_classes>
   11732:	97ba                	add	a5,a5,a4
   11734:	0007d783          	lhu	a5,0(a5)
   11738:	0047979b          	slliw	a5,a5,0x4
   1173c:	20f56e63          	bltu	a0,a5,11958 <nontrivial_free+0x28c>
   11740:	77fd                	lui	a5,0xfffff
   11742:	01f9fb13          	andi	s6,s3,31
   11746:	00f9f9b3          	and	s3,s3,a5
   1174a:	20098763          	beqz	s3,11958 <nontrivial_free+0x28c>
   1174e:	21241563          	bne	s0,s2,11958 <nontrivial_free+0x28c>
   11752:	ff9a879b          	addiw	a5,s5,-7
   11756:	477d                	li	a4,31
   11758:	02f76c63          	bltu	a4,a5,11790 <nontrivial_free+0xc4>
   1175c:	bd818793          	addi	a5,gp,-1064 # 1c3d8 <__malloc_context>
   11760:	ff9a871b          	addiw	a4,s5,-7
   11764:	973e                	add	a4,a4,a5
   11766:	37074683          	lbu	a3,880(a4)
   1176a:	06300713          	li	a4,99
   1176e:	02d77163          	bgeu	a4,a3,11790 <nontrivial_free+0xc4>
   11772:	03aa8693          	addi	a3,s5,58
   11776:	068e                	slli	a3,a3,0x3
   11778:	97b6                	add	a5,a5,a3
   1177a:	001b071b          	addiw	a4,s6,1
   1177e:	46a5                	li	a3,9
   11780:	02d706b3          	mul	a3,a4,a3
   11784:	639c                	ld	a5,0(a5)
   11786:	1cd7e363          	bltu	a5,a3,1194c <nontrivial_free+0x280>
   1178a:	47cd                	li	a5,19
   1178c:	1ce7c063          	blt	a5,a4,1194c <nontrivial_free+0x280>
   11790:	04a9                	addi	s1,s1,10
   11792:	bd818713          	addi	a4,gp,-1064 # 1c3d8 <__malloc_context>
   11796:	00349693          	slli	a3,s1,0x3
   1179a:	9736                	add	a4,a4,a3
   1179c:	6314                	ld	a3,0(a4)
   1179e:	bd818793          	addi	a5,gp,-1064 # 1c3d8 <__malloc_context>
   117a2:	03240b63          	beq	s0,s2,117d8 <nontrivial_free+0x10c>
   117a6:	6010                	ld	a2,0(s0)
   117a8:	01263423          	sd	s2,8(a2)
   117ac:	00c93023          	sd	a2,0(s2)
   117b0:	00869463          	bne	a3,s0,117b8 <nontrivial_free+0xec>
   117b4:	01273023          	sd	s2,0(a4)
   117b8:	00043423          	sd	zero,8(s0)
   117bc:	00043023          	sd	zero,0(s0)
   117c0:	06869063          	bne	a3,s0,11820 <nontrivial_free+0x154>
   117c4:	048e                	slli	s1,s1,0x3
   117c6:	97a6                	add	a5,a5,s1
   117c8:	6398                	ld	a4,0(a5)
   117ca:	cb39                	beqz	a4,11820 <nontrivial_free+0x154>
   117cc:	4f1c                	lw	a5,24(a4)
   117ce:	2781                	sext.w	a5,a5
   117d0:	c799                	beqz	a5,117de <nontrivial_free+0x112>
   117d2:	00000023          	sb	zero,0(zero) # 0 <exit-0x10120>
   117d6:	9002                	ebreak
   117d8:	00073023          	sd	zero,0(a4)
   117dc:	bff1                	j	117b8 <nontrivial_free+0xec>
   117de:	6b1c                	ld	a5,16(a4)
   117e0:	01c70813          	addi	a6,a4,28
   117e4:	6794                	ld	a3,8(a5)
   117e6:	4789                	li	a5,2
   117e8:	00d797bb          	sllw	a5,a5,a3
   117ec:	fff7861b          	addiw	a2,a5,-1
   117f0:	40f006bb          	negw	a3,a5
   117f4:	4f5c                	lw	a5,28(a4)
   117f6:	0007851b          	sext.w	a0,a5
   117fa:	00d577b3          	and	a5,a0,a3
   117fe:	88aa                	mv	a7,a0
   11800:	2781                	sext.w	a5,a5
   11802:	160825af          	lr.w.aqrl	a1,(a6)
   11806:	00a59663          	bne	a1,a0,11812 <nontrivial_free+0x146>
   1180a:	1ef8232f          	sc.w.aqrl	t1,a5,(a6)
   1180e:	fe031ae3          	bnez	t1,11802 <nontrivial_free+0x136>
   11812:	2581                	sext.w	a1,a1
   11814:	feb510e3          	bne	a0,a1,117f4 <nontrivial_free+0x128>
   11818:	011677b3          	and	a5,a2,a7
   1181c:	2781                	sext.w	a5,a5
   1181e:	cf1c                	sw	a5,24(a4)
   11820:	7014                	ld	a3,32(s0)
   11822:	02f00713          	li	a4,47
   11826:	0066d793          	srli	a5,a3,0x6
   1182a:	03f7f593          	andi	a1,a5,63
   1182e:	87ae                	mv	a5,a1
   11830:	00b74f63          	blt	a4,a1,1184e <nontrivial_free+0x182>
   11834:	03a58613          	addi	a2,a1,58
   11838:	060e                	slli	a2,a2,0x3
   1183a:	bd818713          	addi	a4,gp,-1064 # 1c3d8 <__malloc_context>
   1183e:	9732                	add	a4,a4,a2
   11840:	01f6f613          	andi	a2,a3,31
   11844:	0016051b          	addiw	a0,a2,1
   11848:	6310                	ld	a2,0(a4)
   1184a:	8e09                	sub	a2,a2,a0
   1184c:	e310                	sd	a2,0(a4)
   1184e:	777d                	lui	a4,0xfffff
   11850:	8f75                	and	a4,a4,a3
   11852:	01043903          	ld	s2,16(s0)
   11856:	c749                	beqz	a4,118e0 <nontrivial_free+0x214>
   11858:	bd818693          	addi	a3,gp,-1064 # 1c3d8 <__malloc_context>
   1185c:	3906c603          	lbu	a2,912(a3)
   11860:	0ff00513          	li	a0,255
   11864:	06a61a63          	bne	a2,a0,118d8 <nontrivial_free+0x20c>
   11868:	bd818713          	addi	a4,gp,-1064 # 1c3d8 <__malloc_context>
   1186c:	02068613          	addi	a2,a3,32
   11870:	34070823          	sb	zero,848(a4) # fffffffffffff350 <__BSS_END__+0xfffffffffffe2930>
   11874:	0705                	addi	a4,a4,1
   11876:	fee61de3          	bne	a2,a4,11870 <nontrivial_free+0x1a4>
   1187a:	4705                	li	a4,1
   1187c:	38e68823          	sb	a4,912(a3)
   11880:	ff95871b          	addiw	a4,a1,-7
   11884:	467d                	li	a2,31
   11886:	00e66863          	bltu	a2,a4,11896 <nontrivial_free+0x1ca>
   1188a:	3906c703          	lbu	a4,912(a3)
   1188e:	37e5                	addiw	a5,a5,-7
   11890:	97b6                	add	a5,a5,a3
   11892:	34e78823          	sb	a4,848(a5) # fffffffffffff350 <__BSS_END__+0xfffffffffffe2930>
   11896:	7004                	ld	s1,32(s0)
   11898:	80b1                	srli	s1,s1,0xc
   1189a:	04b2                	slli	s1,s1,0xc
   1189c:	00043023          	sd	zero,0(s0)
   118a0:	00043423          	sd	zero,8(s0)
   118a4:	00043823          	sd	zero,16(s0)
   118a8:	00043c23          	sd	zero,24(s0)
   118ac:	02043023          	sd	zero,32(s0)
   118b0:	85a2                	mv	a1,s0
   118b2:	be818513          	addi	a0,gp,-1048 # 1c3e8 <__malloc_context+0x10>
   118b6:	d09ff0ef          	jal	ra,115be <queue>
   118ba:	e04a                	sd	s2,0(sp)
   118bc:	e426                	sd	s1,8(sp)
   118be:	70a6                	ld	ra,104(sp)
   118c0:	7406                	ld	s0,96(sp)
   118c2:	6502                	ld	a0,0(sp)
   118c4:	65a2                	ld	a1,8(sp)
   118c6:	64e6                	ld	s1,88(sp)
   118c8:	6946                	ld	s2,80(sp)
   118ca:	69a6                	ld	s3,72(sp)
   118cc:	6a06                	ld	s4,64(sp)
   118ce:	7ae2                	ld	s5,56(sp)
   118d0:	7b42                	ld	s6,48(sp)
   118d2:	7ba2                	ld	s7,40(sp)
   118d4:	6165                	addi	sp,sp,112
   118d6:	8082                	ret
   118d8:	2605                	addiw	a2,a2,1
   118da:	38c68823          	sb	a2,912(a3)
   118de:	b74d                	j	11880 <nontrivial_free+0x1b4>
   118e0:	854a                	mv	a0,s2
   118e2:	d05ff0ef          	jal	ra,115e6 <get_meta>
   118e6:	ffd94583          	lbu	a1,-3(s2)
   118ea:	681c                	ld	a5,16(s0)
   118ec:	89fd                	andi	a1,a1,31
   118ee:	0007b023          	sd	zero,0(a5)
   118f2:	ddbff0ef          	jal	ra,116cc <nontrivial_free>
   118f6:	892a                	mv	s2,a0
   118f8:	84ae                	mv	s1,a1
   118fa:	b74d                	j	1189c <nontrivial_free+0x1d0>
   118fc:	020b9563          	bnez	s7,11926 <nontrivial_free+0x25a>
   11900:	02f00793          	li	a5,47
   11904:	ec97c7e3          	blt	a5,s1,117d2 <nontrivial_free+0x106>
   11908:	04a9                	addi	s1,s1,10
   1190a:	bd818793          	addi	a5,gp,-1064 # 1c3d8 <__malloc_context>
   1190e:	048e                	slli	s1,s1,0x3
   11910:	94be                	add	s1,s1,a5
   11912:	6098                	ld	a4,0(s1)
   11914:	00870963          	beq	a4,s0,11926 <nontrivial_free+0x25a>
   11918:	00aa8513          	addi	a0,s5,10
   1191c:	050e                	slli	a0,a0,0x3
   1191e:	85a2                	mv	a1,s0
   11920:	953e                	add	a0,a0,a5
   11922:	c9dff0ef          	jal	ra,115be <queue>
   11926:	01c40693          	addi	a3,s0,28
   1192a:	4c5c                	lw	a5,28(s0)
   1192c:	2781                	sext.w	a5,a5
   1192e:	00fa6633          	or	a2,s4,a5
   11932:	1606a72f          	lr.w.aqrl	a4,(a3)
   11936:	00f71563          	bne	a4,a5,11940 <nontrivial_free+0x274>
   1193a:	1ec6a5af          	sc.w.aqrl	a1,a2,(a3)
   1193e:	f9f5                	bnez	a1,11932 <nontrivial_free+0x266>
   11940:	2701                	sext.w	a4,a4
   11942:	fee794e3          	bne	a5,a4,1192a <nontrivial_free+0x25e>
   11946:	e002                	sd	zero,0(sp)
   11948:	e402                	sd	zero,8(sp)
   1194a:	bf95                	j	118be <nontrivial_free+0x1f2>
   1194c:	fa0b8ee3          	beqz	s7,11908 <nontrivial_free+0x23c>
   11950:	bfd9                	j	11926 <nontrivial_free+0x25a>
   11952:	e80910e3          	bnez	s2,117d2 <nontrivial_free+0x106>
   11956:	b5e9                	j	11820 <nontrivial_free+0x154>
   11958:	ec0904e3          	beqz	s2,11820 <nontrivial_free+0x154>
   1195c:	bd15                	j	11790 <nontrivial_free+0xc4>

000000000001195e <__libc_free>:
   1195e:	1a050e63          	beqz	a0,11b1a <__libc_free+0x1bc>
   11962:	7159                	addi	sp,sp,-112
   11964:	e8ca                	sd	s2,80(sp)
   11966:	892a                	mv	s2,a0
   11968:	f486                	sd	ra,104(sp)
   1196a:	f0a2                	sd	s0,96(sp)
   1196c:	eca6                	sd	s1,88(sp)
   1196e:	e4ce                	sd	s3,72(sp)
   11970:	e0d2                	sd	s4,64(sp)
   11972:	f85a                	sd	s6,48(sp)
   11974:	fc56                	sd	s5,56(sp)
   11976:	f45e                	sd	s7,40(sp)
   11978:	f062                	sd	s8,32(sp)
   1197a:	c6dff0ef          	jal	ra,115e6 <get_meta>
   1197e:	ffd94983          	lbu	s3,-3(s2)
   11982:	84aa                	mv	s1,a0
   11984:	d1bff0ef          	jal	ra,1169e <get_stride>
   11988:	01f9fa13          	andi	s4,s3,31
   1198c:	8452                	mv	s0,s4
   1198e:	02aa0a33          	mul	s4,s4,a0
   11992:	0104bb03          	ld	s6,16(s1)
   11996:	ffc50593          	addi	a1,a0,-4
   1199a:	0059d993          	srli	s3,s3,0x5
   1199e:	0b41                	addi	s6,s6,16
   119a0:	4691                	li	a3,4
   119a2:	874e                	mv	a4,s3
   119a4:	9b52                	add	s6,s6,s4
   119a6:	00bb07b3          	add	a5,s6,a1
   119aa:	0336f563          	bgeu	a3,s3,119d4 <__libc_free+0x76>
   119ae:	4715                	li	a4,5
   119b0:	00e98563          	beq	s3,a4,119ba <__libc_free+0x5c>
   119b4:	00000023          	sb	zero,0(zero) # 0 <exit-0x10120>
   119b8:	9002                	ebreak
   119ba:	ffc7e703          	lwu	a4,-4(a5)
   119be:	00e6e563          	bltu	a3,a4,119c8 <__libc_free+0x6a>
   119c2:	00000023          	sb	zero,0(zero) # 0 <exit-0x10120>
   119c6:	9002                	ebreak
   119c8:	ffb7c683          	lbu	a3,-5(a5)
   119cc:	c681                	beqz	a3,119d4 <__libc_free+0x76>
   119ce:	00000023          	sb	zero,0(zero) # 0 <exit-0x10120>
   119d2:	9002                	ebreak
   119d4:	412786b3          	sub	a3,a5,s2
   119d8:	00e6f563          	bgeu	a3,a4,119e2 <__libc_free+0x84>
   119dc:	00000023          	sb	zero,0(zero) # 0 <exit-0x10120>
   119e0:	9002                	ebreak
   119e2:	40e78733          	sub	a4,a5,a4
   119e6:	00074703          	lbu	a4,0(a4)
   119ea:	c701                	beqz	a4,119f2 <__libc_free+0x94>
   119ec:	00000023          	sb	zero,0(zero) # 0 <exit-0x10120>
   119f0:	9002                	ebreak
   119f2:	0007c703          	lbu	a4,0(a5)
   119f6:	c701                	beqz	a4,119fe <__libc_free+0xa0>
   119f8:	00000023          	sb	zero,0(zero) # 0 <exit-0x10120>
   119fc:	9002                	ebreak
   119fe:	7098                	ld	a4,32(s1)
   11a00:	4a89                	li	s5,2
   11a02:	00ea9abb          	sllw	s5,s5,a4
   11a06:	577d                	li	a4,-1
   11a08:	fee90ea3          	sb	a4,-3(s2)
   11a0c:	18018713          	addi	a4,gp,384 # 1c980 <__libc>
   11a10:	7b18                	ld	a4,48(a4)
   11a12:	fffb0693          	addi	a3,s6,-1
   11a16:	4a05                	li	s4,1
   11a18:	8fb5                	xor	a5,a5,a3
   11a1a:	fe091f23          	sh	zero,-2(s2)
   11a1e:	00171693          	slli	a3,a4,0x1
   11a22:	008a1a3b          	sllw	s4,s4,s0
   11a26:	3afd                	addiw	s5,s5,-1
   11a28:	18018b93          	addi	s7,gp,384 # 1c980 <__libc>
   11a2c:	02d7ef63          	bltu	a5,a3,11a6a <__libc_free+0x10c>
   11a30:	709c                	ld	a5,32(s1)
   11a32:	8bfd                	andi	a5,a5,31
   11a34:	cb9d                	beqz	a5,11a6a <__libc_free+0x10c>
   11a36:	fff70793          	addi	a5,a4,-1
   11a3a:	41600933          	neg	s2,s6
   11a3e:	00f97933          	and	s2,s2,a5
   11a42:	412585b3          	sub	a1,a1,s2
   11a46:	40e00733          	neg	a4,a4
   11a4a:	8df9                	and	a1,a1,a4
   11a4c:	cd99                	beqz	a1,11a6a <__libc_free+0x10c>
   11a4e:	e42e                	sd	a1,8(sp)
   11a50:	d1cff0ef          	jal	ra,10f6c <__errno_location>
   11a54:	00052c03          	lw	s8,0(a0)
   11a58:	65a2                	ld	a1,8(sp)
   11a5a:	89aa                	mv	s3,a0
   11a5c:	4621                	li	a2,8
   11a5e:	012b0533          	add	a0,s6,s2
   11a62:	07a010ef          	jal	ra,12adc <__madvise>
   11a66:	0189a023          	sw	s8,0(s3)
   11a6a:	01c48613          	addi	a2,s1,28
   11a6e:	4cdc                	lw	a5,28(s1)
   11a70:	4c98                	lw	a4,24(s1)
   11a72:	0007869b          	sext.w	a3,a5
   11a76:	2701                	sext.w	a4,a4
   11a78:	8f55                	or	a4,a4,a3
   11a7a:	00ea75b3          	and	a1,s4,a4
   11a7e:	c581                	beqz	a1,11a86 <__libc_free+0x128>
   11a80:	00000023          	sb	zero,0(zero) # 0 <exit-0x10120>
   11a84:	9002                	ebreak
   11a86:	c6b9                	beqz	a3,11ad4 <__libc_free+0x176>
   11a88:	00ea073b          	addw	a4,s4,a4
   11a8c:	05570463          	beq	a4,s5,11ad4 <__libc_free+0x176>
   11a90:	003bc703          	lbu	a4,3(s7)
   11a94:	00da07bb          	addw	a5,s4,a3
   11a98:	0187171b          	slliw	a4,a4,0x18
   11a9c:	4187571b          	sraiw	a4,a4,0x18
   11aa0:	ef11                	bnez	a4,11abc <__libc_free+0x15e>
   11aa2:	ccdc                	sw	a5,28(s1)
   11aa4:	70a6                	ld	ra,104(sp)
   11aa6:	7406                	ld	s0,96(sp)
   11aa8:	64e6                	ld	s1,88(sp)
   11aaa:	6946                	ld	s2,80(sp)
   11aac:	69a6                	ld	s3,72(sp)
   11aae:	6a06                	ld	s4,64(sp)
   11ab0:	7ae2                	ld	s5,56(sp)
   11ab2:	7b42                	ld	s6,48(sp)
   11ab4:	7ba2                	ld	s7,40(sp)
   11ab6:	7c02                	ld	s8,32(sp)
   11ab8:	6165                	addi	sp,sp,112
   11aba:	8082                	ret
   11abc:	1606272f          	lr.w.aqrl	a4,(a2)
   11ac0:	00d71563          	bne	a4,a3,11aca <__libc_free+0x16c>
   11ac4:	1ef625af          	sc.w.aqrl	a1,a5,(a2)
   11ac8:	f9f5                	bnez	a1,11abc <__libc_free+0x15e>
   11aca:	0007079b          	sext.w	a5,a4
   11ace:	fcf68be3          	beq	a3,a5,11aa4 <__libc_free+0x146>
   11ad2:	bf71                	j	11a6e <__libc_free+0x110>
   11ad4:	003bc783          	lbu	a5,3(s7)
   11ad8:	0187979b          	slliw	a5,a5,0x18
   11adc:	4187d79b          	sraiw	a5,a5,0x18
   11ae0:	c789                	beqz	a5,11aea <__libc_free+0x18c>
   11ae2:	1e818513          	addi	a0,gp,488 # 1c9e8 <__malloc_lock>
   11ae6:	7c1010ef          	jal	ra,13aa6 <__lock>
   11aea:	85a2                	mv	a1,s0
   11aec:	8526                	mv	a0,s1
   11aee:	bdfff0ef          	jal	ra,116cc <nontrivial_free>
   11af2:	842e                	mv	s0,a1
   11af4:	e82a                	sd	a0,16(sp)
   11af6:	1e818513          	addi	a0,gp,488 # 1c9e8 <__malloc_lock>
   11afa:	ec2e                	sd	a1,24(sp)
   11afc:	082020ef          	jal	ra,13b7e <__unlock>
   11b00:	d055                	beqz	s0,11aa4 <__libc_free+0x146>
   11b02:	c6aff0ef          	jal	ra,10f6c <__errno_location>
   11b06:	00052903          	lw	s2,0(a0)
   11b0a:	84aa                	mv	s1,a0
   11b0c:	6542                	ld	a0,16(sp)
   11b0e:	85a2                	mv	a1,s0
   11b10:	096010ef          	jal	ra,12ba6 <__munmap>
   11b14:	0124a023          	sw	s2,0(s1)
   11b18:	b771                	j	11aa4 <__libc_free+0x146>
   11b1a:	8082                	ret

0000000000011b1c <queue>:
   11b1c:	659c                	ld	a5,8(a1)
   11b1e:	c781                	beqz	a5,11b26 <queue+0xa>
   11b20:	00000023          	sb	zero,0(zero) # 0 <exit-0x10120>
   11b24:	9002                	ebreak
   11b26:	619c                	ld	a5,0(a1)
   11b28:	ffe5                	bnez	a5,11b20 <queue+0x4>
   11b2a:	611c                	ld	a5,0(a0)
   11b2c:	cb81                	beqz	a5,11b3c <queue+0x20>
   11b2e:	e59c                	sd	a5,8(a1)
   11b30:	639c                	ld	a5,0(a5)
   11b32:	e19c                	sd	a5,0(a1)
   11b34:	e78c                	sd	a1,8(a5)
   11b36:	659c                	ld	a5,8(a1)
   11b38:	e38c                	sd	a1,0(a5)
   11b3a:	8082                	ret
   11b3c:	e58c                	sd	a1,8(a1)
   11b3e:	e18c                	sd	a1,0(a1)
   11b40:	e10c                	sd	a1,0(a0)
   11b42:	8082                	ret

0000000000011b44 <get_stride>:
   11b44:	7108                	ld	a0,32(a0)
   11b46:	01f57793          	andi	a5,a0,31
   11b4a:	eb81                	bnez	a5,11b5a <get_stride+0x16>
   11b4c:	77fd                	lui	a5,0xfffff
   11b4e:	8fe9                	and	a5,a5,a0
   11b50:	c789                	beqz	a5,11b5a <get_stride+0x16>
   11b52:	8131                	srli	a0,a0,0xc
   11b54:	0532                	slli	a0,a0,0xc
   11b56:	1541                	addi	a0,a0,-16
   11b58:	8082                	ret
   11b5a:	8115                	srli	a0,a0,0x5
   11b5c:	67e5                	lui	a5,0x19
   11b5e:	6f078793          	addi	a5,a5,1776 # 196f0 <__malloc_size_classes>
   11b62:	07e57513          	andi	a0,a0,126
   11b66:	953e                	add	a0,a0,a5
   11b68:	00055503          	lhu	a0,0(a0)
   11b6c:	0045151b          	slliw	a0,a0,0x4
   11b70:	8082                	ret

0000000000011b72 <enframe>:
   11b72:	7179                	addi	sp,sp,-48
   11b74:	f022                	sd	s0,32(sp)
   11b76:	ec26                	sd	s1,24(sp)
   11b78:	8436                	mv	s0,a3
   11b7a:	84ae                	mv	s1,a1
   11b7c:	e84a                	sd	s2,16(sp)
   11b7e:	e44e                	sd	s3,8(sp)
   11b80:	8932                	mv	s2,a2
   11b82:	89aa                	mv	s3,a0
   11b84:	f406                	sd	ra,40(sp)
   11b86:	fbfff0ef          	jal	ra,11b44 <get_stride>
   11b8a:	87aa                	mv	a5,a0
   11b8c:	02f486b3          	mul	a3,s1,a5
   11b90:	41250733          	sub	a4,a0,s2
   11b94:	0109b503          	ld	a0,16(s3)
   11b98:	1771                	addi	a4,a4,-4
   11b9a:	17f1                	addi	a5,a5,-4
   11b9c:	0541                	addi	a0,a0,16
   11b9e:	00475613          	srli	a2,a4,0x4
   11ba2:	9536                	add	a0,a0,a3
   11ba4:	ffd54583          	lbu	a1,-3(a0)
   11ba8:	97aa                	add	a5,a5,a0
   11baa:	0ff47693          	andi	a3,s0,255
   11bae:	c591                	beqz	a1,11bba <enframe+0x48>
   11bb0:	ffe55683          	lhu	a3,-2(a0)
   11bb4:	2685                	addiw	a3,a3,1
   11bb6:	0ff6f693          	andi	a3,a3,255
   11bba:	ffc54583          	lbu	a1,-4(a0)
   11bbe:	c581                	beqz	a1,11bc6 <enframe+0x54>
   11bc0:	00000023          	sb	zero,0(zero) # 0 <exit-0x10120>
   11bc4:	9002                	ebreak
   11bc6:	02d67863          	bgeu	a2,a3,11bf6 <enframe+0x84>
   11bca:	8315                	srli	a4,a4,0x5
   11bcc:	8f51                	or	a4,a4,a2
   11bce:	00275593          	srli	a1,a4,0x2
   11bd2:	8dd9                	or	a1,a1,a4
   11bd4:	0045d713          	srli	a4,a1,0x4
   11bd8:	8f4d                	or	a4,a4,a1
   11bda:	8ef9                	and	a3,a3,a4
   11bdc:	0006871b          	sext.w	a4,a3
   11be0:	1682                	slli	a3,a3,0x20
   11be2:	9281                	srli	a3,a3,0x20
   11be4:	00d67563          	bgeu	a2,a3,11bee <enframe+0x7c>
   11be8:	fff64693          	not	a3,a2
   11bec:	9f35                	addw	a4,a4,a3
   11bee:	0007069b          	sext.w	a3,a4
   11bf2:	fce667e3          	bltu	a2,a4,11bc0 <enframe+0x4e>
   11bf6:	ca99                	beqz	a3,11c0c <enframe+0x9a>
   11bf8:	fed51f23          	sh	a3,-2(a0)
   11bfc:	5701                	li	a4,-32
   11bfe:	0046969b          	slliw	a3,a3,0x4
   11c02:	fee50ea3          	sb	a4,-3(a0)
   11c06:	9536                	add	a0,a0,a3
   11c08:	fe050e23          	sb	zero,-4(a0)
   11c0c:	0109b703          	ld	a4,16(s3)
   11c10:	40a78633          	sub	a2,a5,a0
   11c14:	fe950ea3          	sb	s1,-3(a0)
   11c18:	0741                	addi	a4,a4,16
   11c1a:	40e50733          	sub	a4,a0,a4
   11c1e:	8311                	srli	a4,a4,0x4
   11c20:	fee51f23          	sh	a4,-2(a0)
   11c24:	4126073b          	subw	a4,a2,s2
   11c28:	cf11                	beqz	a4,11c44 <enframe+0xd2>
   11c2a:	40e006bb          	negw	a3,a4
   11c2e:	96be                	add	a3,a3,a5
   11c30:	00068023          	sb	zero,0(a3)
   11c34:	4691                	li	a3,4
   11c36:	00e6d763          	bge	a3,a4,11c44 <enframe+0xd2>
   11c3a:	fee7ae23          	sw	a4,-4(a5)
   11c3e:	fe078da3          	sb	zero,-5(a5)
   11c42:	4715                	li	a4,5
   11c44:	ffd54783          	lbu	a5,-3(a0)
   11c48:	0057171b          	slliw	a4,a4,0x5
   11c4c:	8bfd                	andi	a5,a5,31
   11c4e:	9f3d                	addw	a4,a4,a5
   11c50:	fee50ea3          	sb	a4,-3(a0)
   11c54:	70a2                	ld	ra,40(sp)
   11c56:	7402                	ld	s0,32(sp)
   11c58:	64e2                	ld	s1,24(sp)
   11c5a:	6942                	ld	s2,16(sp)
   11c5c:	69a2                	ld	s3,8(sp)
   11c5e:	6145                	addi	sp,sp,48
   11c60:	8082                	ret

0000000000011c62 <rdlock>:
   11c62:	18018793          	addi	a5,gp,384 # 1c980 <__libc>
   11c66:	0037c783          	lbu	a5,3(a5)
   11c6a:	0187979b          	slliw	a5,a5,0x18
   11c6e:	4187d79b          	sraiw	a5,a5,0x18
   11c72:	c789                	beqz	a5,11c7c <rdlock+0x1a>
   11c74:	1e818513          	addi	a0,gp,488 # 1c9e8 <__malloc_lock>
   11c78:	62f0106f          	j	13aa6 <__lock>
   11c7c:	8082                	ret

0000000000011c7e <step_seq>:
   11c7e:	bd818693          	addi	a3,gp,-1064 # 1c3d8 <__malloc_context>
   11c82:	3906c703          	lbu	a4,912(a3)
   11c86:	0ff00593          	li	a1,255
   11c8a:	bd818613          	addi	a2,gp,-1064 # 1c3d8 <__malloc_context>
   11c8e:	00b71f63          	bne	a4,a1,11cac <step_seq+0x2e>
   11c92:	bd818793          	addi	a5,gp,-1064 # 1c3d8 <__malloc_context>
   11c96:	02060713          	addi	a4,a2,32
   11c9a:	34078823          	sb	zero,848(a5)
   11c9e:	0785                	addi	a5,a5,1
   11ca0:	fee79de3          	bne	a5,a4,11c9a <step_seq+0x1c>
   11ca4:	4785                	li	a5,1
   11ca6:	38f60823          	sb	a5,912(a2)
   11caa:	8082                	ret
   11cac:	2705                	addiw	a4,a4,1
   11cae:	38e68823          	sb	a4,912(a3)
   11cb2:	8082                	ret

0000000000011cb4 <size_to_class>:
   11cb4:	050d                	addi	a0,a0,3
   11cb6:	8111                	srli	a0,a0,0x4
   11cb8:	47a5                	li	a5,9
   11cba:	00a7e463          	bltu	a5,a0,11cc2 <size_to_class+0xe>
   11cbe:	2501                	sext.w	a0,a0
   11cc0:	8082                	ret
   11cc2:	00150693          	addi	a3,a0,1
   11cc6:	0016d79b          	srliw	a5,a3,0x1
   11cca:	0026d71b          	srliw	a4,a3,0x2
   11cce:	8f5d                	or	a4,a4,a5
   11cd0:	0007079b          	sext.w	a5,a4
   11cd4:	0027571b          	srliw	a4,a4,0x2
   11cd8:	8fd9                	or	a5,a5,a4
   11cda:	0007871b          	sext.w	a4,a5
   11cde:	0047d79b          	srliw	a5,a5,0x4
   11ce2:	8f5d                	or	a4,a4,a5
   11ce4:	0007079b          	sext.w	a5,a4
   11ce8:	0087571b          	srliw	a4,a4,0x8
   11cec:	8fd9                	or	a5,a5,a4
   11cee:	0007871b          	sext.w	a4,a5
   11cf2:	0107d79b          	srliw	a5,a5,0x10
   11cf6:	8f5d                	or	a4,a4,a5
   11cf8:	0007079b          	sext.w	a5,a4
   11cfc:	fff7c793          	not	a5,a5
   11d00:	2705                	addiw	a4,a4,1
   11d02:	8ff9                	and	a5,a5,a4
   11d04:	076be737          	lui	a4,0x76be
   11d08:	6297071b          	addiw	a4,a4,1577
   11d0c:	02e787bb          	mulw	a5,a5,a4
   11d10:	6765                	lui	a4,0x19
   11d12:	75070713          	addi	a4,a4,1872 # 19750 <debruijn32.2704>
   11d16:	01b7d79b          	srliw	a5,a5,0x1b
   11d1a:	97ba                	add	a5,a5,a4
   11d1c:	0007c783          	lbu	a5,0(a5)
   11d20:	6765                	lui	a4,0x19
   11d22:	6f070613          	addi	a2,a4,1776 # 196f0 <__malloc_size_classes>
   11d26:	37fd                	addiw	a5,a5,-1
   11d28:	0027951b          	slliw	a0,a5,0x2
   11d2c:	0015059b          	addiw	a1,a0,1
   11d30:	0586                	slli	a1,a1,0x1
   11d32:	962e                	add	a2,a2,a1
   11d34:	00065603          	lhu	a2,0(a2)
   11d38:	6f070713          	addi	a4,a4,1776
   11d3c:	00d67363          	bgeu	a2,a3,11d42 <size_to_class+0x8e>
   11d40:	2509                	addiw	a0,a0,2
   11d42:	00151793          	slli	a5,a0,0x1
   11d46:	973e                	add	a4,a4,a5
   11d48:	00075783          	lhu	a5,0(a4)
   11d4c:	00d7f363          	bgeu	a5,a3,11d52 <size_to_class+0x9e>
   11d50:	2505                	addiw	a0,a0,1
   11d52:	8082                	ret

0000000000011d54 <__malloc_atfork>:
   11d54:	00055363          	bgez	a0,11d5a <__malloc_atfork+0x6>
   11d58:	b729                	j	11c62 <rdlock>
   11d5a:	c501                	beqz	a0,11d62 <__malloc_atfork+0xe>
   11d5c:	1e01a423          	sw	zero,488(gp) # 1c9e8 <__malloc_lock>
   11d60:	8082                	ret
   11d62:	1e818513          	addi	a0,gp,488 # 1c9e8 <__malloc_lock>
   11d66:	6190106f          	j	13b7e <__unlock>

0000000000011d6a <__malloc_alloc_meta>:
   11d6a:	7139                	addi	sp,sp,-64
   11d6c:	f822                	sd	s0,48(sp)
   11d6e:	bd818793          	addi	a5,gp,-1064 # 1c3d8 <__malloc_context>
   11d72:	479c                	lw	a5,8(a5)
   11d74:	fc06                	sd	ra,56(sp)
   11d76:	f426                	sd	s1,40(sp)
   11d78:	f04a                	sd	s2,32(sp)
   11d7a:	ec4e                	sd	s3,24(sp)
   11d7c:	e852                	sd	s4,16(sp)
   11d7e:	bd818413          	addi	s0,gp,-1064 # 1c3d8 <__malloc_context>
   11d82:	e79d                	bnez	a5,11db0 <__malloc_alloc_meta+0x46>
   11d84:	41c657b7          	lui	a5,0x41c65
   11d88:	00810993          	addi	s3,sp,8
   11d8c:	e6d78793          	addi	a5,a5,-403 # 41c64e6d <__BSS_END__+0x41c4844d>
   11d90:	02f987b3          	mul	a5,s3,a5
   11d94:	4481                	li	s1,0
   11d96:	18018913          	addi	s2,gp,384 # 1c980 <__libc>
   11d9a:	4a65                	li	s4,25
   11d9c:	e43e                	sd	a5,8(sp)
   11d9e:	00893783          	ld	a5,8(s2)
   11da2:	97a6                	add	a5,a5,s1
   11da4:	6398                	ld	a4,0(a5)
   11da6:	eb15                	bnez	a4,11dda <__malloc_alloc_meta+0x70>
   11da8:	67a2                	ld	a5,8(sp)
   11daa:	e01c                	sd	a5,0(s0)
   11dac:	4785                	li	a5,1
   11dae:	c41c                	sw	a5,8(s0)
   11db0:	01043983          	ld	s3,16(s0)
   11db4:	0e098b63          	beqz	s3,11eaa <__malloc_alloc_meta+0x140>
   11db8:	0089b783          	ld	a5,8(s3)
   11dbc:	02f98963          	beq	s3,a5,11dee <__malloc_alloc_meta+0x84>
   11dc0:	0009b703          	ld	a4,0(s3)
   11dc4:	e71c                	sd	a5,8(a4)
   11dc6:	e398                	sd	a4,0(a5)
   11dc8:	6818                	ld	a4,16(s0)
   11dca:	00e99363          	bne	s3,a4,11dd0 <__malloc_alloc_meta+0x66>
   11dce:	e81c                	sd	a5,16(s0)
   11dd0:	0009b423          	sd	zero,8(s3)
   11dd4:	0009b023          	sd	zero,0(s3)
   11dd8:	a071                	j	11e64 <__malloc_alloc_meta+0xfa>
   11dda:	01471863          	bne	a4,s4,11dea <__malloc_alloc_meta+0x80>
   11dde:	678c                	ld	a1,8(a5)
   11de0:	4621                	li	a2,8
   11de2:	854e                	mv	a0,s3
   11de4:	05a1                	addi	a1,a1,8
   11de6:	62e010ef          	jal	ra,13414 <memcpy>
   11dea:	04c1                	addi	s1,s1,16
   11dec:	bf4d                	j	11d9e <__malloc_alloc_meta+0x34>
   11dee:	00043823          	sd	zero,16(s0)
   11df2:	bff9                	j	11dd0 <__malloc_alloc_meta+0x66>
   11df4:	0d600893          	li	a7,214
   11df8:	4501                	li	a0,0
   11dfa:	00000073          	ecall
   11dfe:	40a00933          	neg	s2,a0
   11e02:	fff48793          	addi	a5,s1,-1
   11e06:	00f97933          	and	s2,s2,a5
   11e0a:	954a                	add	a0,a0,s2
   11e0c:	00149913          	slli	s2,s1,0x1
   11e10:	38a43c23          	sd	a0,920(s0)
   11e14:	992a                	add	s2,s2,a0
   11e16:	4785                	li	a5,1
   11e18:	a86d                	j	11ed2 <__malloc_alloc_meta+0x168>
   11e1a:	cb99                	beqz	a5,11e30 <__malloc_alloc_meta+0xc6>
   11e1c:	39843503          	ld	a0,920(s0)
   11e20:	4781                	li	a5,0
   11e22:	577d                	li	a4,-1
   11e24:	03200693          	li	a3,50
   11e28:	4601                	li	a2,0
   11e2a:	85a6                	mv	a1,s1
   11e2c:	4cb000ef          	jal	ra,12af6 <__mmap>
   11e30:	39243c23          	sd	s2,920(s0)
   11e34:	00c4d793          	srli	a5,s1,0xc
   11e38:	40990933          	sub	s2,s2,s1
   11e3c:	05243423          	sd	s2,72(s0)
   11e40:	f41c                	sd	a5,40(s0)
   11e42:	4a01                	li	s4,0
   11e44:	a055                	j	11ee8 <__malloc_alloc_meta+0x17e>
   11e46:	0e0a0763          	beqz	s4,11f34 <__malloc_alloc_meta+0x1ca>
   11e4a:	460d                	li	a2,3
   11e4c:	85a6                	mv	a1,s1
   11e4e:	854a                	mv	a0,s2
   11e50:	525000ef          	jal	ra,12b74 <__mprotect>
   11e54:	c165                	beqz	a0,11f34 <__malloc_alloc_meta+0x1ca>
   11e56:	916ff0ef          	jal	ra,10f6c <__errno_location>
   11e5a:	4118                	lw	a4,0(a0)
   11e5c:	02600793          	li	a5,38
   11e60:	0cf70a63          	beq	a4,a5,11f34 <__malloc_alloc_meta+0x1ca>
   11e64:	70e2                	ld	ra,56(sp)
   11e66:	7442                	ld	s0,48(sp)
   11e68:	74a2                	ld	s1,40(sp)
   11e6a:	7902                	ld	s2,32(sp)
   11e6c:	6a42                	ld	s4,16(sp)
   11e6e:	854e                	mv	a0,s3
   11e70:	69e2                	ld	s3,24(sp)
   11e72:	6121                	addi	sp,sp,64
   11e74:	8082                	ret
   11e76:	0127b423          	sd	s2,8(a5)
   11e7a:	601c                	ld	a5,0(s0)
   11e7c:	05243023          	sd	s2,64(s0)
   11e80:	0961                	addi	s2,s2,24
   11e82:	fef93423          	sd	a5,-24(s2)
   11e86:	06500793          	li	a5,101
   11e8a:	fef92c23          	sw	a5,-8(s2)
   11e8e:	06500793          	li	a5,101
   11e92:	f01c                	sd	a5,32(s0)
   11e94:	01243c23          	sd	s2,24(s0)
   11e98:	701c                	ld	a5,32(s0)
   11e9a:	01843983          	ld	s3,24(s0)
   11e9e:	17fd                	addi	a5,a5,-1
   11ea0:	f01c                	sd	a5,32(s0)
   11ea2:	02898793          	addi	a5,s3,40
   11ea6:	ec1c                	sd	a5,24(s0)
   11ea8:	b725                	j	11dd0 <__malloc_alloc_meta+0x66>
   11eaa:	701c                	ld	a5,32(s0)
   11eac:	f7f5                	bnez	a5,11e98 <__malloc_alloc_meta+0x12e>
   11eae:	1b01b483          	ld	s1,432(gp) # 1c9b0 <__libc+0x30>
   11eb2:	6785                	lui	a5,0x1
   11eb4:	00f4f363          	bgeu	s1,a5,11eba <__malloc_alloc_meta+0x150>
   11eb8:	6485                	lui	s1,0x1
   11eba:	741c                	ld	a5,40(s0)
   11ebc:	4a05                	li	s4,1
   11ebe:	e78d                	bnez	a5,11ee8 <__malloc_alloc_meta+0x17e>
   11ec0:	39843903          	ld	s2,920(s0)
   11ec4:	57fd                	li	a5,-1
   11ec6:	02f90163          	beq	s2,a5,11ee8 <__malloc_alloc_meta+0x17e>
   11eca:	f20905e3          	beqz	s2,11df4 <__malloc_alloc_meta+0x8a>
   11ece:	9926                	add	s2,s2,s1
   11ed0:	4781                	li	a5,0
   11ed2:	0d600893          	li	a7,214
   11ed6:	854a                	mv	a0,s2
   11ed8:	00000073          	ecall
   11edc:	f2a90fe3          	beq	s2,a0,11e1a <__malloc_alloc_meta+0xb0>
   11ee0:	57fd                	li	a5,-1
   11ee2:	38f43c23          	sd	a5,920(s0)
   11ee6:	4a05                	li	s4,1
   11ee8:	741c                	ld	a5,40(s0)
   11eea:	ef95                	bnez	a5,11f26 <__malloc_alloc_meta+0x1bc>
   11eec:	781c                	ld	a5,48(s0)
   11eee:	4909                	li	s2,2
   11ef0:	577d                	li	a4,-1
   11ef2:	00f91933          	sll	s2,s2,a5
   11ef6:	032485b3          	mul	a1,s1,s2
   11efa:	4781                	li	a5,0
   11efc:	02200693          	li	a3,34
   11f00:	4601                	li	a2,0
   11f02:	4501                	li	a0,0
   11f04:	3f3000ef          	jal	ra,12af6 <__mmap>
   11f08:	57fd                	li	a5,-1
   11f0a:	f4f50de3          	beq	a0,a5,11e64 <__malloc_alloc_meta+0xfa>
   11f0e:	00c4d793          	srli	a5,s1,0xc
   11f12:	197d                	addi	s2,s2,-1
   11f14:	02f90933          	mul	s2,s2,a5
   11f18:	781c                	ld	a5,48(s0)
   11f1a:	9526                	add	a0,a0,s1
   11f1c:	e428                	sd	a0,72(s0)
   11f1e:	0785                	addi	a5,a5,1
   11f20:	f81c                	sd	a5,48(s0)
   11f22:	03243423          	sd	s2,40(s0)
   11f26:	04843903          	ld	s2,72(s0)
   11f2a:	fff48793          	addi	a5,s1,-1 # fff <exit-0xf121>
   11f2e:	00f977b3          	and	a5,s2,a5
   11f32:	db91                	beqz	a5,11e46 <__malloc_alloc_meta+0xdc>
   11f34:	741c                	ld	a5,40(s0)
   11f36:	17fd                	addi	a5,a5,-1
   11f38:	f41c                	sd	a5,40(s0)
   11f3a:	6785                	lui	a5,0x1
   11f3c:	97ca                	add	a5,a5,s2
   11f3e:	e43c                	sd	a5,72(s0)
   11f40:	603c                	ld	a5,64(s0)
   11f42:	fb95                	bnez	a5,11e76 <__malloc_alloc_meta+0x10c>
   11f44:	03243c23          	sd	s2,56(s0)
   11f48:	bf0d                	j	11e7a <__malloc_alloc_meta+0x110>

0000000000011f4a <alloc_slot>:
   11f4a:	7119                	addi	sp,sp,-128
   11f4c:	ecce                	sd	s3,88(sp)
   11f4e:	e8d2                	sd	s4,80(sp)
   11f50:	00a50993          	addi	s3,a0,10
   11f54:	bd818713          	addi	a4,gp,-1064 # 1c3d8 <__malloc_context>
   11f58:	00399793          	slli	a5,s3,0x3
   11f5c:	973e                	add	a4,a4,a5
   11f5e:	631c                	ld	a5,0(a4)
   11f60:	f0ca                	sd	s2,96(sp)
   11f62:	e0da                	sd	s6,64(sp)
   11f64:	fc86                	sd	ra,120(sp)
   11f66:	f8a2                	sd	s0,112(sp)
   11f68:	f4a6                	sd	s1,104(sp)
   11f6a:	e4d6                	sd	s5,72(sp)
   11f6c:	fc5e                	sd	s7,56(sp)
   11f6e:	f862                	sd	s8,48(sp)
   11f70:	f466                	sd	s9,40(sp)
   11f72:	f06a                	sd	s10,32(sp)
   11f74:	ec6e                	sd	s11,24(sp)
   11f76:	892a                	mv	s2,a0
   11f78:	8b2e                	mv	s6,a1
   11f7a:	bd818a13          	addi	s4,gp,-1064 # 1c3d8 <__malloc_context>
   11f7e:	cb9d                	beqz	a5,11fb4 <alloc_slot+0x6a>
   11f80:	4f94                	lw	a3,24(a5)
   11f82:	2681                	sext.w	a3,a3
   11f84:	2e069763          	bnez	a3,12272 <alloc_slot+0x328>
   11f88:	4fd0                	lw	a2,28(a5)
   11f8a:	6794                	ld	a3,8(a5)
   11f8c:	2601                	sext.w	a2,a2
   11f8e:	1c061363          	bnez	a2,12154 <alloc_slot+0x20a>
   11f92:	1ad78e63          	beq	a5,a3,1214e <alloc_slot+0x204>
   11f96:	6390                	ld	a2,0(a5)
   11f98:	e614                	sd	a3,8(a2)
   11f9a:	6794                	ld	a3,8(a5)
   11f9c:	e290                	sd	a2,0(a3)
   11f9e:	e314                	sd	a3,0(a4)
   11fa0:	0007b023          	sd	zero,0(a5) # 1000 <exit-0xf120>
   11fa4:	0007b423          	sd	zero,8(a5)
   11fa8:	00399793          	slli	a5,s3,0x3
   11fac:	97d2                	add	a5,a5,s4
   11fae:	6394                	ld	a3,0(a5)
   11fb0:	1a069363          	bnez	a3,12156 <alloc_slot+0x20c>
   11fb4:	6de5                	lui	s11,0x19
   11fb6:	6f0d8793          	addi	a5,s11,1776 # 196f0 <__malloc_size_classes>
   11fba:	00191713          	slli	a4,s2,0x1
   11fbe:	97ba                	add	a5,a5,a4
   11fc0:	0007d783          	lhu	a5,0(a5)
   11fc4:	6f0d8d93          	addi	s11,s11,1776
   11fc8:	00479c1b          	slliw	s8,a5,0x4
   11fcc:	d9fff0ef          	jal	ra,11d6a <__malloc_alloc_meta>
   11fd0:	84aa                	mv	s1,a0
   11fd2:	557d                	li	a0,-1
   11fd4:	2c048963          	beqz	s1,122a6 <alloc_slot+0x35c>
   11fd8:	03a90b93          	addi	s7,s2,58
   11fdc:	003b9793          	slli	a5,s7,0x3
   11fe0:	97d2                	add	a5,a5,s4
   11fe2:	0007bd03          	ld	s10,0(a5)
   11fe6:	1b01bc83          	ld	s9,432(gp) # 1c9b0 <__libc+0x30>
   11fea:	47a1                	li	a5,8
   11fec:	2d27cc63          	blt	a5,s2,122c4 <alloc_slot+0x37a>
   11ff0:	470d                	li	a4,3
   11ff2:	02e90733          	mul	a4,s2,a4
   11ff6:	67e5                	lui	a5,0x19
   11ff8:	77078693          	addi	a3,a5,1904 # 19770 <small_cnt_tab>
   11ffc:	77078793          	addi	a5,a5,1904
   12000:	96ba                	add	a3,a3,a4
   12002:	0006c603          	lbu	a2,0(a3)
   12006:	4701                	li	a4,0
   12008:	0026161b          	slliw	a2,a2,0x2
   1200c:	00cd7963          	bgeu	s10,a2,1201e <alloc_slot+0xd4>
   12010:	0016c703          	lbu	a4,1(a3)
   12014:	0027171b          	slliw	a4,a4,0x2
   12018:	00ed3733          	sltu	a4,s10,a4
   1201c:	0705                	addi	a4,a4,1
   1201e:	468d                	li	a3,3
   12020:	02d906b3          	mul	a3,s2,a3
   12024:	97b6                	add	a5,a5,a3
   12026:	97ba                	add	a5,a5,a4
   12028:	0007c403          	lbu	s0,0(a5)
   1202c:	4705                	li	a4,1
   1202e:	001cd793          	srli	a5,s9,0x1
   12032:	00e41763          	bne	s0,a4,12040 <alloc_slot+0xf6>
   12036:	010c0713          	addi	a4,s8,16
   1203a:	00e7e363          	bltu	a5,a4,12040 <alloc_slot+0xf6>
   1203e:	4409                	li	s0,2
   12040:	03840ab3          	mul	s5,s0,s8
   12044:	010a8713          	addi	a4,s5,16
   12048:	38e7fa63          	bgeu	a5,a4,123dc <alloc_slot+0x492>
   1204c:	ff99079b          	addiw	a5,s2,-7
   12050:	477d                	li	a4,31
   12052:	4d81                	li	s11,0
   12054:	02f76a63          	bltu	a4,a5,12088 <alloc_slot+0x13e>
   12058:	97d2                	add	a5,a5,s4
   1205a:	3707c703          	lbu	a4,880(a5)
   1205e:	3507c683          	lbu	a3,848(a5)
   12062:	06300d93          	li	s11,99
   12066:	00edbdb3          	sltu	s11,s11,a4
   1206a:	8636                	mv	a2,a3
   1206c:	ce91                	beqz	a3,12088 <alloc_slot+0x13e>
   1206e:	390a4683          	lbu	a3,912(s4)
   12072:	9e91                	subw	a3,a3,a2
   12074:	4625                	li	a2,9
   12076:	00d64963          	blt	a2,a3,12088 <alloc_slot+0x13e>
   1207a:	06200693          	li	a3,98
   1207e:	26e6ed63          	bltu	a3,a4,122f8 <alloc_slot+0x3ae>
   12082:	2705                	addiw	a4,a4,1
   12084:	36e78823          	sb	a4,880(a5)
   12088:	bf7ff0ef          	jal	ra,11c7e <step_seq>
   1208c:	00197793          	andi	a5,s2,1
   12090:	ef81                	bnez	a5,120a8 <alloc_slot+0x15e>
   12092:	47fd                	li	a5,31
   12094:	0127ca63          	blt	a5,s2,120a8 <alloc_slot+0x15e>
   12098:	0019079b          	addiw	a5,s2,1
   1209c:	03a78793          	addi	a5,a5,58
   120a0:	078e                	slli	a5,a5,0x3
   120a2:	97d2                	add	a5,a5,s4
   120a4:	639c                	ld	a5,0(a5)
   120a6:	9d3e                	add	s10,s10,a5
   120a8:	0024179b          	slliw	a5,s0,0x2
   120ac:	00fd7d63          	bgeu	s10,a5,120c6 <alloc_slot+0x17c>
   120b0:	000d9b63          	bnez	s11,120c6 <alloc_slot+0x17c>
   120b4:	00397793          	andi	a5,s2,3
   120b8:	4705                	li	a4,1
   120ba:	24e79263          	bne	a5,a4,122fe <alloc_slot+0x3b4>
   120be:	003c9793          	slli	a5,s9,0x3
   120c2:	2757e363          	bltu	a5,s5,12328 <alloc_slot+0x3de>
   120c6:	038405b3          	mul	a1,s0,s8
   120ca:	5ac1                	li	s5,-16
   120cc:	fffc8793          	addi	a5,s9,-1
   120d0:	40ba8ab3          	sub	s5,s5,a1
   120d4:	01058713          	addi	a4,a1,16
   120d8:	00fafab3          	and	s5,s5,a5
   120dc:	9aba                	add	s5,s5,a4
   120de:	020d9b63          	bnez	s11,12114 <alloc_slot+0x1ca>
   120e2:	471d                	li	a4,7
   120e4:	02874863          	blt	a4,s0,12114 <alloc_slot+0x1ca>
   120e8:	55b1                	li	a1,-20
   120ea:	014b0713          	addi	a4,s6,20
   120ee:	41658b33          	sub	s6,a1,s6
   120f2:	00fb7b33          	and	s6,s6,a5
   120f6:	9b3a                	add	s6,s6,a4
   120f8:	010c0793          	addi	a5,s8,16
   120fc:	00fb6a63          	bltu	s6,a5,12110 <alloc_slot+0x1c6>
   12100:	002c9793          	slli	a5,s9,0x2
   12104:	00fb6863          	bltu	s6,a5,12114 <alloc_slot+0x1ca>
   12108:	00141793          	slli	a5,s0,0x1
   1210c:	00fd7463          	bgeu	s10,a5,12114 <alloc_slot+0x1ca>
   12110:	8ada                	mv	s5,s6
   12112:	4405                	li	s0,1
   12114:	4781                	li	a5,0
   12116:	577d                	li	a4,-1
   12118:	02200693          	li	a3,34
   1211c:	460d                	li	a2,3
   1211e:	85d6                	mv	a1,s5
   12120:	4501                	li	a0,0
   12122:	1d5000ef          	jal	ra,12af6 <__mmap>
   12126:	57fd                	li	a5,-1
   12128:	20f51263          	bne	a0,a5,1232c <alloc_slot+0x3e2>
   1212c:	010a0513          	addi	a0,s4,16
   12130:	0004b023          	sd	zero,0(s1)
   12134:	0004b423          	sd	zero,8(s1)
   12138:	0004b823          	sd	zero,16(s1)
   1213c:	0004bc23          	sd	zero,24(s1)
   12140:	0204b023          	sd	zero,32(s1)
   12144:	85a6                	mv	a1,s1
   12146:	9d7ff0ef          	jal	ra,11b1c <queue>
   1214a:	557d                	li	a0,-1
   1214c:	aaa9                	j	122a6 <alloc_slot+0x35c>
   1214e:	00073023          	sd	zero,0(a4)
   12152:	b5b9                	j	11fa0 <alloc_slot+0x56>
   12154:	e314                	sd	a3,0(a4)
   12156:	7290                	ld	a2,32(a3)
   12158:	4edc                	lw	a5,28(a3)
   1215a:	4709                	li	a4,2
   1215c:	00c7173b          	sllw	a4,a4,a2
   12160:	2781                	sext.w	a5,a5
   12162:	377d                	addiw	a4,a4,-1
   12164:	00f71c63          	bne	a4,a5,1217c <alloc_slot+0x232>
   12168:	02067613          	andi	a2,a2,32
   1216c:	ca01                	beqz	a2,1217c <alloc_slot+0x232>
   1216e:	6694                	ld	a3,8(a3)
   12170:	00399793          	slli	a5,s3,0x3
   12174:	97d2                	add	a5,a5,s4
   12176:	e394                	sd	a3,0(a5)
   12178:	4edc                	lw	a5,28(a3)
   1217a:	2781                	sext.w	a5,a5
   1217c:	6a8c                	ld	a1,16(a3)
   1217e:	4609                	li	a2,2
   12180:	6588                	ld	a0,8(a1)
   12182:	00a6163b          	sllw	a2,a2,a0
   12186:	367d                	addiw	a2,a2,-1
   12188:	8ff1                	and	a5,a5,a2
   1218a:	0007861b          	sext.w	a2,a5
   1218e:	01f57713          	andi	a4,a0,31
   12192:	87b6                	mv	a5,a3
   12194:	ea01                	bnez	a2,121a4 <alloc_slot+0x25a>
   12196:	669c                	ld	a5,8(a3)
   12198:	00f68c63          	beq	a3,a5,121b0 <alloc_slot+0x266>
   1219c:	00399713          	slli	a4,s3,0x3
   121a0:	9752                	add	a4,a4,s4
   121a2:	e31c                	sd	a5,0(a4)
   121a4:	4f98                	lw	a4,24(a5)
   121a6:	2701                	sext.w	a4,a4
   121a8:	c33d                	beqz	a4,1220e <alloc_slot+0x2c4>
   121aa:	00000023          	sb	zero,0(zero) # 0 <exit-0x10120>
   121ae:	9002                	ebreak
   121b0:	7394                	ld	a3,32(a5)
   121b2:	0027051b          	addiw	a0,a4,2
   121b6:	0056d613          	srli	a2,a3,0x5
   121ba:	07e67813          	andi	a6,a2,126
   121be:	6665                	lui	a2,0x19
   121c0:	6f060613          	addi	a2,a2,1776 # 196f0 <__malloc_size_classes>
   121c4:	9642                	add	a2,a2,a6
   121c6:	00065603          	lhu	a2,0(a2)
   121ca:	6805                	lui	a6,0x1
   121cc:	0046131b          	slliw	t1,a2,0x4
   121d0:	0265073b          	mulw	a4,a0,t1
   121d4:	2741                	addiw	a4,a4,16
   121d6:	00e308bb          	addw	a7,t1,a4
   121da:	fff8861b          	addiw	a2,a7,-1
   121de:	8f31                	xor	a4,a4,a2
   121e0:	2701                	sext.w	a4,a4
   121e2:	03074363          	blt	a4,a6,12208 <alloc_slot+0x2be>
   121e6:	01f6f713          	andi	a4,a3,31
   121ea:	0017069b          	addiw	a3,a4,1
   121ee:	8736                	mv	a4,a3
   121f0:	00d55363          	bge	a0,a3,121f6 <alloc_slot+0x2ac>
   121f4:	872a                	mv	a4,a0
   121f6:	0085c683          	lbu	a3,8(a1)
   121fa:	377d                	addiw	a4,a4,-1
   121fc:	8b7d                	andi	a4,a4,31
   121fe:	9a81                	andi	a3,a3,-32
   12200:	8f55                	or	a4,a4,a3
   12202:	00e58423          	sb	a4,8(a1)
   12206:	bf79                	j	121a4 <alloc_slot+0x25a>
   12208:	2505                	addiw	a0,a0,1
   1220a:	8746                	mv	a4,a7
   1220c:	b7e9                	j	121d6 <alloc_slot+0x28c>
   1220e:	6b98                	ld	a4,16(a5)
   12210:	01c78813          	addi	a6,a5,28
   12214:	6714                	ld	a3,8(a4)
   12216:	4709                	li	a4,2
   12218:	00d7173b          	sllw	a4,a4,a3
   1221c:	fff7069b          	addiw	a3,a4,-1
   12220:	40e0063b          	negw	a2,a4
   12224:	4fd8                	lw	a4,28(a5)
   12226:	0007051b          	sext.w	a0,a4
   1222a:	00c57733          	and	a4,a0,a2
   1222e:	88aa                	mv	a7,a0
   12230:	2701                	sext.w	a4,a4
   12232:	160825af          	lr.w.aqrl	a1,(a6)
   12236:	00a59663          	bne	a1,a0,12242 <alloc_slot+0x2f8>
   1223a:	1ee8232f          	sc.w.aqrl	t1,a4,(a6)
   1223e:	fe031ae3          	bnez	t1,12232 <alloc_slot+0x2e8>
   12242:	2581                	sext.w	a1,a1
   12244:	feb510e3          	bne	a0,a1,12224 <alloc_slot+0x2da>
   12248:	0116f733          	and	a4,a3,a7
   1224c:	0007069b          	sext.w	a3,a4
   12250:	cf94                	sw	a3,24(a5)
   12252:	dea1                	beqz	a3,121aa <alloc_slot+0x260>
   12254:	7398                	ld	a4,32(a5)
   12256:	467d                	li	a2,31
   12258:	8319                	srli	a4,a4,0x6
   1225a:	03f77713          	andi	a4,a4,63
   1225e:	3765                	addiw	a4,a4,-7
   12260:	00e66963          	bltu	a2,a4,12272 <alloc_slot+0x328>
   12264:	9752                	add	a4,a4,s4
   12266:	37074603          	lbu	a2,880(a4)
   1226a:	c601                	beqz	a2,12272 <alloc_slot+0x328>
   1226c:	367d                	addiw	a2,a2,-1
   1226e:	36c70823          	sb	a2,880(a4)
   12272:	40d0063b          	negw	a2,a3
   12276:	8e75                	and	a2,a2,a3
   12278:	9e91                	subw	a3,a3,a2
   1227a:	0006071b          	sext.w	a4,a2
   1227e:	cf94                	sw	a3,24(a5)
   12280:	d2070ae3          	beqz	a4,11fb4 <alloc_slot+0x6a>
   12284:	40e007bb          	negw	a5,a4
   12288:	8f7d                	and	a4,a4,a5
   1228a:	076be7b7          	lui	a5,0x76be
   1228e:	6297879b          	addiw	a5,a5,1577
   12292:	02f7073b          	mulw	a4,a4,a5
   12296:	67e5                	lui	a5,0x19
   12298:	75078793          	addi	a5,a5,1872 # 19750 <debruijn32.2704>
   1229c:	01b7571b          	srliw	a4,a4,0x1b
   122a0:	973e                	add	a4,a4,a5
   122a2:	00074503          	lbu	a0,0(a4)
   122a6:	70e6                	ld	ra,120(sp)
   122a8:	7446                	ld	s0,112(sp)
   122aa:	74a6                	ld	s1,104(sp)
   122ac:	7906                	ld	s2,96(sp)
   122ae:	69e6                	ld	s3,88(sp)
   122b0:	6a46                	ld	s4,80(sp)
   122b2:	6aa6                	ld	s5,72(sp)
   122b4:	6b06                	ld	s6,64(sp)
   122b6:	7be2                	ld	s7,56(sp)
   122b8:	7c42                	ld	s8,48(sp)
   122ba:	7ca2                	ld	s9,40(sp)
   122bc:	7d02                	ld	s10,32(sp)
   122be:	6de2                	ld	s11,24(sp)
   122c0:	6109                	addi	sp,sp,128
   122c2:	8082                	ret
   122c4:	6769                	lui	a4,0x1a
   122c6:	00397793          	andi	a5,s2,3
   122ca:	21070713          	addi	a4,a4,528 # 1a210 <med_cnt_tab>
   122ce:	97ba                	add	a5,a5,a4
   122d0:	0007c403          	lbu	s0,0(a5)
   122d4:	00147793          	andi	a5,s0,1
   122d8:	e789                	bnez	a5,122e2 <alloc_slot+0x398>
   122da:	0024179b          	slliw	a5,s0,0x2
   122de:	00fd6563          	bltu	s10,a5,122e8 <alloc_slot+0x39e>
   122e2:	001007b7          	lui	a5,0x100
   122e6:	a021                	j	122ee <alloc_slot+0x3a4>
   122e8:	8405                	srai	s0,s0,0x1
   122ea:	b7ed                	j	122d4 <alloc_slot+0x38a>
   122ec:	8405                	srai	s0,s0,0x1
   122ee:	03840733          	mul	a4,s0,s8
   122f2:	fef77de3          	bgeu	a4,a5,122ec <alloc_slot+0x3a2>
   122f6:	bb1d                	j	1202c <alloc_slot+0xe2>
   122f8:	f9600713          	li	a4,-106
   122fc:	b361                	j	12084 <alloc_slot+0x13a>
   122fe:	4709                	li	a4,2
   12300:	00e79863          	bne	a5,a4,12310 <alloc_slot+0x3c6>
   12304:	002c9793          	slli	a5,s9,0x2
   12308:	db57ffe3          	bgeu	a5,s5,120c6 <alloc_slot+0x17c>
   1230c:	440d                	li	s0,3
   1230e:	bb65                	j	120c6 <alloc_slot+0x17c>
   12310:	da079be3          	bnez	a5,120c6 <alloc_slot+0x17c>
   12314:	003c9793          	slli	a5,s9,0x3
   12318:	ff57eae3          	bltu	a5,s5,1230c <alloc_slot+0x3c2>
   1231c:	001c9793          	slli	a5,s9,0x1
   12320:	db57f3e3          	bgeu	a5,s5,120c6 <alloc_slot+0x17c>
   12324:	4415                	li	s0,5
   12326:	b345                	j	120c6 <alloc_slot+0x17c>
   12328:	4409                	li	s0,2
   1232a:	bb71                	j	120c6 <alloc_slot+0x17c>
   1232c:	6785                	lui	a5,0x1
   1232e:	fff78713          	addi	a4,a5,-1 # fff <exit-0xf121>
   12332:	17c1                	addi	a5,a5,-16
   12334:	0387d7b3          	divu	a5,a5,s8
   12338:	708c                	ld	a1,32(s1)
   1233a:	00cada93          	srli	s5,s5,0xc
   1233e:	0ab2                	slli	s5,s5,0xc
   12340:	8df9                	and	a1,a1,a4
   12342:	0155eab3          	or	s5,a1,s5
   12346:	0354b023          	sd	s5,32(s1)
   1234a:	00ca2703          	lw	a4,12(s4)
   1234e:	2705                	addiw	a4,a4,1
   12350:	00ea2623          	sw	a4,12(s4)
   12354:	37fd                	addiw	a5,a5,-1
   12356:	0087c463          	blt	a5,s0,1235e <alloc_slot+0x414>
   1235a:	fff4079b          	addiw	a5,s0,-1
   1235e:	873e                	mv	a4,a5
   12360:	0007d363          	bgez	a5,12366 <alloc_slot+0x41c>
   12364:	4701                	li	a4,0
   12366:	0007079b          	sext.w	a5,a4
   1236a:	0b8e                	slli	s7,s7,0x3
   1236c:	9bd2                	add	s7,s7,s4
   1236e:	000bb703          	ld	a4,0(s7)
   12372:	4689                	li	a3,2
   12374:	03f97913          	andi	s2,s2,63
   12378:	9722                	add	a4,a4,s0
   1237a:	00ebb023          	sd	a4,0(s7)
   1237e:	00f6973b          	sllw	a4,a3,a5
   12382:	377d                	addiw	a4,a4,-1
   12384:	cc98                	sw	a4,24(s1)
   12386:	4c98                	lw	a4,24(s1)
   12388:	347d                	addiw	s0,s0,-1
   1238a:	008696bb          	sllw	a3,a3,s0
   1238e:	fff74713          	not	a4,a4
   12392:	9f35                	addw	a4,a4,a3
   12394:	ccd8                	sw	a4,28(s1)
   12396:	00854703          	lbu	a4,8(a0)
   1239a:	887d                	andi	s0,s0,31
   1239c:	091a                	slli	s2,s2,0x6
   1239e:	02046413          	ori	s0,s0,32
   123a2:	9b01                	andi	a4,a4,-32
   123a4:	00896433          	or	s0,s2,s0
   123a8:	8bfd                	andi	a5,a5,31
   123aa:	0204d903          	lhu	s2,32(s1)
   123ae:	e888                	sd	a0,16(s1)
   123b0:	8fd9                	or	a5,a5,a4
   123b2:	00f50423          	sb	a5,8(a0)
   123b6:	77fd                	lui	a5,0xfffff
   123b8:	00f97933          	and	s2,s2,a5
   123bc:	4c9c                	lw	a5,24(s1)
   123be:	e104                	sd	s1,0(a0)
   123c0:	01246433          	or	s0,s0,s2
   123c4:	37fd                	addiw	a5,a5,-1
   123c6:	00399513          	slli	a0,s3,0x3
   123ca:	9552                	add	a0,a0,s4
   123cc:	02849023          	sh	s0,32(s1)
   123d0:	cc9c                	sw	a5,24(s1)
   123d2:	85a6                	mv	a1,s1
   123d4:	f48ff0ef          	jal	ra,11b1c <queue>
   123d8:	4501                	li	a0,0
   123da:	b5f1                	j	122a6 <alloc_slot+0x35c>
   123dc:	00ca8593          	addi	a1,s5,12
   123e0:	852e                	mv	a0,a1
   123e2:	e42e                	sd	a1,8(sp)
   123e4:	8d1ff0ef          	jal	ra,11cb4 <size_to_class>
   123e8:	65a2                	ld	a1,8(sp)
   123ea:	8aaa                	mv	s5,a0
   123ec:	b5fff0ef          	jal	ra,11f4a <alloc_slot>
   123f0:	85aa                	mv	a1,a0
   123f2:	d2054de3          	bltz	a0,1212c <alloc_slot+0x1e2>
   123f6:	001a9793          	slli	a5,s5,0x1
   123fa:	9dbe                	add	s11,s11,a5
   123fc:	0aa9                	addi	s5,s5,10
   123fe:	000dd603          	lhu	a2,0(s11)
   12402:	0a8e                	slli	s5,s5,0x3
   12404:	9ad2                	add	s5,s5,s4
   12406:	00ca2683          	lw	a3,12(s4)
   1240a:	000ab503          	ld	a0,0(s5)
   1240e:	0046161b          	slliw	a2,a2,0x4
   12412:	3671                	addiw	a2,a2,-4
   12414:	f5eff0ef          	jal	ra,11b72 <enframe>
   12418:	709c                	ld	a5,32(s1)
   1241a:	00c50713          	addi	a4,a0,12
   1241e:	17d2                	slli	a5,a5,0x34
   12420:	93d1                	srli	a5,a5,0x34
   12422:	f09c                	sd	a5,32(s1)
   12424:	ffd54783          	lbu	a5,-3(a0)
   12428:	8bfd                	andi	a5,a5,31
   1242a:	fc07e793          	ori	a5,a5,-64
   1242e:	fef50ea3          	sb	a5,-3(a0)
   12432:	4781                	li	a5,0
   12434:	00070023          	sb	zero,0(a4)
   12438:	2785                	addiw	a5,a5,1
   1243a:	9762                	add	a4,a4,s8
   1243c:	fef45ce3          	bge	s0,a5,12434 <alloc_slot+0x4ea>
   12440:	fff4079b          	addiw	a5,s0,-1
   12444:	b71d                	j	1236a <alloc_slot+0x420>

0000000000012446 <__libc_malloc_impl>:
   12446:	77f9                	lui	a5,0xffffe
   12448:	7139                	addi	sp,sp,-64
   1244a:	17f5                	addi	a5,a5,-3
   1244c:	fc06                	sd	ra,56(sp)
   1244e:	f822                	sd	s0,48(sp)
   12450:	f426                	sd	s1,40(sp)
   12452:	f04a                	sd	s2,32(sp)
   12454:	ec4e                	sd	s3,24(sp)
   12456:	8385                	srli	a5,a5,0x1
   12458:	0ca7e763          	bltu	a5,a0,12526 <__libc_malloc_impl+0xe0>
   1245c:	000207b7          	lui	a5,0x20
   12460:	17ad                	addi	a5,a5,-21
   12462:	892a                	mv	s2,a0
   12464:	0ca7ed63          	bltu	a5,a0,1253e <__libc_malloc_impl+0xf8>
   12468:	84dff0ef          	jal	ra,11cb4 <size_to_class>
   1246c:	84aa                	mv	s1,a0
   1246e:	ff4ff0ef          	jal	ra,11c62 <rdlock>
   12472:	00a48713          	addi	a4,s1,10
   12476:	bd818793          	addi	a5,gp,-1064 # 1c3d8 <__malloc_context>
   1247a:	070e                	slli	a4,a4,0x3
   1247c:	97ba                	add	a5,a5,a4
   1247e:	6380                	ld	s0,0(a5)
   12480:	bd818993          	addi	s3,gp,-1064 # 1c3d8 <__malloc_context>
   12484:	e42d                	bnez	s0,124ee <__libc_malloc_impl+0xa8>
   12486:	ffc4879b          	addiw	a5,s1,-4
   1248a:	46ed                	li	a3,27
   1248c:	4701                	li	a4,0
   1248e:	06f6e263          	bltu	a3,a5,124f2 <__libc_malloc_impl+0xac>
   12492:	4799                	li	a5,6
   12494:	8722                	mv	a4,s0
   12496:	04f48e63          	beq	s1,a5,124f2 <__libc_malloc_impl+0xac>
   1249a:	0014f693          	andi	a3,s1,1
   1249e:	eab1                	bnez	a3,124f2 <__libc_malloc_impl+0xac>
   124a0:	03a48793          	addi	a5,s1,58
   124a4:	078e                	slli	a5,a5,0x3
   124a6:	97ce                	add	a5,a5,s3
   124a8:	639c                	ld	a5,0(a5)
   124aa:	8736                	mv	a4,a3
   124ac:	e3b9                	bnez	a5,124f2 <__libc_malloc_impl+0xac>
   124ae:	0014e793          	ori	a5,s1,1
   124b2:	2781                	sext.w	a5,a5
   124b4:	03a78713          	addi	a4,a5,58 # 2003a <__BSS_END__+0x361a>
   124b8:	070e                	slli	a4,a4,0x3
   124ba:	974e                	add	a4,a4,s3
   124bc:	6314                	ld	a3,0(a4)
   124be:	00a78713          	addi	a4,a5,10
   124c2:	070e                	slli	a4,a4,0x3
   124c4:	974e                	add	a4,a4,s3
   124c6:	6318                	ld	a4,0(a4)
   124c8:	c719                	beqz	a4,124d6 <__libc_malloc_impl+0x90>
   124ca:	4f10                	lw	a2,24(a4)
   124cc:	2601                	sext.w	a2,a2
   124ce:	e609                	bnez	a2,124d8 <__libc_malloc_impl+0x92>
   124d0:	4f58                	lw	a4,28(a4)
   124d2:	2701                	sext.w	a4,a4
   124d4:	e311                	bnez	a4,124d8 <__libc_malloc_impl+0x92>
   124d6:	068d                	addi	a3,a3,3
   124d8:	4731                	li	a4,12
   124da:	00d76363          	bltu	a4,a3,124e0 <__libc_malloc_impl+0x9a>
   124de:	84be                	mv	s1,a5
   124e0:	00a48793          	addi	a5,s1,10
   124e4:	078e                	slli	a5,a5,0x3
   124e6:	97ce                	add	a5,a5,s3
   124e8:	6380                	ld	s0,0(a5)
   124ea:	4701                	li	a4,0
   124ec:	c019                	beqz	s0,124f2 <__libc_malloc_impl+0xac>
   124ee:	4c18                	lw	a4,24(s0)
   124f0:	2701                	sext.w	a4,a4
   124f2:	40e007bb          	negw	a5,a4
   124f6:	8ff9                	and	a5,a5,a4
   124f8:	2781                	sext.w	a5,a5
   124fa:	0c078b63          	beqz	a5,125d0 <__libc_malloc_impl+0x18a>
   124fe:	9f1d                	subw	a4,a4,a5
   12500:	cc18                	sw	a4,24(s0)
   12502:	40f0073b          	negw	a4,a5
   12506:	8ff9                	and	a5,a5,a4
   12508:	076be737          	lui	a4,0x76be
   1250c:	6297071b          	addiw	a4,a4,1577
   12510:	02e787bb          	mulw	a5,a5,a4
   12514:	6765                	lui	a4,0x19
   12516:	75070713          	addi	a4,a4,1872 # 19750 <debruijn32.2704>
   1251a:	01b7d79b          	srliw	a5,a5,0x1b
   1251e:	97ba                	add	a5,a5,a4
   12520:	0007c583          	lbu	a1,0(a5)
   12524:	a051                	j	125a8 <__libc_malloc_impl+0x162>
   12526:	a47fe0ef          	jal	ra,10f6c <__errno_location>
   1252a:	47b1                	li	a5,12
   1252c:	c11c                	sw	a5,0(a0)
   1252e:	70e2                	ld	ra,56(sp)
   12530:	7442                	ld	s0,48(sp)
   12532:	74a2                	ld	s1,40(sp)
   12534:	7902                	ld	s2,32(sp)
   12536:	69e2                	ld	s3,24(sp)
   12538:	4501                	li	a0,0
   1253a:	6121                	addi	sp,sp,64
   1253c:	8082                	ret
   1253e:	01450993          	addi	s3,a0,20
   12542:	4781                	li	a5,0
   12544:	577d                	li	a4,-1
   12546:	02200693          	li	a3,34
   1254a:	460d                	li	a2,3
   1254c:	85ce                	mv	a1,s3
   1254e:	4501                	li	a0,0
   12550:	5a6000ef          	jal	ra,12af6 <__mmap>
   12554:	57fd                	li	a5,-1
   12556:	84aa                	mv	s1,a0
   12558:	fcf50be3          	beq	a0,a5,1252e <__libc_malloc_impl+0xe8>
   1255c:	f06ff0ef          	jal	ra,11c62 <rdlock>
   12560:	f1eff0ef          	jal	ra,11c7e <step_seq>
   12564:	807ff0ef          	jal	ra,11d6a <__malloc_alloc_meta>
   12568:	842a                	mv	s0,a0
   1256a:	e911                	bnez	a0,1257e <__libc_malloc_impl+0x138>
   1256c:	1e818513          	addi	a0,gp,488 # 1c9e8 <__malloc_lock>
   12570:	60e010ef          	jal	ra,13b7e <__unlock>
   12574:	85ce                	mv	a1,s3
   12576:	8526                	mv	a0,s1
   12578:	62e000ef          	jal	ra,12ba6 <__munmap>
   1257c:	bf4d                	j	1252e <__libc_malloc_impl+0xe8>
   1257e:	6705                	lui	a4,0x1
   12580:	01370793          	addi	a5,a4,19 # 1013 <exit-0xf10d>
   12584:	97ca                	add	a5,a5,s2
   12586:	83b1                	srli	a5,a5,0xc
   12588:	1701                	addi	a4,a4,-32
   1258a:	e904                	sd	s1,16(a0)
   1258c:	07b2                	slli	a5,a5,0xc
   1258e:	e088                	sd	a0,0(s1)
   12590:	8fd9                	or	a5,a5,a4
   12592:	f11c                	sd	a5,32(a0)
   12594:	bd818793          	addi	a5,gp,-1064 # 1c3d8 <__malloc_context>
   12598:	47d8                	lw	a4,12(a5)
   1259a:	00052e23          	sw	zero,28(a0)
   1259e:	00052c23          	sw	zero,24(a0)
   125a2:	2705                	addiw	a4,a4,1
   125a4:	c7d8                	sw	a4,12(a5)
   125a6:	4581                	li	a1,0
   125a8:	be41a683          	lw	a3,-1052(gp) # 1c3e4 <__malloc_context+0xc>
   125ac:	1e818513          	addi	a0,gp,488 # 1c9e8 <__malloc_lock>
   125b0:	e42e                	sd	a1,8(sp)
   125b2:	e036                	sd	a3,0(sp)
   125b4:	5ca010ef          	jal	ra,13b7e <__unlock>
   125b8:	8522                	mv	a0,s0
   125ba:	7442                	ld	s0,48(sp)
   125bc:	6682                	ld	a3,0(sp)
   125be:	65a2                	ld	a1,8(sp)
   125c0:	70e2                	ld	ra,56(sp)
   125c2:	74a2                	ld	s1,40(sp)
   125c4:	69e2                	ld	s3,24(sp)
   125c6:	864a                	mv	a2,s2
   125c8:	7902                	ld	s2,32(sp)
   125ca:	6121                	addi	sp,sp,64
   125cc:	da6ff06f          	j	11b72 <enframe>
   125d0:	85ca                	mv	a1,s2
   125d2:	8526                	mv	a0,s1
   125d4:	977ff0ef          	jal	ra,11f4a <alloc_slot>
   125d8:	85aa                	mv	a1,a0
   125da:	00055763          	bgez	a0,125e8 <__libc_malloc_impl+0x1a2>
   125de:	1e818513          	addi	a0,gp,488 # 1c9e8 <__malloc_lock>
   125e2:	59c010ef          	jal	ra,13b7e <__unlock>
   125e6:	b7a1                	j	1252e <__libc_malloc_impl+0xe8>
   125e8:	04a9                	addi	s1,s1,10
   125ea:	048e                	slli	s1,s1,0x3
   125ec:	94ce                	add	s1,s1,s3
   125ee:	6080                	ld	s0,0(s1)
   125f0:	bf65                	j	125a8 <__libc_malloc_impl+0x162>

00000000000125f2 <__malloc_allzerop>:
   125f2:	00f57793          	andi	a5,a0,15
   125f6:	c781                	beqz	a5,125fe <__malloc_allzerop+0xc>
   125f8:	00000023          	sb	zero,0(zero) # 0 <exit-0x10120>
   125fc:	9002                	ebreak
   125fe:	ffd54603          	lbu	a2,-3(a0)
   12602:	ffc54783          	lbu	a5,-4(a0)
   12606:	ffe55703          	lhu	a4,-2(a0)
   1260a:	01f67813          	andi	a6,a2,31
   1260e:	8a7d                	andi	a2,a2,31
   12610:	cf89                	beqz	a5,1262a <__malloc_allzerop+0x38>
   12612:	c701                	beqz	a4,1261a <__malloc_allzerop+0x28>
   12614:	00000023          	sb	zero,0(zero) # 0 <exit-0x10120>
   12618:	9002                	ebreak
   1261a:	ff852703          	lw	a4,-8(a0)
   1261e:	67c1                	lui	a5,0x10
   12620:	00f75563          	bge	a4,a5,1262a <__malloc_allzerop+0x38>
   12624:	00000023          	sb	zero,0(zero) # 0 <exit-0x10120>
   12628:	9002                	ebreak
   1262a:	0047179b          	slliw	a5,a4,0x4
   1262e:	8d1d                	sub	a0,a0,a5
   12630:	ff053683          	ld	a3,-16(a0)
   12634:	ff050793          	addi	a5,a0,-16
   12638:	6a8c                	ld	a1,16(a3)
   1263a:	00b78563          	beq	a5,a1,12644 <__malloc_allzerop+0x52>
   1263e:	00000023          	sb	zero,0(zero) # 0 <exit-0x10120>
   12642:	9002                	ebreak
   12644:	729c                	ld	a5,32(a3)
   12646:	01f7f593          	andi	a1,a5,31
   1264a:	00c5d563          	bge	a1,a2,12654 <__malloc_allzerop+0x62>
   1264e:	00000023          	sb	zero,0(zero) # 0 <exit-0x10120>
   12652:	9002                	ebreak
   12654:	4e8c                	lw	a1,24(a3)
   12656:	00c5d5bb          	srlw	a1,a1,a2
   1265a:	8985                	andi	a1,a1,1
   1265c:	c581                	beqz	a1,12664 <__malloc_allzerop+0x72>
   1265e:	00000023          	sb	zero,0(zero) # 0 <exit-0x10120>
   12662:	9002                	ebreak
   12664:	4ecc                	lw	a1,28(a3)
   12666:	00c5d63b          	srlw	a2,a1,a2
   1266a:	8a05                	andi	a2,a2,1
   1266c:	c601                	beqz	a2,12674 <__malloc_allzerop+0x82>
   1266e:	00000023          	sb	zero,0(zero) # 0 <exit-0x10120>
   12672:	9002                	ebreak
   12674:	767d                	lui	a2,0xfffff
   12676:	8e75                	and	a2,a2,a3
   12678:	620c                	ld	a1,0(a2)
   1267a:	bd81b603          	ld	a2,-1064(gp) # 1c3d8 <__malloc_context>
   1267e:	00c58563          	beq	a1,a2,12688 <__malloc_allzerop+0x96>
   12682:	00000023          	sb	zero,0(zero) # 0 <exit-0x10120>
   12686:	9002                	ebreak
   12688:	1141                	addi	sp,sp,-16
   1268a:	e022                	sd	s0,0(sp)
   1268c:	0067d413          	srli	s0,a5,0x6
   12690:	e406                	sd	ra,8(sp)
   12692:	03f47413          	andi	s0,s0,63
   12696:	02f00613          	li	a2,47
   1269a:	02866763          	bltu	a2,s0,126c8 <__malloc_allzerop+0xd6>
   1269e:	65e5                	lui	a1,0x19
   126a0:	00141613          	slli	a2,s0,0x1
   126a4:	6f058593          	addi	a1,a1,1776 # 196f0 <__malloc_size_classes>
   126a8:	962e                	add	a2,a2,a1
   126aa:	00065603          	lhu	a2,0(a2) # fffffffffffff000 <__BSS_END__+0xfffffffffffe25e0>
   126ae:	02c8053b          	mulw	a0,a6,a2
   126b2:	00a75563          	bge	a4,a0,126bc <__malloc_allzerop+0xca>
   126b6:	00000023          	sb	zero,0(zero) # 0 <exit-0x10120>
   126ba:	9002                	ebreak
   126bc:	9e29                	addw	a2,a2,a0
   126be:	00c74f63          	blt	a4,a2,126dc <__malloc_allzerop+0xea>
   126c2:	00000023          	sb	zero,0(zero) # 0 <exit-0x10120>
   126c6:	9002                	ebreak
   126c8:	6605                	lui	a2,0x1
   126ca:	fc060613          	addi	a2,a2,-64 # fc0 <exit-0xf160>
   126ce:	00c7f5b3          	and	a1,a5,a2
   126d2:	00c58563          	beq	a1,a2,126dc <__malloc_allzerop+0xea>
   126d6:	00000023          	sb	zero,0(zero) # 0 <exit-0x10120>
   126da:	9002                	ebreak
   126dc:	767d                	lui	a2,0xfffff
   126de:	8e7d                	and	a2,a2,a5
   126e0:	ca09                	beqz	a2,126f2 <__malloc_allzerop+0x100>
   126e2:	83b1                	srli	a5,a5,0xc
   126e4:	07a2                	slli	a5,a5,0x8
   126e6:	17fd                	addi	a5,a5,-1
   126e8:	00e7f563          	bgeu	a5,a4,126f2 <__malloc_allzerop+0x100>
   126ec:	00000023          	sb	zero,0(zero) # 0 <exit-0x10120>
   126f0:	9002                	ebreak
   126f2:	02f00793          	li	a5,47
   126f6:	4505                	li	a0,1
   126f8:	0287e063          	bltu	a5,s0,12718 <__malloc_allzerop+0x126>
   126fc:	8536                	mv	a0,a3
   126fe:	c46ff0ef          	jal	ra,11b44 <get_stride>
   12702:	67e5                	lui	a5,0x19
   12704:	6f078793          	addi	a5,a5,1776 # 196f0 <__malloc_size_classes>
   12708:	0406                	slli	s0,s0,0x1
   1270a:	943e                	add	s0,s0,a5
   1270c:	00045783          	lhu	a5,0(s0)
   12710:	0047979b          	slliw	a5,a5,0x4
   12714:	00f53533          	sltu	a0,a0,a5
   12718:	60a2                	ld	ra,8(sp)
   1271a:	6402                	ld	s0,0(sp)
   1271c:	0141                	addi	sp,sp,16
   1271e:	8082                	ret

0000000000012720 <copysign>:
   12720:	22b50553          	fsgnj.d	fa0,fa0,fa1
   12724:	8082                	ret

0000000000012726 <copysignf>:
   12726:	20b50553          	fsgnj.s	fa0,fa0,fa1
   1272a:	8082                	ret

000000000001272c <scalbn>:
   1272c:	3ff00713          	li	a4,1023
   12730:	02a75b63          	bge	a4,a0,12766 <scalbn+0x3a>
   12734:	9081b787          	fld	fa5,-1784(gp) # 1c108 <__SDATA_BEGIN__>
   12738:	c015079b          	addiw	a5,a0,-1023
   1273c:	12f57553          	fmul.d	fa0,fa0,fa5
   12740:	00f75b63          	bge	a4,a5,12756 <scalbn+0x2a>
   12744:	8025069b          	addiw	a3,a0,-2046
   12748:	12f57553          	fmul.d	fa0,fa0,fa5
   1274c:	87b6                	mv	a5,a3
   1274e:	00d75463          	bge	a4,a3,12756 <scalbn+0x2a>
   12752:	3ff00793          	li	a5,1023
   12756:	3ff7879b          	addiw	a5,a5,1023
   1275a:	17d2                	slli	a5,a5,0x34
   1275c:	f20787d3          	fmv.d.x	fa5,a5
   12760:	12f57553          	fmul.d	fa0,fa0,fa5
   12764:	8082                	ret
   12766:	c0200713          	li	a4,-1022
   1276a:	87aa                	mv	a5,a0
   1276c:	fee555e3          	bge	a0,a4,12756 <scalbn+0x2a>
   12770:	9201b787          	fld	fa5,-1760(gp) # 1c120 <__SDATA_BEGIN__+0x18>
   12774:	3c95079b          	addiw	a5,a0,969
   12778:	12f57553          	fmul.d	fa0,fa0,fa5
   1277c:	fce7dde3          	bge	a5,a4,12756 <scalbn+0x2a>
   12780:	7925069b          	addiw	a3,a0,1938
   12784:	12f57553          	fmul.d	fa0,fa0,fa5
   12788:	87b6                	mv	a5,a3
   1278a:	fce6d6e3          	bge	a3,a4,12756 <scalbn+0x2a>
   1278e:	c0200793          	li	a5,-1022
   12792:	b7d1                	j	12756 <scalbn+0x2a>

0000000000012794 <__getopt_msg>:
   12794:	7139                	addi	sp,sp,-64
   12796:	e456                	sd	s5,8(sp)
   12798:	8aaa                	mv	s5,a0
   1279a:	852e                	mv	a0,a1
   1279c:	f822                	sd	s0,48(sp)
   1279e:	f426                	sd	s1,40(sp)
   127a0:	f04a                	sd	s2,32(sp)
   127a2:	ec4e                	sd	s3,24(sp)
   127a4:	e852                	sd	s4,16(sp)
   127a6:	fc06                	sd	ra,56(sp)
   127a8:	8a32                	mv	s4,a2
   127aa:	8936                	mv	s2,a3
   127ac:	6471                	lui	s0,0x1c
   127ae:	8ddfe0ef          	jal	ra,1108a <__lctrans_cur>
   127b2:	00040793          	mv	a5,s0
   127b6:	08c7a783          	lw	a5,140(a5)
   127ba:	89aa                	mv	s3,a0
   127bc:	4481                	li	s1,0
   127be:	02079713          	slli	a4,a5,0x20
   127c2:	00074763          	bltz	a4,127d0 <__getopt_msg+0x3c>
   127c6:	00040513          	mv	a0,s0
   127ca:	784000ef          	jal	ra,12f4e <__lockfile>
   127ce:	84aa                	mv	s1,a0
   127d0:	00040593          	mv	a1,s0
   127d4:	8556                	mv	a0,s5
   127d6:	05f000ef          	jal	ra,13034 <fputs>
   127da:	02054b63          	bltz	a0,12810 <__getopt_msg+0x7c>
   127de:	854e                	mv	a0,s3
   127e0:	20e010ef          	jal	ra,139ee <strlen>
   127e4:	85aa                	mv	a1,a0
   127e6:	00040693          	mv	a3,s0
   127ea:	4605                	li	a2,1
   127ec:	854e                	mv	a0,s3
   127ee:	117000ef          	jal	ra,13104 <fwrite>
   127f2:	cd19                	beqz	a0,12810 <__getopt_msg+0x7c>
   127f4:	00040693          	mv	a3,s0
   127f8:	864a                	mv	a2,s2
   127fa:	4585                	li	a1,1
   127fc:	8552                	mv	a0,s4
   127fe:	107000ef          	jal	ra,13104 <fwrite>
   12802:	01251763          	bne	a0,s2,12810 <__getopt_msg+0x7c>
   12806:	00040593          	mv	a1,s0
   1280a:	4529                	li	a0,10
   1280c:	211000ef          	jal	ra,1321c <putc>
   12810:	cc89                	beqz	s1,1282a <__getopt_msg+0x96>
   12812:	00040513          	mv	a0,s0
   12816:	7442                	ld	s0,48(sp)
   12818:	70e2                	ld	ra,56(sp)
   1281a:	74a2                	ld	s1,40(sp)
   1281c:	7902                	ld	s2,32(sp)
   1281e:	69e2                	ld	s3,24(sp)
   12820:	6a42                	ld	s4,16(sp)
   12822:	6aa2                	ld	s5,8(sp)
   12824:	6121                	addi	sp,sp,64
   12826:	7c40006f          	j	12fea <__unlockfile>
   1282a:	70e2                	ld	ra,56(sp)
   1282c:	7442                	ld	s0,48(sp)
   1282e:	74a2                	ld	s1,40(sp)
   12830:	7902                	ld	s2,32(sp)
   12832:	69e2                	ld	s3,24(sp)
   12834:	6a42                	ld	s4,16(sp)
   12836:	6aa2                	ld	s5,8(sp)
   12838:	6121                	addi	sp,sp,64
   1283a:	8082                	ret

000000000001283c <getopt>:
   1283c:	711d                	addi	sp,sp,-96
   1283e:	e8a2                	sd	s0,80(sp)
   12840:	9641a703          	lw	a4,-1692(gp) # 1c164 <optind>
   12844:	e4a6                	sd	s1,72(sp)
   12846:	f852                	sd	s4,48(sp)
   12848:	f456                	sd	s5,40(sp)
   1284a:	ec86                	sd	ra,88(sp)
   1284c:	e0ca                	sd	s2,64(sp)
   1284e:	fc4e                	sd	s3,56(sp)
   12850:	f05a                	sd	s6,32(sp)
   12852:	8aaa                	mv	s5,a0
   12854:	8a2e                	mv	s4,a1
   12856:	84b2                	mv	s1,a2
   12858:	96418413          	addi	s0,gp,-1692 # 1c164 <optind>
   1285c:	9b018793          	addi	a5,gp,-1616 # 1c1b0 <__optreset>
   12860:	c319                	beqz	a4,12866 <getopt+0x2a>
   12862:	4398                	lw	a4,0(a5)
   12864:	c719                	beqz	a4,12872 <getopt+0x36>
   12866:	0007a023          	sw	zero,0(a5)
   1286a:	2001a023          	sw	zero,512(gp) # 1ca00 <__optpos>
   1286e:	4785                	li	a5,1
   12870:	c01c                	sw	a5,0(s0)
   12872:	401c                	lw	a5,0(s0)
   12874:	557d                	li	a0,-1
   12876:	0357d663          	bge	a5,s5,128a2 <getopt+0x66>
   1287a:	00379713          	slli	a4,a5,0x3
   1287e:	9752                	add	a4,a4,s4
   12880:	6318                	ld	a4,0(a4)
   12882:	c305                	beqz	a4,128a2 <getopt+0x66>
   12884:	00074683          	lbu	a3,0(a4)
   12888:	02d00613          	li	a2,45
   1288c:	02c68563          	beq	a3,a2,128b6 <getopt+0x7a>
   12890:	0004c683          	lbu	a3,0(s1)
   12894:	00c69763          	bne	a3,a2,128a2 <getopt+0x66>
   12898:	2785                	addiw	a5,a5,1
   1289a:	c01c                	sw	a5,0(s0)
   1289c:	1ee1bc23          	sd	a4,504(gp) # 1c9f8 <optarg>
   128a0:	4505                	li	a0,1
   128a2:	60e6                	ld	ra,88(sp)
   128a4:	6446                	ld	s0,80(sp)
   128a6:	64a6                	ld	s1,72(sp)
   128a8:	6906                	ld	s2,64(sp)
   128aa:	79e2                	ld	s3,56(sp)
   128ac:	7a42                	ld	s4,48(sp)
   128ae:	7aa2                	ld	s5,40(sp)
   128b0:	7b02                	ld	s6,32(sp)
   128b2:	6125                	addi	sp,sp,96
   128b4:	8082                	ret
   128b6:	00174603          	lbu	a2,1(a4)
   128ba:	557d                	li	a0,-1
   128bc:	d27d                	beqz	a2,128a2 <getopt+0x66>
   128be:	00d61863          	bne	a2,a3,128ce <getopt+0x92>
   128c2:	00274683          	lbu	a3,2(a4)
   128c6:	e681                	bnez	a3,128ce <getopt+0x92>
   128c8:	2785                	addiw	a5,a5,1
   128ca:	c01c                	sw	a5,0(s0)
   128cc:	bfd9                	j	128a2 <getopt+0x66>
   128ce:	2001a783          	lw	a5,512(gp) # 1ca00 <__optpos>
   128d2:	e781                	bnez	a5,128da <getopt+0x9e>
   128d4:	4785                	li	a5,1
   128d6:	20f1a023          	sw	a5,512(gp) # 1ca00 <__optpos>
   128da:	2001a583          	lw	a1,512(gp) # 1ca00 <__optpos>
   128de:	4611                	li	a2,4
   128e0:	0828                	addi	a0,sp,24
   128e2:	95ba                	add	a1,a1,a4
   128e4:	2e6000ef          	jal	ra,12bca <mbtowc>
   128e8:	86aa                	mv	a3,a0
   128ea:	00055663          	bgez	a0,128f6 <getopt+0xba>
   128ee:	67c1                	lui	a5,0x10
   128f0:	37f5                	addiw	a5,a5,-3
   128f2:	cc3e                	sw	a5,24(sp)
   128f4:	4685                	li	a3,1
   128f6:	4018                	lw	a4,0(s0)
   128f8:	00371793          	slli	a5,a4,0x3
   128fc:	97d2                	add	a5,a5,s4
   128fe:	6390                	ld	a2,0(a5)
   12900:	2001a783          	lw	a5,512(gp) # 1ca00 <__optpos>
   12904:	00d785bb          	addw	a1,a5,a3
   12908:	00f60b33          	add	s6,a2,a5
   1290c:	20b1a023          	sw	a1,512(gp) # 1ca00 <__optpos>
   12910:	962e                	add	a2,a2,a1
   12912:	00064783          	lbu	a5,0(a2) # fffffffffffff000 <__BSS_END__+0xfffffffffffe25e0>
   12916:	e789                	bnez	a5,12920 <getopt+0xe4>
   12918:	2705                	addiw	a4,a4,1
   1291a:	c018                	sw	a4,0(s0)
   1291c:	2001a023          	sw	zero,512(gp) # 1ca00 <__optpos>
   12920:	0004c783          	lbu	a5,0(s1)
   12924:	fd57879b          	addiw	a5,a5,-43
   12928:	0fd7f793          	andi	a5,a5,253
   1292c:	e391                	bnez	a5,12930 <getopt+0xf4>
   1292e:	0485                	addi	s1,s1,1
   12930:	ce02                	sw	zero,28(sp)
   12932:	4981                	li	s3,0
   12934:	4611                	li	a2,4
   12936:	013485b3          	add	a1,s1,s3
   1293a:	0868                	addi	a0,sp,28
   1293c:	e436                	sd	a3,8(sp)
   1293e:	28c000ef          	jal	ra,12bca <mbtowc>
   12942:	47f2                	lw	a5,28(sp)
   12944:	66a2                	ld	a3,8(sp)
   12946:	00a05a63          	blez	a0,1295a <getopt+0x11e>
   1294a:	00a989bb          	addw	s3,s3,a0
   1294e:	4662                	lw	a2,24(sp)
   12950:	0007871b          	sext.w	a4,a5
   12954:	fec710e3          	bne	a4,a2,12934 <getopt+0xf8>
   12958:	a019                	j	1295e <getopt+0x122>
   1295a:	2985                	addiw	s3,s3,1
   1295c:	f96d                	bnez	a0,1294e <getopt+0x112>
   1295e:	4562                	lw	a0,24(sp)
   12960:	2781                	sext.w	a5,a5
   12962:	00a79663          	bne	a5,a0,1296e <getopt+0x132>
   12966:	03a00793          	li	a5,58
   1296a:	02f51963          	bne	a0,a5,1299c <getopt+0x160>
   1296e:	20a1a223          	sw	a0,516(gp) # 1ca04 <optopt>
   12972:	0004c703          	lbu	a4,0(s1)
   12976:	03a00793          	li	a5,58
   1297a:	00f71563          	bne	a4,a5,12984 <getopt+0x148>
   1297e:	03f00513          	li	a0,63
   12982:	b705                	j	128a2 <getopt+0x66>
   12984:	9601a783          	lw	a5,-1696(gp) # 1c160 <opterr>
   12988:	dbfd                	beqz	a5,1297e <getopt+0x142>
   1298a:	65e5                	lui	a1,0x19
   1298c:	865a                	mv	a2,s6
   1298e:	79058593          	addi	a1,a1,1936 # 19790 <small_cnt_tab+0x20>
   12992:	000a3503          	ld	a0,0(s4)
   12996:	dffff0ef          	jal	ra,12794 <__getopt_msg>
   1299a:	b7d5                	j	1297e <getopt+0x142>
   1299c:	99a6                	add	s3,s3,s1
   1299e:	0009c583          	lbu	a1,0(s3)
   129a2:	f0f590e3          	bne	a1,a5,128a2 <getopt+0x66>
   129a6:	1e01bc23          	sd	zero,504(gp) # 1c9f8 <optarg>
   129aa:	0019c803          	lbu	a6,1(s3)
   129ae:	2001a603          	lw	a2,512(gp) # 1ca00 <__optpos>
   129b2:	873e                	mv	a4,a5
   129b4:	00b81363          	bne	a6,a1,129ba <getopt+0x17e>
   129b8:	ce09                	beqz	a2,129d2 <getopt+0x196>
   129ba:	401c                	lw	a5,0(s0)
   129bc:	0017859b          	addiw	a1,a5,1
   129c0:	078e                	slli	a5,a5,0x3
   129c2:	97d2                	add	a5,a5,s4
   129c4:	639c                	ld	a5,0(a5)
   129c6:	c00c                	sw	a1,0(s0)
   129c8:	2001a023          	sw	zero,512(gp) # 1ca00 <__optpos>
   129cc:	97b2                	add	a5,a5,a2
   129ce:	1ef1bc23          	sd	a5,504(gp) # 1c9f8 <optarg>
   129d2:	401c                	lw	a5,0(s0)
   129d4:	ecfad7e3          	bge	s5,a5,128a2 <getopt+0x66>
   129d8:	20a1a223          	sw	a0,516(gp) # 1ca04 <optopt>
   129dc:	0004c703          	lbu	a4,0(s1)
   129e0:	03a00793          	li	a5,58
   129e4:	03a00513          	li	a0,58
   129e8:	eaf70de3          	beq	a4,a5,128a2 <getopt+0x66>
   129ec:	9601a783          	lw	a5,-1696(gp) # 1c160 <opterr>
   129f0:	d7d9                	beqz	a5,1297e <getopt+0x142>
   129f2:	65e5                	lui	a1,0x19
   129f4:	865a                	mv	a2,s6
   129f6:	7a858593          	addi	a1,a1,1960 # 197a8 <small_cnt_tab+0x38>
   129fa:	bf61                	j	12992 <getopt+0x156>

00000000000129fc <getrlimit>:
   129fc:	7179                	addi	sp,sp,-48
   129fe:	ec26                	sd	s1,24(sp)
   12a00:	e84a                	sd	s2,16(sp)
   12a02:	84ae                	mv	s1,a1
   12a04:	892a                	mv	s2,a0
   12a06:	f406                	sd	ra,40(sp)
   12a08:	f022                	sd	s0,32(sp)
   12a0a:	10500893          	li	a7,261
   12a0e:	4501                	li	a0,0
   12a10:	85ca                	mv	a1,s2
   12a12:	4601                	li	a2,0
   12a14:	86a6                	mv	a3,s1
   12a16:	00000073          	ecall
   12a1a:	e2efe0ef          	jal	ra,11048 <__syscall_ret>
   12a1e:	0005041b          	sext.w	s0,a0
   12a22:	e809                	bnez	s0,12a34 <getrlimit+0x38>
   12a24:	4401                	li	s0,0
   12a26:	70a2                	ld	ra,40(sp)
   12a28:	8522                	mv	a0,s0
   12a2a:	7402                	ld	s0,32(sp)
   12a2c:	64e2                	ld	s1,24(sp)
   12a2e:	6942                	ld	s2,16(sp)
   12a30:	6145                	addi	sp,sp,48
   12a32:	8082                	ret
   12a34:	d38fe0ef          	jal	ra,10f6c <__errno_location>
   12a38:	4118                	lw	a4,0(a0)
   12a3a:	02600793          	li	a5,38
   12a3e:	fef714e3          	bne	a4,a5,12a26 <getrlimit+0x2a>
   12a42:	0a300893          	li	a7,163
   12a46:	854a                	mv	a0,s2
   12a48:	858a                	mv	a1,sp
   12a4a:	00000073          	ecall
   12a4e:	dfafe0ef          	jal	ra,11048 <__syscall_ret>
   12a52:	547d                	li	s0,-1
   12a54:	fc0549e3          	bltz	a0,12a26 <getrlimit+0x2a>
   12a58:	6782                	ld	a5,0(sp)
   12a5a:	e09c                	sd	a5,0(s1)
   12a5c:	67a2                	ld	a5,8(sp)
   12a5e:	e49c                	sd	a5,8(s1)
   12a60:	b7d1                	j	12a24 <getrlimit+0x28>

0000000000012a62 <do_setrlimit>:
   12a62:	495c                	lw	a5,20(a0)
   12a64:	85aa                	mv	a1,a0
   12a66:	00f04a63          	bgtz	a5,12a7a <do_setrlimit+0x18>
   12a6a:	0a400893          	li	a7,164
   12a6e:	4908                	lw	a0,16(a0)
   12a70:	00000073          	ecall
   12a74:	40a0053b          	negw	a0,a0
   12a78:	c9c8                	sw	a0,20(a1)
   12a7a:	8082                	ret

0000000000012a7c <setrlimit>:
   12a7c:	7179                	addi	sp,sp,-48
   12a7e:	87aa                	mv	a5,a0
   12a80:	862e                	mv	a2,a1
   12a82:	f406                	sd	ra,40(sp)
   12a84:	f022                	sd	s0,32(sp)
   12a86:	10500893          	li	a7,261
   12a8a:	4501                	li	a0,0
   12a8c:	85be                	mv	a1,a5
   12a8e:	4681                	li	a3,0
   12a90:	00000073          	ecall
   12a94:	fda00713          	li	a4,-38
   12a98:	2501                	sext.w	a0,a0
   12a9a:	00e50b63          	beq	a0,a4,12ab0 <setrlimit+0x34>
   12a9e:	daafe0ef          	jal	ra,11048 <__syscall_ret>
   12aa2:	0005041b          	sext.w	s0,a0
   12aa6:	70a2                	ld	ra,40(sp)
   12aa8:	8522                	mv	a0,s0
   12aaa:	7402                	ld	s0,32(sp)
   12aac:	6145                	addi	sp,sp,48
   12aae:	8082                	ret
   12ab0:	6218                	ld	a4,0(a2)
   12ab2:	654d                	lui	a0,0x13
   12ab4:	cc3e                	sw	a5,24(sp)
   12ab6:	e43a                	sd	a4,8(sp)
   12ab8:	6618                	ld	a4,8(a2)
   12aba:	57fd                	li	a5,-1
   12abc:	002c                	addi	a1,sp,8
   12abe:	a6250513          	addi	a0,a0,-1438 # 12a62 <do_setrlimit>
   12ac2:	e83a                	sd	a4,16(sp)
   12ac4:	ce3e                	sw	a5,28(sp)
   12ac6:	380010ef          	jal	ra,13e46 <__synccall>
   12aca:	4472                	lw	s0,28(sp)
   12acc:	dc69                	beqz	s0,12aa6 <setrlimit+0x2a>
   12ace:	00805563          	blez	s0,12ad8 <setrlimit+0x5c>
   12ad2:	c9afe0ef          	jal	ra,10f6c <__errno_location>
   12ad6:	c100                	sw	s0,0(a0)
   12ad8:	547d                	li	s0,-1
   12ada:	b7f1                	j	12aa6 <setrlimit+0x2a>

0000000000012adc <__madvise>:
   12adc:	1141                	addi	sp,sp,-16
   12ade:	e406                	sd	ra,8(sp)
   12ae0:	0e900893          	li	a7,233
   12ae4:	00000073          	ecall
   12ae8:	d60fe0ef          	jal	ra,11048 <__syscall_ret>
   12aec:	60a2                	ld	ra,8(sp)
   12aee:	2501                	sext.w	a0,a0
   12af0:	0141                	addi	sp,sp,16
   12af2:	8082                	ret

0000000000012af4 <__vm_wait>:
   12af4:	8082                	ret

0000000000012af6 <__mmap>:
   12af6:	7139                	addi	sp,sp,-64
   12af8:	f822                	sd	s0,48(sp)
   12afa:	fc06                	sd	ra,56(sp)
   12afc:	8436                	mv	s0,a3
   12afe:	f426                	sd	s1,40(sp)
   12b00:	03479693          	slli	a3,a5,0x34
   12b04:	ca99                	beqz	a3,12b1a <__mmap+0x24>
   12b06:	c66fe0ef          	jal	ra,10f6c <__errno_location>
   12b0a:	47d9                	li	a5,22
   12b0c:	70e2                	ld	ra,56(sp)
   12b0e:	7442                	ld	s0,48(sp)
   12b10:	c11c                	sw	a5,0(a0)
   12b12:	74a2                	ld	s1,40(sp)
   12b14:	557d                	li	a0,-1
   12b16:	6121                	addi	sp,sp,64
   12b18:	8082                	ret
   12b1a:	56f5                	li	a3,-3
   12b1c:	8285                	srli	a3,a3,0x1
   12b1e:	00b6f663          	bgeu	a3,a1,12b2a <__mmap+0x34>
   12b22:	c4afe0ef          	jal	ra,10f6c <__errno_location>
   12b26:	47b1                	li	a5,12
   12b28:	b7d5                	j	12b0c <__mmap+0x16>
   12b2a:	01047693          	andi	a3,s0,16
   12b2e:	84aa                	mv	s1,a0
   12b30:	ca99                	beqz	a3,12b46 <__mmap+0x50>
   12b32:	ec3e                	sd	a5,24(sp)
   12b34:	e83a                	sd	a4,16(sp)
   12b36:	e432                	sd	a2,8(sp)
   12b38:	e02e                	sd	a1,0(sp)
   12b3a:	fbbff0ef          	jal	ra,12af4 <__vm_wait>
   12b3e:	67e2                	ld	a5,24(sp)
   12b40:	6742                	ld	a4,16(sp)
   12b42:	6622                	ld	a2,8(sp)
   12b44:	6582                	ld	a1,0(sp)
   12b46:	0de00893          	li	a7,222
   12b4a:	8526                	mv	a0,s1
   12b4c:	86a2                	mv	a3,s0
   12b4e:	00000073          	ecall
   12b52:	57fd                	li	a5,-1
   12b54:	00f51a63          	bne	a0,a5,12b68 <__mmap+0x72>
   12b58:	e881                	bnez	s1,12b68 <__mmap+0x72>
   12b5a:	03047413          	andi	s0,s0,48
   12b5e:	02000793          	li	a5,32
   12b62:	00f41363          	bne	s0,a5,12b68 <__mmap+0x72>
   12b66:	5551                	li	a0,-12
   12b68:	7442                	ld	s0,48(sp)
   12b6a:	70e2                	ld	ra,56(sp)
   12b6c:	74a2                	ld	s1,40(sp)
   12b6e:	6121                	addi	sp,sp,64
   12b70:	cd8fe06f          	j	11048 <__syscall_ret>

0000000000012b74 <__mprotect>:
   12b74:	1b01b703          	ld	a4,432(gp) # 1c9b0 <__libc+0x30>
   12b78:	87aa                	mv	a5,a0
   12b7a:	1141                	addi	sp,sp,-16
   12b7c:	40e006b3          	neg	a3,a4
   12b80:	177d                	addi	a4,a4,-1
   12b82:	972e                	add	a4,a4,a1
   12b84:	97ba                	add	a5,a5,a4
   12b86:	8d75                	and	a0,a0,a3
   12b88:	00d7f5b3          	and	a1,a5,a3
   12b8c:	e406                	sd	ra,8(sp)
   12b8e:	0e200893          	li	a7,226
   12b92:	8d89                	sub	a1,a1,a0
   12b94:	00000073          	ecall
   12b98:	cb0fe0ef          	jal	ra,11048 <__syscall_ret>
   12b9c:	60a2                	ld	ra,8(sp)
   12b9e:	2501                	sext.w	a0,a0
   12ba0:	0141                	addi	sp,sp,16
   12ba2:	8082                	ret

0000000000012ba4 <dummy>:
   12ba4:	8082                	ret

0000000000012ba6 <__munmap>:
   12ba6:	1101                	addi	sp,sp,-32
   12ba8:	ec06                	sd	ra,24(sp)
   12baa:	e42a                	sd	a0,8(sp)
   12bac:	e02e                	sd	a1,0(sp)
   12bae:	f47ff0ef          	jal	ra,12af4 <__vm_wait>
   12bb2:	6522                	ld	a0,8(sp)
   12bb4:	6582                	ld	a1,0(sp)
   12bb6:	0d700893          	li	a7,215
   12bba:	00000073          	ecall
   12bbe:	c8afe0ef          	jal	ra,11048 <__syscall_ret>
   12bc2:	60e2                	ld	ra,24(sp)
   12bc4:	2501                	sext.w	a0,a0
   12bc6:	6105                	addi	sp,sp,32
   12bc8:	8082                	ret

0000000000012bca <mbtowc>:
   12bca:	10058063          	beqz	a1,12cca <mbtowc+0x100>
   12bce:	1101                	addi	sp,sp,-32
   12bd0:	ec06                	sd	ra,24(sp)
   12bd2:	c66d                	beqz	a2,12cbc <mbtowc+0xf2>
   12bd4:	e111                	bnez	a0,12bd8 <mbtowc+0xe>
   12bd6:	0068                	addi	a0,sp,12
   12bd8:	0005c783          	lbu	a5,0(a1)
   12bdc:	0187971b          	slliw	a4,a5,0x18
   12be0:	4187571b          	sraiw	a4,a4,0x18
   12be4:	00074963          	bltz	a4,12bf6 <mbtowc+0x2c>
   12be8:	2781                	sext.w	a5,a5
   12bea:	c11c                	sw	a5,0(a0)
   12bec:	00f03533          	snez	a0,a5
   12bf0:	60e2                	ld	ra,24(sp)
   12bf2:	6105                	addi	sp,sp,32
   12bf4:	8082                	ret
   12bf6:	8692                	mv	a3,tp
   12bf8:	fd06b683          	ld	a3,-48(a3)
   12bfc:	6294                	ld	a3,0(a3)
   12bfe:	e699                	bnez	a3,12c0c <mbtowc+0x42>
   12c00:	67b9                	lui	a5,0xe
   12c02:	17fd                	addi	a5,a5,-1
   12c04:	8f7d                	and	a4,a4,a5
   12c06:	c118                	sw	a4,0(a0)
   12c08:	4505                	li	a0,1
   12c0a:	b7dd                	j	12bf0 <mbtowc+0x26>
   12c0c:	f3e7879b          	addiw	a5,a5,-194
   12c10:	0007869b          	sext.w	a3,a5
   12c14:	03200713          	li	a4,50
   12c18:	0ad76263          	bltu	a4,a3,12cbc <mbtowc+0xf2>
   12c1c:	6769                	lui	a4,0x1a
   12c1e:	1782                	slli	a5,a5,0x20
   12c20:	b3070713          	addi	a4,a4,-1232 # 19b30 <__fsmu8>
   12c24:	83f9                	srli	a5,a5,0x1e
   12c26:	97ba                	add	a5,a5,a4
   12c28:	4398                	lw	a4,0(a5)
   12c2a:	478d                	li	a5,3
   12c2c:	00c7ea63          	bltu	a5,a2,12c40 <mbtowc+0x76>
   12c30:	4799                	li	a5,6
   12c32:	02c787bb          	mulw	a5,a5,a2
   12c36:	37e9                	addiw	a5,a5,-6
   12c38:	00f717bb          	sllw	a5,a4,a5
   12c3c:	0807c063          	bltz	a5,12cbc <mbtowc+0xf2>
   12c40:	0015c683          	lbu	a3,1(a1)
   12c44:	41a7579b          	sraiw	a5,a4,0x1a
   12c48:	0036d61b          	srliw	a2,a3,0x3
   12c4c:	9fb1                	addw	a5,a5,a2
   12c4e:	3641                	addiw	a2,a2,-16
   12c50:	8fd1                	or	a5,a5,a2
   12c52:	9be1                	andi	a5,a5,-8
   12c54:	2781                	sext.w	a5,a5
   12c56:	e3bd                	bnez	a5,12cbc <mbtowc+0xf2>
   12c58:	0067179b          	slliw	a5,a4,0x6
   12c5c:	f806871b          	addiw	a4,a3,-128
   12c60:	8f5d                	or	a4,a4,a5
   12c62:	02071613          	slli	a2,a4,0x20
   12c66:	0007069b          	sext.w	a3,a4
   12c6a:	00064563          	bltz	a2,12c74 <mbtowc+0xaa>
   12c6e:	c114                	sw	a3,0(a0)
   12c70:	4509                	li	a0,2
   12c72:	bfbd                	j	12bf0 <mbtowc+0x26>
   12c74:	0025c783          	lbu	a5,2(a1)
   12c78:	03f00613          	li	a2,63
   12c7c:	f807879b          	addiw	a5,a5,-128
   12c80:	0007871b          	sext.w	a4,a5
   12c84:	02e66c63          	bltu	a2,a4,12cbc <mbtowc+0xf2>
   12c88:	0066971b          	slliw	a4,a3,0x6
   12c8c:	8fd9                	or	a5,a5,a4
   12c8e:	02079813          	slli	a6,a5,0x20
   12c92:	0007871b          	sext.w	a4,a5
   12c96:	00084563          	bltz	a6,12ca0 <mbtowc+0xd6>
   12c9a:	c118                	sw	a4,0(a0)
   12c9c:	450d                	li	a0,3
   12c9e:	bf89                	j	12bf0 <mbtowc+0x26>
   12ca0:	0035c783          	lbu	a5,3(a1)
   12ca4:	f807869b          	addiw	a3,a5,-128
   12ca8:	0006879b          	sext.w	a5,a3
   12cac:	00f66863          	bltu	a2,a5,12cbc <mbtowc+0xf2>
   12cb0:	0067179b          	slliw	a5,a4,0x6
   12cb4:	8fd5                	or	a5,a5,a3
   12cb6:	c11c                	sw	a5,0(a0)
   12cb8:	4511                	li	a0,4
   12cba:	bf1d                	j	12bf0 <mbtowc+0x26>
   12cbc:	ab0fe0ef          	jal	ra,10f6c <__errno_location>
   12cc0:	05400793          	li	a5,84
   12cc4:	c11c                	sw	a5,0(a0)
   12cc6:	557d                	li	a0,-1
   12cc8:	b725                	j	12bf0 <mbtowc+0x26>
   12cca:	4501                	li	a0,0
   12ccc:	8082                	ret

0000000000012cce <execv>:
   12cce:	9d81b603          	ld	a2,-1576(gp) # 1c1d8 <__environ>
   12cd2:	a009                	j	12cd4 <execve>

0000000000012cd4 <execve>:
   12cd4:	1141                	addi	sp,sp,-16
   12cd6:	e406                	sd	ra,8(sp)
   12cd8:	0dd00893          	li	a7,221
   12cdc:	00000073          	ecall
   12ce0:	b68fe0ef          	jal	ra,11048 <__syscall_ret>
   12ce4:	60a2                	ld	ra,8(sp)
   12ce6:	2501                	sext.w	a0,a0
   12ce8:	0141                	addi	sp,sp,16
   12cea:	8082                	ret

0000000000012cec <__fork_handler>:
   12cec:	8082                	ret

0000000000012cee <__tl_lock>:
   12cee:	8082                	ret

0000000000012cf0 <fork>:
   12cf0:	7131                	addi	sp,sp,-192
   12cf2:	557d                	li	a0,-1
   12cf4:	fd06                	sd	ra,184(sp)
   12cf6:	e952                	sd	s4,144(sp)
   12cf8:	f922                	sd	s0,176(sp)
   12cfa:	f526                	sd	s1,168(sp)
   12cfc:	f14a                	sd	s2,160(sp)
   12cfe:	ed4e                	sd	s3,152(sp)
   12d00:	e556                	sd	s5,136(sp)
   12d02:	febff0ef          	jal	ra,12cec <__fork_handler>
   12d06:	850a                	mv	a0,sp
   12d08:	124000ef          	jal	ra,12e2c <__block_app_sigs>
   12d0c:	18018793          	addi	a5,gp,384 # 1c980 <__libc>
   12d10:	0037ca03          	lbu	s4,3(a5) # e003 <exit-0x211d>
   12d14:	018a1a1b          	slliw	s4,s4,0x18
   12d18:	418a5a1b          	sraiw	s4,s4,0x18
   12d1c:	03405963          	blez	s4,12d4e <fork+0x5e>
   12d20:	6465                	lui	s0,0x19
   12d22:	557d                	li	a0,-1
   12d24:	7c840413          	addi	s0,s0,1992 # 197c8 <atfork_locks>
   12d28:	fc5ff0ef          	jal	ra,12cec <__fork_handler>
   12d2c:	05840493          	addi	s1,s0,88
   12d30:	6c3000ef          	jal	ra,13bf2 <__inhibit_ptc>
   12d34:	601c                	ld	a5,0(s0)
   12d36:	6388                	ld	a0,0(a5)
   12d38:	c119                	beqz	a0,12d3e <fork+0x4e>
   12d3a:	56d000ef          	jal	ra,13aa6 <__lock>
   12d3e:	0421                	addi	s0,s0,8
   12d40:	fe849ae3          	bne	s1,s0,12d34 <fork+0x44>
   12d44:	557d                	li	a0,-1
   12d46:	80eff0ef          	jal	ra,11d54 <__malloc_atfork>
   12d4a:	fa5ff0ef          	jal	ra,12cee <__tl_lock>
   12d4e:	8492                	mv	s1,tp
   12d50:	f484b983          	ld	s3,-184(s1)
   12d54:	6ee010ef          	jal	ra,14442 <_Fork>
   12d58:	842a                	mv	s0,a0
   12d5a:	a12fe0ef          	jal	ra,10f6c <__errno_location>
   12d5e:	f3848493          	addi	s1,s1,-200
   12d62:	00052a83          	lw	s5,0(a0)
   12d66:	892a                	mv	s2,a0
   12d68:	03405e63          	blez	s4,12da4 <fork+0xb4>
   12d6c:	57fd                	li	a5,-1
   12d6e:	c425                	beqz	s0,12dd6 <fork+0xe6>
   12d70:	f7fff0ef          	jal	ra,12cee <__tl_lock>
   12d74:	00143993          	seqz	s3,s0
   12d78:	64e5                	lui	s1,0x19
   12d7a:	854e                	mv	a0,s3
   12d7c:	7c848493          	addi	s1,s1,1992 # 197c8 <atfork_locks>
   12d80:	fd5fe0ef          	jal	ra,11d54 <__malloc_atfork>
   12d84:	05848a13          	addi	s4,s1,88
   12d88:	609c                	ld	a5,0(s1)
   12d8a:	6388                	ld	a0,0(a5)
   12d8c:	c501                	beqz	a0,12d94 <fork+0xa4>
   12d8e:	cc39                	beqz	s0,12dec <fork+0xfc>
   12d90:	5ef000ef          	jal	ra,13b7e <__unlock>
   12d94:	04a1                	addi	s1,s1,8
   12d96:	fe9a19e3          	bne	s4,s1,12d88 <fork+0x98>
   12d9a:	665000ef          	jal	ra,13bfe <__release_ptc>
   12d9e:	854e                	mv	a0,s3
   12da0:	f4dff0ef          	jal	ra,12cec <__fork_handler>
   12da4:	850a                	mv	a0,sp
   12da6:	09c000ef          	jal	ra,12e42 <__restore_sigs>
   12daa:	00143513          	seqz	a0,s0
   12dae:	f3fff0ef          	jal	ra,12cec <__fork_handler>
   12db2:	00045463          	bgez	s0,12dba <fork+0xca>
   12db6:	01592023          	sw	s5,0(s2)
   12dba:	70ea                	ld	ra,184(sp)
   12dbc:	8522                	mv	a0,s0
   12dbe:	744a                	ld	s0,176(sp)
   12dc0:	74aa                	ld	s1,168(sp)
   12dc2:	790a                	ld	s2,160(sp)
   12dc4:	69ea                	ld	s3,152(sp)
   12dc6:	6a4a                	ld	s4,144(sp)
   12dc8:	6aaa                	ld	s5,136(sp)
   12dca:	6129                	addi	sp,sp,192
   12dcc:	8082                	ret
   12dce:	02f9a023          	sw	a5,32(s3)
   12dd2:	0109b983          	ld	s3,16(s3)
   12dd6:	fe999ce3          	bne	s3,s1,12dce <fork+0xde>
   12dda:	67e9                	lui	a5,0x1a
   12ddc:	2187b783          	ld	a5,536(a5) # 1a218 <__at_quick_exit_lockptr>
   12de0:	dbc1                	beqz	a5,12d70 <fork+0x80>
   12de2:	0007a023          	sw	zero,0(a5)
   12de6:	0007a223          	sw	zero,4(a5)
   12dea:	b759                	j	12d70 <fork+0x80>
   12dec:	00052023          	sw	zero,0(a0)
   12df0:	b755                	j	12d94 <fork+0xa4>

0000000000012df2 <waitpid>:
   12df2:	1141                	addi	sp,sp,-16
   12df4:	86b2                	mv	a3,a2
   12df6:	4801                	li	a6,0
   12df8:	862e                	mv	a2,a1
   12dfa:	4781                	li	a5,0
   12dfc:	85aa                	mv	a1,a0
   12dfe:	4701                	li	a4,0
   12e00:	10400513          	li	a0,260
   12e04:	e406                	sd	ra,8(sp)
   12e06:	5eb000ef          	jal	ra,13bf0 <__syscall_cp>
   12e0a:	a3efe0ef          	jal	ra,11048 <__syscall_ret>
   12e0e:	60a2                	ld	ra,8(sp)
   12e10:	2501                	sext.w	a0,a0
   12e12:	0141                	addi	sp,sp,16
   12e14:	8082                	ret

0000000000012e16 <__block_all_sigs>:
   12e16:	65e9                	lui	a1,0x1a
   12e18:	862a                	mv	a2,a0
   12e1a:	08700893          	li	a7,135
   12e1e:	4501                	li	a0,0
   12e20:	22058593          	addi	a1,a1,544 # 1a220 <all_mask>
   12e24:	46a1                	li	a3,8
   12e26:	00000073          	ecall
   12e2a:	8082                	ret

0000000000012e2c <__block_app_sigs>:
   12e2c:	65e9                	lui	a1,0x1a
   12e2e:	862a                	mv	a2,a0
   12e30:	08700893          	li	a7,135
   12e34:	4501                	li	a0,0
   12e36:	22858593          	addi	a1,a1,552 # 1a228 <app_mask>
   12e3a:	46a1                	li	a3,8
   12e3c:	00000073          	ecall
   12e40:	8082                	ret

0000000000012e42 <__restore_sigs>:
   12e42:	85aa                	mv	a1,a0
   12e44:	08700893          	li	a7,135
   12e48:	4509                	li	a0,2
   12e4a:	4601                	li	a2,0
   12e4c:	46a1                	li	a3,8
   12e4e:	00000073          	ecall
   12e52:	8082                	ret

0000000000012e54 <kill>:
   12e54:	1141                	addi	sp,sp,-16
   12e56:	e406                	sd	ra,8(sp)
   12e58:	08100893          	li	a7,129
   12e5c:	00000073          	ecall
   12e60:	9e8fe0ef          	jal	ra,11048 <__syscall_ret>
   12e64:	60a2                	ld	ra,8(sp)
   12e66:	2501                	sext.w	a0,a0
   12e68:	0141                	addi	sp,sp,16
   12e6a:	8082                	ret

0000000000012e6c <sigaddset>:
   12e6c:	fff5871b          	addiw	a4,a1,-1
   12e70:	03f00793          	li	a5,63
   12e74:	00e7e663          	bltu	a5,a4,12e80 <sigaddset+0x14>
   12e78:	3581                	addiw	a1,a1,-32
   12e7a:	4789                	li	a5,2
   12e7c:	00b7ec63          	bltu	a5,a1,12e94 <sigaddset+0x28>
   12e80:	1141                	addi	sp,sp,-16
   12e82:	e406                	sd	ra,8(sp)
   12e84:	8e8fe0ef          	jal	ra,10f6c <__errno_location>
   12e88:	60a2                	ld	ra,8(sp)
   12e8a:	47d9                	li	a5,22
   12e8c:	c11c                	sw	a5,0(a0)
   12e8e:	557d                	li	a0,-1
   12e90:	0141                	addi	sp,sp,16
   12e92:	8082                	ret
   12e94:	4785                	li	a5,1
   12e96:	00e79733          	sll	a4,a5,a4
   12e9a:	611c                	ld	a5,0(a0)
   12e9c:	8fd9                	or	a5,a5,a4
   12e9e:	e11c                	sd	a5,0(a0)
   12ea0:	4501                	li	a0,0
   12ea2:	8082                	ret

0000000000012ea4 <sigemptyset>:
   12ea4:	00053023          	sd	zero,0(a0)
   12ea8:	4501                	li	a0,0
   12eaa:	8082                	ret

0000000000012eac <signal>:
   12eac:	714d                	addi	sp,sp,-336
   12eae:	e2a2                	sd	s0,320(sp)
   12eb0:	fe26                	sd	s1,312(sp)
   12eb2:	842a                	mv	s0,a0
   12eb4:	84ae                	mv	s1,a1
   12eb6:	09000613          	li	a2,144
   12eba:	4581                	li	a1,0
   12ebc:	1108                	addi	a0,sp,160
   12ebe:	e686                	sd	ra,328(sp)
   12ec0:	19d000ef          	jal	ra,1385c <memset>
   12ec4:	100007b7          	lui	a5,0x10000
   12ec8:	860a                	mv	a2,sp
   12eca:	092c                	addi	a1,sp,152
   12ecc:	8522                	mv	a0,s0
   12ece:	ed26                	sd	s1,152(sp)
   12ed0:	12f12023          	sw	a5,288(sp)
   12ed4:	742010ef          	jal	ra,14616 <__sigaction>
   12ed8:	00054863          	bltz	a0,12ee8 <signal+0x3c>
   12edc:	6502                	ld	a0,0(sp)
   12ede:	60b6                	ld	ra,328(sp)
   12ee0:	6416                	ld	s0,320(sp)
   12ee2:	74f2                	ld	s1,312(sp)
   12ee4:	6171                	addi	sp,sp,336
   12ee6:	8082                	ret
   12ee8:	557d                	li	a0,-1
   12eea:	bfd5                	j	12ede <signal+0x32>

0000000000012eec <sigprocmask>:
   12eec:	1141                	addi	sp,sp,-16
   12eee:	e022                	sd	s0,0(sp)
   12ef0:	e406                	sd	ra,8(sp)
   12ef2:	6bb000ef          	jal	ra,13dac <pthread_sigmask>
   12ef6:	842a                	mv	s0,a0
   12ef8:	c509                	beqz	a0,12f02 <sigprocmask+0x16>
   12efa:	872fe0ef          	jal	ra,10f6c <__errno_location>
   12efe:	c100                	sw	s0,0(a0)
   12f00:	547d                	li	s0,-1
   12f02:	60a2                	ld	ra,8(sp)
   12f04:	8522                	mv	a0,s0
   12f06:	6402                	ld	s0,0(sp)
   12f08:	0141                	addi	sp,sp,16
   12f0a:	8082                	ret

0000000000012f0c <sigtimedwait>:
   12f0c:	7179                	addi	sp,sp,-48
   12f0e:	f022                	sd	s0,32(sp)
   12f10:	ec26                	sd	s1,24(sp)
   12f12:	e84a                	sd	s2,16(sp)
   12f14:	e44e                	sd	s3,8(sp)
   12f16:	f406                	sd	ra,40(sp)
   12f18:	842a                	mv	s0,a0
   12f1a:	84ae                	mv	s1,a1
   12f1c:	8932                	mv	s2,a2
   12f1e:	59f1                	li	s3,-4
   12f20:	4801                	li	a6,0
   12f22:	4781                	li	a5,0
   12f24:	4721                	li	a4,8
   12f26:	86ca                	mv	a3,s2
   12f28:	8626                	mv	a2,s1
   12f2a:	85a2                	mv	a1,s0
   12f2c:	08900513          	li	a0,137
   12f30:	4c1000ef          	jal	ra,13bf0 <__syscall_cp>
   12f34:	2501                	sext.w	a0,a0
   12f36:	ff3505e3          	beq	a0,s3,12f20 <sigtimedwait+0x14>
   12f3a:	90efe0ef          	jal	ra,11048 <__syscall_ret>
   12f3e:	70a2                	ld	ra,40(sp)
   12f40:	7402                	ld	s0,32(sp)
   12f42:	64e2                	ld	s1,24(sp)
   12f44:	6942                	ld	s2,16(sp)
   12f46:	69a2                	ld	s3,8(sp)
   12f48:	2501                	sext.w	a0,a0
   12f4a:	6145                	addi	sp,sp,48
   12f4c:	8082                	ret

0000000000012f4e <__lockfile>:
   12f4e:	08c52783          	lw	a5,140(a0)
   12f52:	2781                	sext.w	a5,a5
   12f54:	8712                	mv	a4,tp
   12f56:	c00006b7          	lui	a3,0xc0000
   12f5a:	f5872703          	lw	a4,-168(a4)
   12f5e:	16fd                	addi	a3,a3,-1
   12f60:	8ff5                	and	a5,a5,a3
   12f62:	08e78263          	beq	a5,a4,12fe6 <__lockfile+0x98>
   12f66:	08c50793          	addi	a5,a0,140
   12f6a:	4601                	li	a2,0
   12f6c:	1607a6af          	lr.w.aqrl	a3,(a5)
   12f70:	00c69563          	bne	a3,a2,12f7a <__lockfile+0x2c>
   12f74:	1ee7a5af          	sc.w.aqrl	a1,a4,(a5)
   12f78:	f9f5                	bnez	a1,12f6c <__lockfile+0x1e>
   12f7a:	2681                	sext.w	a3,a3
   12f7c:	c295                	beqz	a3,12fa0 <__lockfile+0x52>
   12f7e:	40000837          	lui	a6,0x40000
   12f82:	01076733          	or	a4,a4,a6
   12f86:	4301                	li	t1,0
   12f88:	2701                	sext.w	a4,a4
   12f8a:	fda00e13          	li	t3,-38
   12f8e:	1607a6af          	lr.w.aqrl	a3,(a5)
   12f92:	00669563          	bne	a3,t1,12f9c <__lockfile+0x4e>
   12f96:	1ee7a62f          	sc.w.aqrl	a2,a4,(a5)
   12f9a:	fa75                	bnez	a2,12f8e <__lockfile+0x40>
   12f9c:	2681                	sext.w	a3,a3
   12f9e:	e299                	bnez	a3,12fa4 <__lockfile+0x56>
   12fa0:	4505                	li	a0,1
   12fa2:	8082                	ret
   12fa4:	0106f5b3          	and	a1,a3,a6
   12fa8:	0106e633          	or	a2,a3,a6
   12fac:	2581                	sext.w	a1,a1
   12fae:	2601                	sext.w	a2,a2
   12fb0:	c185                	beqz	a1,12fd0 <__lockfile+0x82>
   12fb2:	06200893          	li	a7,98
   12fb6:	853e                	mv	a0,a5
   12fb8:	08000593          	li	a1,128
   12fbc:	4681                	li	a3,0
   12fbe:	00000073          	ecall
   12fc2:	fdc516e3          	bne	a0,t3,12f8e <__lockfile+0x40>
   12fc6:	853e                	mv	a0,a5
   12fc8:	4581                	li	a1,0
   12fca:	00000073          	ecall
   12fce:	b7c1                	j	12f8e <__lockfile+0x40>
   12fd0:	1607a5af          	lr.w.aqrl	a1,(a5)
   12fd4:	00d59563          	bne	a1,a3,12fde <__lockfile+0x90>
   12fd8:	1ec7a52f          	sc.w.aqrl	a0,a2,(a5)
   12fdc:	f975                	bnez	a0,12fd0 <__lockfile+0x82>
   12fde:	2581                	sext.w	a1,a1
   12fe0:	fad597e3          	bne	a1,a3,12f8e <__lockfile+0x40>
   12fe4:	b7f9                	j	12fb2 <__lockfile+0x64>
   12fe6:	4501                	li	a0,0
   12fe8:	8082                	ret

0000000000012fea <__unlockfile>:
   12fea:	08c50713          	addi	a4,a0,140
   12fee:	4601                	li	a2,0
   12ff0:	08c52783          	lw	a5,140(a0)
   12ff4:	2781                	sext.w	a5,a5
   12ff6:	160726af          	lr.w.aqrl	a3,(a4)
   12ffa:	00f69563          	bne	a3,a5,13004 <__unlockfile+0x1a>
   12ffe:	1ec725af          	sc.w.aqrl	a1,a2,(a4)
   13002:	f9f5                	bnez	a1,12ff6 <__unlockfile+0xc>
   13004:	2681                	sext.w	a3,a3
   13006:	fed795e3          	bne	a5,a3,12ff0 <__unlockfile+0x6>
   1300a:	02179693          	slli	a3,a5,0x21
   1300e:	0206d263          	bgez	a3,13032 <__unlockfile+0x48>
   13012:	06200893          	li	a7,98
   13016:	853a                	mv	a0,a4
   13018:	08100593          	li	a1,129
   1301c:	4605                	li	a2,1
   1301e:	00000073          	ecall
   13022:	fda00793          	li	a5,-38
   13026:	00f51663          	bne	a0,a5,13032 <__unlockfile+0x48>
   1302a:	853a                	mv	a0,a4
   1302c:	4585                	li	a1,1
   1302e:	00000073          	ecall
   13032:	8082                	ret

0000000000013034 <fputs>:
   13034:	7179                	addi	sp,sp,-48
   13036:	f406                	sd	ra,40(sp)
   13038:	f022                	sd	s0,32(sp)
   1303a:	ec26                	sd	s1,24(sp)
   1303c:	e42e                	sd	a1,8(sp)
   1303e:	84aa                	mv	s1,a0
   13040:	1af000ef          	jal	ra,139ee <strlen>
   13044:	66a2                	ld	a3,8(sp)
   13046:	842a                	mv	s0,a0
   13048:	862a                	mv	a2,a0
   1304a:	4585                	li	a1,1
   1304c:	8526                	mv	a0,s1
   1304e:	0b6000ef          	jal	ra,13104 <fwrite>
   13052:	70a2                	ld	ra,40(sp)
   13054:	8d01                	sub	a0,a0,s0
   13056:	7402                	ld	s0,32(sp)
   13058:	00a03533          	snez	a0,a0
   1305c:	64e2                	ld	s1,24(sp)
   1305e:	40a00533          	neg	a0,a0
   13062:	6145                	addi	sp,sp,48
   13064:	8082                	ret

0000000000013066 <__fwritex>:
   13066:	721c                	ld	a5,32(a2)
   13068:	7179                	addi	sp,sp,-48
   1306a:	f022                	sd	s0,32(sp)
   1306c:	e84a                	sd	s2,16(sp)
   1306e:	e44e                	sd	s3,8(sp)
   13070:	f406                	sd	ra,40(sp)
   13072:	ec26                	sd	s1,24(sp)
   13074:	89aa                	mv	s3,a0
   13076:	892e                	mv	s2,a1
   13078:	8432                	mv	s0,a2
   1307a:	c395                	beqz	a5,1309e <__fwritex+0x38>
   1307c:	701c                	ld	a5,32(s0)
   1307e:	7418                	ld	a4,40(s0)
   13080:	8f99                	sub	a5,a5,a4
   13082:	0327f463          	bgeu	a5,s2,130aa <__fwritex+0x44>
   13086:	04843303          	ld	t1,72(s0)
   1308a:	8522                	mv	a0,s0
   1308c:	7402                	ld	s0,32(sp)
   1308e:	70a2                	ld	ra,40(sp)
   13090:	64e2                	ld	s1,24(sp)
   13092:	864a                	mv	a2,s2
   13094:	85ce                	mv	a1,s3
   13096:	6942                	ld	s2,16(sp)
   13098:	69a2                	ld	s3,8(sp)
   1309a:	6145                	addi	sp,sp,48
   1309c:	8302                	jr	t1
   1309e:	8532                	mv	a0,a2
   130a0:	712010ef          	jal	ra,147b2 <__towrite>
   130a4:	dd61                	beqz	a0,1307c <__fwritex+0x16>
   130a6:	4501                	li	a0,0
   130a8:	a005                	j	130c8 <__fwritex+0x62>
   130aa:	09042783          	lw	a5,144(s0)
   130ae:	84ca                	mv	s1,s2
   130b0:	4729                	li	a4,10
   130b2:	0207d363          	bgez	a5,130d8 <__fwritex+0x72>
   130b6:	7408                	ld	a0,40(s0)
   130b8:	8626                	mv	a2,s1
   130ba:	85ce                	mv	a1,s3
   130bc:	358000ef          	jal	ra,13414 <memcpy>
   130c0:	7410                	ld	a2,40(s0)
   130c2:	854a                	mv	a0,s2
   130c4:	94b2                	add	s1,s1,a2
   130c6:	f404                	sd	s1,40(s0)
   130c8:	70a2                	ld	ra,40(sp)
   130ca:	7402                	ld	s0,32(sp)
   130cc:	64e2                	ld	s1,24(sp)
   130ce:	6942                	ld	s2,16(sp)
   130d0:	69a2                	ld	s3,8(sp)
   130d2:	6145                	addi	sp,sp,48
   130d4:	8082                	ret
   130d6:	84be                	mv	s1,a5
   130d8:	c485                	beqz	s1,13100 <__fwritex+0x9a>
   130da:	fff48793          	addi	a5,s1,-1
   130de:	00f986b3          	add	a3,s3,a5
   130e2:	0006c683          	lbu	a3,0(a3) # ffffffffc0000000 <__BSS_END__+0xffffffffbffe35e0>
   130e6:	fee698e3          	bne	a3,a4,130d6 <__fwritex+0x70>
   130ea:	643c                	ld	a5,72(s0)
   130ec:	8626                	mv	a2,s1
   130ee:	85ce                	mv	a1,s3
   130f0:	8522                	mv	a0,s0
   130f2:	9782                	jalr	a5
   130f4:	fc956ae3          	bltu	a0,s1,130c8 <__fwritex+0x62>
   130f8:	99a6                	add	s3,s3,s1
   130fa:	409904b3          	sub	s1,s2,s1
   130fe:	bf65                	j	130b6 <__fwritex+0x50>
   13100:	84ca                	mv	s1,s2
   13102:	bf55                	j	130b6 <__fwritex+0x50>

0000000000013104 <fwrite>:
   13104:	7139                	addi	sp,sp,-64
   13106:	f822                	sd	s0,48(sp)
   13108:	f426                	sd	s1,40(sp)
   1310a:	f04a                	sd	s2,32(sp)
   1310c:	ec4e                	sd	s3,24(sp)
   1310e:	e456                	sd	s5,8(sp)
   13110:	fc06                	sd	ra,56(sp)
   13112:	e852                	sd	s4,16(sp)
   13114:	02c58ab3          	mul	s5,a1,a2
   13118:	89aa                	mv	s3,a0
   1311a:	892e                	mv	s2,a1
   1311c:	84b6                	mv	s1,a3
   1311e:	4401                	li	s0,0
   13120:	c191                	beqz	a1,13124 <fwrite+0x20>
   13122:	8432                	mv	s0,a2
   13124:	08c4a783          	lw	a5,140(s1)
   13128:	4a01                	li	s4,0
   1312a:	02079713          	slli	a4,a5,0x20
   1312e:	00074663          	bltz	a4,1313a <fwrite+0x36>
   13132:	8526                	mv	a0,s1
   13134:	e1bff0ef          	jal	ra,12f4e <__lockfile>
   13138:	8a2a                	mv	s4,a0
   1313a:	854e                	mv	a0,s3
   1313c:	8626                	mv	a2,s1
   1313e:	85d6                	mv	a1,s5
   13140:	f27ff0ef          	jal	ra,13066 <__fwritex>
   13144:	89aa                	mv	s3,a0
   13146:	000a0563          	beqz	s4,13150 <fwrite+0x4c>
   1314a:	8526                	mv	a0,s1
   1314c:	e9fff0ef          	jal	ra,12fea <__unlockfile>
   13150:	013a8463          	beq	s5,s3,13158 <fwrite+0x54>
   13154:	0329d433          	divu	s0,s3,s2
   13158:	70e2                	ld	ra,56(sp)
   1315a:	8522                	mv	a0,s0
   1315c:	7442                	ld	s0,48(sp)
   1315e:	74a2                	ld	s1,40(sp)
   13160:	7902                	ld	s2,32(sp)
   13162:	69e2                	ld	s3,24(sp)
   13164:	6a42                	ld	s4,16(sp)
   13166:	6aa2                	ld	s5,8(sp)
   13168:	6121                	addi	sp,sp,64
   1316a:	8082                	ret

000000000001316c <locking_putc>:
   1316c:	1101                	addi	sp,sp,-32
   1316e:	400007b7          	lui	a5,0x40000
   13172:	e822                	sd	s0,16(sp)
   13174:	e426                	sd	s1,8(sp)
   13176:	e04a                	sd	s2,0(sp)
   13178:	ec06                	sd	ra,24(sp)
   1317a:	892a                	mv	s2,a0
   1317c:	842e                	mv	s0,a1
   1317e:	08c58493          	addi	s1,a1,140
   13182:	4681                	li	a3,0
   13184:	17fd                	addi	a5,a5,-1
   13186:	1604a72f          	lr.w.aqrl	a4,(s1)
   1318a:	00d71563          	bne	a4,a3,13194 <locking_putc+0x28>
   1318e:	1ef4a62f          	sc.w.aqrl	a2,a5,(s1)
   13192:	fa75                	bnez	a2,13186 <locking_putc+0x1a>
   13194:	0007079b          	sext.w	a5,a4
   13198:	c781                	beqz	a5,131a0 <locking_putc+0x34>
   1319a:	852e                	mv	a0,a1
   1319c:	db3ff0ef          	jal	ra,12f4e <__lockfile>
   131a0:	09042703          	lw	a4,144(s0)
   131a4:	0ff97793          	andi	a5,s2,255
   131a8:	06f70463          	beq	a4,a5,13210 <locking_putc+0xa4>
   131ac:	7418                	ld	a4,40(s0)
   131ae:	7014                	ld	a3,32(s0)
   131b0:	06d70063          	beq	a4,a3,13210 <locking_putc+0xa4>
   131b4:	00170693          	addi	a3,a4,1
   131b8:	f414                	sd	a3,40(s0)
   131ba:	01270023          	sb	s2,0(a4)
   131be:	4601                	li	a2,0
   131c0:	08c42703          	lw	a4,140(s0)
   131c4:	2701                	sext.w	a4,a4
   131c6:	1604a6af          	lr.w.aqrl	a3,(s1)
   131ca:	00e69563          	bne	a3,a4,131d4 <locking_putc+0x68>
   131ce:	1ec4a5af          	sc.w.aqrl	a1,a2,(s1)
   131d2:	f9f5                	bnez	a1,131c6 <locking_putc+0x5a>
   131d4:	2681                	sext.w	a3,a3
   131d6:	fed715e3          	bne	a4,a3,131c0 <locking_putc+0x54>
   131da:	02171693          	slli	a3,a4,0x21
   131de:	0206d263          	bgez	a3,13202 <locking_putc+0x96>
   131e2:	06200893          	li	a7,98
   131e6:	8526                	mv	a0,s1
   131e8:	08100593          	li	a1,129
   131ec:	4605                	li	a2,1
   131ee:	00000073          	ecall
   131f2:	fda00713          	li	a4,-38
   131f6:	00e51663          	bne	a0,a4,13202 <locking_putc+0x96>
   131fa:	8526                	mv	a0,s1
   131fc:	4585                	li	a1,1
   131fe:	00000073          	ecall
   13202:	60e2                	ld	ra,24(sp)
   13204:	6442                	ld	s0,16(sp)
   13206:	64a2                	ld	s1,8(sp)
   13208:	6902                	ld	s2,0(sp)
   1320a:	853e                	mv	a0,a5
   1320c:	6105                	addi	sp,sp,32
   1320e:	8082                	ret
   13210:	85be                	mv	a1,a5
   13212:	8522                	mv	a0,s0
   13214:	474010ef          	jal	ra,14688 <__overflow>
   13218:	87aa                	mv	a5,a0
   1321a:	b755                	j	131be <locking_putc+0x52>

000000000001321c <putc>:
   1321c:	08c5a683          	lw	a3,140(a1)
   13220:	87ae                	mv	a5,a1
   13222:	02069613          	slli	a2,a3,0x20
   13226:	0006871b          	sext.w	a4,a3
   1322a:	00064c63          	bltz	a2,13242 <putc+0x26>
   1322e:	c71d                	beqz	a4,1325c <putc+0x40>
   13230:	8692                	mv	a3,tp
   13232:	f586a603          	lw	a2,-168(a3)
   13236:	c00006b7          	lui	a3,0xc0000
   1323a:	16fd                	addi	a3,a3,-1
   1323c:	8f75                	and	a4,a4,a3
   1323e:	00e61f63          	bne	a2,a4,1325c <putc+0x40>
   13242:	0907a703          	lw	a4,144(a5) # 40000090 <__BSS_END__+0x3ffe3670>
   13246:	0ff57593          	andi	a1,a0,255
   1324a:	00b70663          	beq	a4,a1,13256 <putc+0x3a>
   1324e:	7798                	ld	a4,40(a5)
   13250:	7394                	ld	a3,32(a5)
   13252:	00d71763          	bne	a4,a3,13260 <putc+0x44>
   13256:	853e                	mv	a0,a5
   13258:	4300106f          	j	14688 <__overflow>
   1325c:	85be                	mv	a1,a5
   1325e:	b739                	j	1316c <locking_putc>
   13260:	00170693          	addi	a3,a4,1
   13264:	f794                	sd	a3,40(a5)
   13266:	00a70023          	sb	a0,0(a4)
   1326a:	852e                	mv	a0,a1
   1326c:	8082                	ret

000000000001326e <snprintf>:
   1326e:	715d                	addi	sp,sp,-80
   13270:	f436                	sd	a3,40(sp)
   13272:	1034                	addi	a3,sp,40
   13274:	ec06                	sd	ra,24(sp)
   13276:	f83a                	sd	a4,48(sp)
   13278:	fc3e                	sd	a5,56(sp)
   1327a:	e0c2                	sd	a6,64(sp)
   1327c:	e4c6                	sd	a7,72(sp)
   1327e:	e436                	sd	a3,8(sp)
   13280:	0ae000ef          	jal	ra,1332e <vsnprintf>
   13284:	60e2                	ld	ra,24(sp)
   13286:	6161                	addi	sp,sp,80
   13288:	8082                	ret

000000000001328a <sprintf>:
   1328a:	715d                	addi	sp,sp,-80
   1328c:	f032                	sd	a2,32(sp)
   1328e:	1010                	addi	a2,sp,32
   13290:	ec06                	sd	ra,24(sp)
   13292:	f436                	sd	a3,40(sp)
   13294:	f83a                	sd	a4,48(sp)
   13296:	fc3e                	sd	a5,56(sp)
   13298:	e0c2                	sd	a6,64(sp)
   1329a:	e4c6                	sd	a7,72(sp)
   1329c:	e432                	sd	a2,8(sp)
   1329e:	10c000ef          	jal	ra,133aa <vsprintf>
   132a2:	60e2                	ld	ra,24(sp)
   132a4:	6161                	addi	sp,sp,80
   132a6:	8082                	ret

00000000000132a8 <sn_write>:
   132a8:	7179                	addi	sp,sp,-48
   132aa:	f022                	sd	s0,32(sp)
   132ac:	6d40                	ld	s0,152(a0)
   132ae:	e84a                	sd	s2,16(sp)
   132b0:	e052                	sd	s4,0(sp)
   132b2:	02853903          	ld	s2,40(a0)
   132b6:	8a2e                	mv	s4,a1
   132b8:	7d0c                	ld	a1,56(a0)
   132ba:	641c                	ld	a5,8(s0)
   132bc:	ec26                	sd	s1,24(sp)
   132be:	e44e                	sd	s3,8(sp)
   132c0:	f406                	sd	ra,40(sp)
   132c2:	40b90933          	sub	s2,s2,a1
   132c6:	84aa                	mv	s1,a0
   132c8:	89b2                	mv	s3,a2
   132ca:	0127f363          	bgeu	a5,s2,132d0 <sn_write+0x28>
   132ce:	893e                	mv	s2,a5
   132d0:	00090d63          	beqz	s2,132ea <sn_write+0x42>
   132d4:	6008                	ld	a0,0(s0)
   132d6:	864a                	mv	a2,s2
   132d8:	13c000ef          	jal	ra,13414 <memcpy>
   132dc:	601c                	ld	a5,0(s0)
   132de:	6410                	ld	a2,8(s0)
   132e0:	97ca                	add	a5,a5,s2
   132e2:	41260633          	sub	a2,a2,s2
   132e6:	e01c                	sd	a5,0(s0)
   132e8:	e410                	sd	a2,8(s0)
   132ea:	00843903          	ld	s2,8(s0)
   132ee:	0129f363          	bgeu	s3,s2,132f4 <sn_write+0x4c>
   132f2:	894e                	mv	s2,s3
   132f4:	00090e63          	beqz	s2,13310 <sn_write+0x68>
   132f8:	6008                	ld	a0,0(s0)
   132fa:	864a                	mv	a2,s2
   132fc:	85d2                	mv	a1,s4
   132fe:	116000ef          	jal	ra,13414 <memcpy>
   13302:	601c                	ld	a5,0(s0)
   13304:	6410                	ld	a2,8(s0)
   13306:	97ca                	add	a5,a5,s2
   13308:	41260633          	sub	a2,a2,s2
   1330c:	e01c                	sd	a5,0(s0)
   1330e:	e410                	sd	a2,8(s0)
   13310:	601c                	ld	a5,0(s0)
   13312:	854e                	mv	a0,s3
   13314:	00078023          	sb	zero,0(a5)
   13318:	6cbc                	ld	a5,88(s1)
   1331a:	70a2                	ld	ra,40(sp)
   1331c:	7402                	ld	s0,32(sp)
   1331e:	fc9c                	sd	a5,56(s1)
   13320:	f49c                	sd	a5,40(s1)
   13322:	6942                	ld	s2,16(sp)
   13324:	64e2                	ld	s1,24(sp)
   13326:	69a2                	ld	s3,8(sp)
   13328:	6a02                	ld	s4,0(sp)
   1332a:	6145                	addi	sp,sp,48
   1332c:	8082                	ret

000000000001332e <vsnprintf>:
   1332e:	7129                	addi	sp,sp,-320
   13330:	fa22                	sd	s0,304(sp)
   13332:	f626                	sd	s1,296(sp)
   13334:	f24a                	sd	s2,288(sp)
   13336:	ee4e                	sd	s3,280(sp)
   13338:	fe06                	sd	ra,312(sp)
   1333a:	842e                	mv	s0,a1
   1333c:	8932                	mv	s2,a2
   1333e:	89b6                	mv	s3,a3
   13340:	0804                	addi	s1,sp,16
   13342:	c191                	beqz	a1,13346 <vsnprintf+0x18>
   13344:	84aa                	mv	s1,a0
   13346:	ec26                	sd	s1,24(sp)
   13348:	4781                	li	a5,0
   1334a:	c019                	beqz	s0,13350 <vsnprintf+0x22>
   1334c:	fff40793          	addi	a5,s0,-1
   13350:	0e800613          	li	a2,232
   13354:	4581                	li	a1,0
   13356:	1028                	addi	a0,sp,40
   13358:	f03e                	sd	a5,32(sp)
   1335a:	502000ef          	jal	ra,1385c <memset>
   1335e:	67cd                	lui	a5,0x13
   13360:	2a878793          	addi	a5,a5,680 # 132a8 <sn_write>
   13364:	f8be                	sd	a5,112(sp)
   13366:	003c                	addi	a5,sp,8
   13368:	e13e                	sd	a5,128(sp)
   1336a:	57fd                	li	a5,-1
   1336c:	db3e                	sw	a5,180(sp)
   1336e:	dd3e                	sw	a5,184(sp)
   13370:	083c                	addi	a5,sp,24
   13372:	e1be                	sd	a5,192(sp)
   13374:	800007b7          	lui	a5,0x80000
   13378:	fff7c793          	not	a5,a5
   1337c:	0087ff63          	bgeu	a5,s0,1339a <vsnprintf+0x6c>
   13380:	bedfd0ef          	jal	ra,10f6c <__errno_location>
   13384:	04b00793          	li	a5,75
   13388:	c11c                	sw	a5,0(a0)
   1338a:	557d                	li	a0,-1
   1338c:	70f2                	ld	ra,312(sp)
   1338e:	7452                	ld	s0,304(sp)
   13390:	74b2                	ld	s1,296(sp)
   13392:	7912                	ld	s2,288(sp)
   13394:	69f2                	ld	s3,280(sp)
   13396:	6131                	addi	sp,sp,320
   13398:	8082                	ret
   1339a:	00048023          	sb	zero,0(s1)
   1339e:	864e                	mv	a2,s3
   133a0:	85ca                	mv	a1,s2
   133a2:	1028                	addi	a0,sp,40
   133a4:	007020ef          	jal	ra,15baa <vfprintf>
   133a8:	b7d5                	j	1338c <vsnprintf+0x5e>

00000000000133aa <vsprintf>:
   133aa:	86b2                	mv	a3,a2
   133ac:	862e                	mv	a2,a1
   133ae:	800005b7          	lui	a1,0x80000
   133b2:	fff5c593          	not	a1,a1
   133b6:	bfa5                	j	1332e <vsnprintf>

00000000000133b8 <atoi>:
   133b8:	87aa                	mv	a5,a0
   133ba:	02000593          	li	a1,32
   133be:	4691                	li	a3,4
   133c0:	0007c703          	lbu	a4,0(a5) # ffffffff80000000 <__BSS_END__+0xffffffff7ffe35e0>
   133c4:	02b70563          	beq	a4,a1,133ee <atoi+0x36>
   133c8:	ff77061b          	addiw	a2,a4,-9
   133cc:	02c6f163          	bgeu	a3,a2,133ee <atoi+0x36>
   133d0:	02b00693          	li	a3,43
   133d4:	00d70f63          	beq	a4,a3,133f2 <atoi+0x3a>
   133d8:	02d00613          	li	a2,45
   133dc:	4681                	li	a3,0
   133de:	00c71463          	bne	a4,a2,133e6 <atoi+0x2e>
   133e2:	4685                	li	a3,1
   133e4:	0785                	addi	a5,a5,1
   133e6:	4501                	li	a0,0
   133e8:	4625                	li	a2,9
   133ea:	4829                	li	a6,10
   133ec:	a809                	j	133fe <atoi+0x46>
   133ee:	0785                	addi	a5,a5,1
   133f0:	bfc1                	j	133c0 <atoi+0x8>
   133f2:	4681                	li	a3,0
   133f4:	bfc5                	j	133e4 <atoi+0x2c>
   133f6:	02a8053b          	mulw	a0,a6,a0
   133fa:	0785                	addi	a5,a5,1
   133fc:	9d19                	subw	a0,a0,a4
   133fe:	0007c703          	lbu	a4,0(a5)
   13402:	fd07059b          	addiw	a1,a4,-48
   13406:	872e                	mv	a4,a1
   13408:	feb677e3          	bgeu	a2,a1,133f6 <atoi+0x3e>
   1340c:	e299                	bnez	a3,13412 <atoi+0x5a>
   1340e:	40a0053b          	negw	a0,a0
   13412:	8082                	ret

0000000000013414 <memcpy>:
   13414:	0035f793          	andi	a5,a1,3
   13418:	3e078d63          	beqz	a5,13812 <memcpy+0x3fe>
   1341c:	22060063          	beqz	a2,1363c <memcpy+0x228>
   13420:	87aa                	mv	a5,a0
   13422:	a019                	j	13428 <memcpy+0x14>
   13424:	20060b63          	beqz	a2,1363a <memcpy+0x226>
   13428:	0005c683          	lbu	a3,0(a1) # ffffffff80000000 <__BSS_END__+0xffffffff7ffe35e0>
   1342c:	0585                	addi	a1,a1,1
   1342e:	0035f713          	andi	a4,a1,3
   13432:	00d78023          	sb	a3,0(a5)
   13436:	167d                	addi	a2,a2,-1
   13438:	0785                	addi	a5,a5,1
   1343a:	f76d                	bnez	a4,13424 <memcpy+0x10>
   1343c:	0037f813          	andi	a6,a5,3
   13440:	873e                	mv	a4,a5
   13442:	1e080e63          	beqz	a6,1363e <memcpy+0x22a>
   13446:	1141                	addi	sp,sp,-16
   13448:	e422                	sd	s0,8(sp)
   1344a:	e026                	sd	s1,0(sp)
   1344c:	477d                	li	a4,31
   1344e:	0ac77863          	bgeu	a4,a2,134fe <memcpy+0xea>
   13452:	4689                	li	a3,2
   13454:	0005c883          	lbu	a7,0(a1)
   13458:	4198                	lw	a4,0(a1)
   1345a:	30d80e63          	beq	a6,a3,13776 <memcpy+0x362>
   1345e:	468d                	li	a3,3
   13460:	28d80563          	beq	a6,a3,136ea <memcpy+0x2d6>
   13464:	0015c303          	lbu	t1,1(a1)
   13468:	0025c803          	lbu	a6,2(a1)
   1346c:	fec60693          	addi	a3,a2,-20
   13470:	ff06f393          	andi	t2,a3,-16
   13474:	00358413          	addi	s0,a1,3
   13478:	00378493          	addi	s1,a5,3
   1347c:	03cd                	addi	t2,t2,19
   1347e:	006780a3          	sb	t1,1(a5)
   13482:	01178023          	sb	a7,0(a5)
   13486:	01078123          	sb	a6,2(a5)
   1348a:	93be                	add	t2,t2,a5
   1348c:	0046d593          	srli	a1,a3,0x4
   13490:	8322                	mv	t1,s0
   13492:	87a6                	mv	a5,s1
   13494:	00132883          	lw	a7,1(t1)
   13498:	00532803          	lw	a6,5(t1)
   1349c:	00932683          	lw	a3,9(t1)
   134a0:	01875e1b          	srliw	t3,a4,0x18
   134a4:	00d32703          	lw	a4,13(t1)
   134a8:	0088929b          	slliw	t0,a7,0x8
   134ac:	00881f9b          	slliw	t6,a6,0x8
   134b0:	00869f1b          	slliw	t5,a3,0x8
   134b4:	0188d89b          	srliw	a7,a7,0x18
   134b8:	0188581b          	srliw	a6,a6,0x18
   134bc:	0186d69b          	srliw	a3,a3,0x18
   134c0:	00871e9b          	slliw	t4,a4,0x8
   134c4:	005e6e33          	or	t3,t3,t0
   134c8:	01f8e8b3          	or	a7,a7,t6
   134cc:	01e86833          	or	a6,a6,t5
   134d0:	01d6e6b3          	or	a3,a3,t4
   134d4:	01c7a023          	sw	t3,0(a5)
   134d8:	0117a223          	sw	a7,4(a5)
   134dc:	0107a423          	sw	a6,8(a5)
   134e0:	c7d4                	sw	a3,12(a5)
   134e2:	07c1                	addi	a5,a5,16
   134e4:	0341                	addi	t1,t1,16
   134e6:	fa7797e3          	bne	a5,t2,13494 <memcpy+0x80>
   134ea:	00158713          	addi	a4,a1,1
   134ee:	0712                	slli	a4,a4,0x4
   134f0:	0592                	slli	a1,a1,0x4
   134f2:	1635                	addi	a2,a2,-19
   134f4:	8e0d                	sub	a2,a2,a1
   134f6:	00e487b3          	add	a5,s1,a4
   134fa:	00e405b3          	add	a1,s0,a4
   134fe:	01067713          	andi	a4,a2,16
   13502:	00867893          	andi	a7,a2,8
   13506:	00467813          	andi	a6,a2,4
   1350a:	00267693          	andi	a3,a2,2
   1350e:	8a05                	andi	a2,a2,1
   13510:	34070263          	beqz	a4,13854 <memcpy+0x440>
   13514:	0005c403          	lbu	s0,0(a1)
   13518:	00e5c703          	lbu	a4,14(a1)
   1351c:	0085c383          	lbu	t2,8(a1)
   13520:	00878023          	sb	s0,0(a5)
   13524:	0015c403          	lbu	s0,1(a1)
   13528:	0095c283          	lbu	t0,9(a1)
   1352c:	00a5cf83          	lbu	t6,10(a1)
   13530:	008780a3          	sb	s0,1(a5)
   13534:	0025c403          	lbu	s0,2(a1)
   13538:	00b5cf03          	lbu	t5,11(a1)
   1353c:	00c5ce83          	lbu	t4,12(a1)
   13540:	00878123          	sb	s0,2(a5)
   13544:	0035c403          	lbu	s0,3(a1)
   13548:	00d5ce03          	lbu	t3,13(a1)
   1354c:	00f5c303          	lbu	t1,15(a1)
   13550:	008781a3          	sb	s0,3(a5)
   13554:	0045c403          	lbu	s0,4(a1)
   13558:	00e78723          	sb	a4,14(a5)
   1355c:	00778423          	sb	t2,8(a5)
   13560:	00878223          	sb	s0,4(a5)
   13564:	0055c403          	lbu	s0,5(a1)
   13568:	005784a3          	sb	t0,9(a5)
   1356c:	01f78523          	sb	t6,10(a5)
   13570:	008782a3          	sb	s0,5(a5)
   13574:	0065c403          	lbu	s0,6(a1)
   13578:	01e785a3          	sb	t5,11(a5)
   1357c:	01d78623          	sb	t4,12(a5)
   13580:	00878323          	sb	s0,6(a5)
   13584:	0075c403          	lbu	s0,7(a1)
   13588:	01c786a3          	sb	t3,13(a5)
   1358c:	05c1                	addi	a1,a1,16
   1358e:	008783a3          	sb	s0,7(a5)
   13592:	01078713          	addi	a4,a5,16
   13596:	006787a3          	sb	t1,15(a5)
   1359a:	26088a63          	beqz	a7,1380e <memcpy+0x3fa>
   1359e:	0065c783          	lbu	a5,6(a1)
   135a2:	0005c283          	lbu	t0,0(a1)
   135a6:	0015cf83          	lbu	t6,1(a1)
   135aa:	0025cf03          	lbu	t5,2(a1)
   135ae:	0035ce83          	lbu	t4,3(a1)
   135b2:	0045ce03          	lbu	t3,4(a1)
   135b6:	0055c303          	lbu	t1,5(a1)
   135ba:	0075c883          	lbu	a7,7(a1)
   135be:	00f70323          	sb	a5,6(a4)
   135c2:	00570023          	sb	t0,0(a4)
   135c6:	01f700a3          	sb	t6,1(a4)
   135ca:	01e70123          	sb	t5,2(a4)
   135ce:	01d701a3          	sb	t4,3(a4)
   135d2:	01c70223          	sb	t3,4(a4)
   135d6:	006702a3          	sb	t1,5(a4)
   135da:	05a1                	addi	a1,a1,8
   135dc:	00870793          	addi	a5,a4,8
   135e0:	011703a3          	sb	a7,7(a4)
   135e4:	26080663          	beqz	a6,13850 <memcpy+0x43c>
   135e8:	0025c703          	lbu	a4,2(a1)
   135ec:	0005c303          	lbu	t1,0(a1)
   135f0:	0015c883          	lbu	a7,1(a1)
   135f4:	0035c803          	lbu	a6,3(a1)
   135f8:	00e78123          	sb	a4,2(a5)
   135fc:	00678023          	sb	t1,0(a5)
   13600:	011780a3          	sb	a7,1(a5)
   13604:	0591                	addi	a1,a1,4
   13606:	00478713          	addi	a4,a5,4
   1360a:	010781a3          	sb	a6,3(a5)
   1360e:	1e068e63          	beqz	a3,1380a <memcpy+0x3f6>
   13612:	0005c783          	lbu	a5,0(a1)
   13616:	0015c683          	lbu	a3,1(a1)
   1361a:	0589                	addi	a1,a1,2
   1361c:	00f70023          	sb	a5,0(a4)
   13620:	00d700a3          	sb	a3,1(a4)
   13624:	00270793          	addi	a5,a4,2
   13628:	c609                	beqz	a2,13632 <memcpy+0x21e>
   1362a:	0005c703          	lbu	a4,0(a1)
   1362e:	00e78023          	sb	a4,0(a5)
   13632:	6422                	ld	s0,8(sp)
   13634:	6482                	ld	s1,0(sp)
   13636:	0141                	addi	sp,sp,16
   13638:	8082                	ret
   1363a:	8082                	ret
   1363c:	8082                	ret
   1363e:	46bd                	li	a3,15
   13640:	04c6f963          	bgeu	a3,a2,13692 <memcpy+0x27e>
   13644:	00b7e6b3          	or	a3,a5,a1
   13648:	8a9d                	andi	a3,a3,7
   1364a:	ff060e93          	addi	t4,a2,-16
   1364e:	1c069463          	bnez	a3,13816 <memcpy+0x402>
   13652:	020eb693          	sltiu	a3,t4,32
   13656:	0016c693          	xori	a3,a3,1
   1365a:	0ff6f693          	andi	a3,a3,255
   1365e:	1a068c63          	beqz	a3,13816 <memcpy+0x402>
   13662:	004ede93          	srli	t4,t4,0x4
   13666:	001e8e13          	addi	t3,t4,1
   1366a:	86ae                	mv	a3,a1
   1366c:	0086b303          	ld	t1,8(a3) # ffffffffc0000008 <__BSS_END__+0xffffffffbffe35e8>
   13670:	0006b883          	ld	a7,0(a3)
   13674:	0805                	addi	a6,a6,1
   13676:	00673423          	sd	t1,8(a4)
   1367a:	01173023          	sd	a7,0(a4)
   1367e:	06c1                	addi	a3,a3,16
   13680:	0741                	addi	a4,a4,16
   13682:	ffc865e3          	bltu	a6,t3,1366c <memcpy+0x258>
   13686:	001e8713          	addi	a4,t4,1
   1368a:	0712                	slli	a4,a4,0x4
   1368c:	8a3d                	andi	a2,a2,15
   1368e:	97ba                	add	a5,a5,a4
   13690:	95ba                	add	a1,a1,a4
   13692:	00867813          	andi	a6,a2,8
   13696:	00467693          	andi	a3,a2,4
   1369a:	00267713          	andi	a4,a2,2
   1369e:	8a05                	andi	a2,a2,1
   136a0:	00080c63          	beqz	a6,136b8 <memcpy+0x2a4>
   136a4:	0005a883          	lw	a7,0(a1)
   136a8:	0045a803          	lw	a6,4(a1)
   136ac:	07a1                	addi	a5,a5,8
   136ae:	05a1                	addi	a1,a1,8
   136b0:	ff17ac23          	sw	a7,-8(a5)
   136b4:	ff07ae23          	sw	a6,-4(a5)
   136b8:	c691                	beqz	a3,136c4 <memcpy+0x2b0>
   136ba:	4194                	lw	a3,0(a1)
   136bc:	0791                	addi	a5,a5,4
   136be:	0591                	addi	a1,a1,4
   136c0:	fed7ae23          	sw	a3,-4(a5)
   136c4:	18070a63          	beqz	a4,13858 <memcpy+0x444>
   136c8:	0005c703          	lbu	a4,0(a1)
   136cc:	0015c683          	lbu	a3,1(a1)
   136d0:	0589                	addi	a1,a1,2
   136d2:	00e78023          	sb	a4,0(a5)
   136d6:	00d780a3          	sb	a3,1(a5)
   136da:	00278713          	addi	a4,a5,2
   136de:	de39                	beqz	a2,1363c <memcpy+0x228>
   136e0:	0005c783          	lbu	a5,0(a1)
   136e4:	00f70023          	sb	a5,0(a4)
   136e8:	8082                	ret
   136ea:	fec60693          	addi	a3,a2,-20
   136ee:	ff06f393          	andi	t2,a3,-16
   136f2:	00158413          	addi	s0,a1,1
   136f6:	00178493          	addi	s1,a5,1
   136fa:	03c5                	addi	t2,t2,17
   136fc:	01178023          	sb	a7,0(a5)
   13700:	93be                	add	t2,t2,a5
   13702:	0046d593          	srli	a1,a3,0x4
   13706:	8322                	mv	t1,s0
   13708:	87a6                	mv	a5,s1
   1370a:	00332883          	lw	a7,3(t1)
   1370e:	00732803          	lw	a6,7(t1)
   13712:	00b32683          	lw	a3,11(t1)
   13716:	00875e1b          	srliw	t3,a4,0x8
   1371a:	00f32703          	lw	a4,15(t1)
   1371e:	0188929b          	slliw	t0,a7,0x18
   13722:	01881f9b          	slliw	t6,a6,0x18
   13726:	01869f1b          	slliw	t5,a3,0x18
   1372a:	0088d89b          	srliw	a7,a7,0x8
   1372e:	0088581b          	srliw	a6,a6,0x8
   13732:	0086d69b          	srliw	a3,a3,0x8
   13736:	01871e9b          	slliw	t4,a4,0x18
   1373a:	005e6e33          	or	t3,t3,t0
   1373e:	01f8e8b3          	or	a7,a7,t6
   13742:	01e86833          	or	a6,a6,t5
   13746:	01d6e6b3          	or	a3,a3,t4
   1374a:	01c7a023          	sw	t3,0(a5)
   1374e:	0117a223          	sw	a7,4(a5)
   13752:	0107a423          	sw	a6,8(a5)
   13756:	c7d4                	sw	a3,12(a5)
   13758:	07c1                	addi	a5,a5,16
   1375a:	0341                	addi	t1,t1,16
   1375c:	fa7797e3          	bne	a5,t2,1370a <memcpy+0x2f6>
   13760:	00158713          	addi	a4,a1,1
   13764:	0712                	slli	a4,a4,0x4
   13766:	0592                	slli	a1,a1,0x4
   13768:	163d                	addi	a2,a2,-17
   1376a:	8e0d                	sub	a2,a2,a1
   1376c:	00e487b3          	add	a5,s1,a4
   13770:	00e405b3          	add	a1,s0,a4
   13774:	b369                	j	134fe <memcpy+0xea>
   13776:	0015c803          	lbu	a6,1(a1)
   1377a:	fec60693          	addi	a3,a2,-20
   1377e:	ff06f393          	andi	t2,a3,-16
   13782:	00258413          	addi	s0,a1,2
   13786:	00278493          	addi	s1,a5,2
   1378a:	03c9                	addi	t2,t2,18
   1378c:	01178023          	sb	a7,0(a5)
