
entry-static.exe:     file format elf64-littleriscv


Disassembly of section .text:

0000000000010158 <exit>:
   10158:	1101                	addi	sp,sp,-32
   1015a:	e42a                	sd	a0,8(sp)
   1015c:	ec06                	sd	ra,24(sp)
   1015e:	235160ef          	jal	ra,26b92 <__funcs_on_exit>
   10162:	233160ef          	jal	ra,26b94 <__libc_exit_fini>
   10166:	1b42f0ef          	jal	ra,3f31a <__stdio_exit>
   1016a:	6522                	ld	a0,8(sp)
   1016c:	1b9160ef          	jal	ra,26b24 <_Exit>

0000000000010170 <argv_main>:

#define TEST(c, ...) \
	( (c) || (t_error(#c " failed: " __VA_ARGS__),0) )

int main(int argc, char **argv)
{
   10170:	1101                	addi	sp,sp,-32
   10172:	72fd                	lui	t0,0xfffff
   10174:	e822                	sd	s0,16(sp)
   10176:	ec06                	sd	ra,24(sp)
   10178:	02c1                	addi	t0,t0,16
	char buf[PATH_MAX];
	TEST(argc == 1, "argc should be 1\n");
   1017a:	4785                	li	a5,1
{
   1017c:	9116                	add	sp,sp,t0
   1017e:	842e                	mv	s0,a1
	TEST(argc == 1, "argc should be 1\n");
   10180:	00f50863          	beq	a0,a5,10190 <argv_main+0x20>
   10184:	00042537          	lui	a0,0x42
   10188:	5b850513          	addi	a0,a0,1464 # 425b8 <CSWTCH.18+0x130>
   1018c:	47a130ef          	jal	ra,23606 <t_printf>
	TEST(argv[0] != 0, "argv[0] should not be NULL\n");
   10190:	601c                	ld	a5,0(s0)
   10192:	e799                	bnez	a5,101a0 <argv_main+0x30>
   10194:	00042537          	lui	a0,0x42
   10198:	5f850513          	addi	a0,a0,1528 # 425f8 <CSWTCH.18+0x170>
   1019c:	46a130ef          	jal	ra,23606 <t_printf>
	TEST(argv[1] == 0, "argv[1] should be NULL\n");
   101a0:	641c                	ld	a5,8(s0)
   101a2:	c799                	beqz	a5,101b0 <argv_main+0x40>
   101a4:	00042537          	lui	a0,0x42
   101a8:	64850513          	addi	a0,a0,1608 # 42648 <CSWTCH.18+0x1c0>
   101ac:	45a130ef          	jal	ra,23606 <t_printf>
	TEST(argv[0][0] != 0, "argv[0] should not be empty\n");
   101b0:	601c                	ld	a5,0(s0)
   101b2:	0007c783          	lbu	a5,0(a5)
   101b6:	e799                	bnez	a5,101c4 <argv_main+0x54>
   101b8:	00042537          	lui	a0,0x42
   101bc:	69050513          	addi	a0,a0,1680 # 42690 <CSWTCH.18+0x208>
   101c0:	446130ef          	jal	ra,23606 <t_printf>
	TEST(snprintf(buf, sizeof buf, "%s", argv[0]) < sizeof buf, "argv[0] is not a valid path\n");
   101c4:	6014                	ld	a3,0(s0)
   101c6:	6785                	lui	a5,0x1
   101c8:	978a                	add	a5,a5,sp
   101ca:	00042637          	lui	a2,0x42
   101ce:	757d                	lui	a0,0xfffff
   101d0:	953e                	add	a0,a0,a5
   101d2:	3c860613          	addi	a2,a2,968 # 423c8 <__clzdi2+0xae>
   101d6:	6585                	lui	a1,0x1
   101d8:	7e31f0ef          	jal	ra,301ba <snprintf>
   101dc:	2501                	sext.w	a0,a0
   101de:	6785                	lui	a5,0x1
   101e0:	00f56863          	bltu	a0,a5,101f0 <argv_main+0x80>
   101e4:	00042537          	lui	a0,0x42
   101e8:	6e050513          	addi	a0,a0,1760 # 426e0 <CSWTCH.18+0x258>
   101ec:	41a130ef          	jal	ra,23606 <t_printf>
	return t_status;
}
   101f0:	6285                	lui	t0,0x1
   101f2:	12c1                	addi	t0,t0,-16
	return t_status;
   101f4:	b801a503          	lw	a0,-1152(gp) # 98a08 <_edata>
}
   101f8:	9116                	add	sp,sp,t0
   101fa:	60e2                	ld	ra,24(sp)
   101fc:	6442                	ld	s0,16(sp)
   101fe:	2501                	sext.w	a0,a0
   10200:	6105                	addi	sp,sp,32
   10202:	8082                	ret

0000000000010204 <basename_main>:
	if (strcmp(want, got) != 0) \
		t_error("basename(\"%s\") got \"%s\" want \"%s\"\n", path, got, want); \
}

int main()
{
   10204:	7171                	addi	sp,sp,-176
	if (strcmp(basename(0), ".") != 0)
   10206:	4501                	li	a0,0
{
   10208:	f122                	sd	s0,160(sp)
   1020a:	f506                	sd	ra,168(sp)
   1020c:	ed26                	sd	s1,152(sp)
   1020e:	e94a                	sd	s2,144(sp)
   10210:	e54e                	sd	s3,136(sp)
	if (strcmp(basename(0), ".") != 0)
   10212:	00042437          	lui	s0,0x42
   10216:	34b180ef          	jal	ra,28d60 <basename>
   1021a:	75840593          	addi	a1,s0,1880 # 42758 <CSWTCH.18+0x2d0>
   1021e:	6d0230ef          	jal	ra,338ee <strcmp>
   10222:	c919                	beqz	a0,10238 <basename_main+0x34>
		t_error("basename(0) returned \"%s\"; expected \".\"\n", basename(0));
   10224:	4501                	li	a0,0
   10226:	33b180ef          	jal	ra,28d60 <basename>
   1022a:	85aa                	mv	a1,a0
   1022c:	00042537          	lui	a0,0x42
   10230:	76050513          	addi	a0,a0,1888 # 42760 <CSWTCH.18+0x2d8>
   10234:	3d2130ef          	jal	ra,23606 <t_printf>
	T("", ".");
   10238:	0005f4b7          	lui	s1,0x5f
   1023c:	5a848593          	addi	a1,s1,1448 # 5f5a8 <t+0x1758>
   10240:	0828                	addi	a0,sp,24
   10242:	6ca230ef          	jal	ra,3390c <strcpy>
   10246:	31b180ef          	jal	ra,28d60 <basename>
   1024a:	85aa                	mv	a1,a0
   1024c:	e42a                	sd	a0,8(sp)
   1024e:	75840513          	addi	a0,s0,1880
   10252:	69c230ef          	jal	ra,338ee <strcmp>
   10256:	6622                	ld	a2,8(sp)
   10258:	c919                	beqz	a0,1026e <basename_main+0x6a>
   1025a:	00042537          	lui	a0,0x42
   1025e:	75840693          	addi	a3,s0,1880
   10262:	5a848593          	addi	a1,s1,1448
   10266:	7a850513          	addi	a0,a0,1960 # 427a8 <CSWTCH.18+0x320>
   1026a:	39c130ef          	jal	ra,23606 <t_printf>
	T("/usr/lib", "lib");
   1026e:	000424b7          	lui	s1,0x42
   10272:	7f048593          	addi	a1,s1,2032 # 427f0 <CSWTCH.18+0x368>
   10276:	0828                	addi	a0,sp,24
   10278:	694230ef          	jal	ra,3390c <strcpy>
   1027c:	2e5180ef          	jal	ra,28d60 <basename>
   10280:	00043937          	lui	s2,0x43
   10284:	85aa                	mv	a1,a0
   10286:	e42a                	sd	a0,8(sp)
   10288:	80090513          	addi	a0,s2,-2048 # 42800 <CSWTCH.18+0x378>
   1028c:	662230ef          	jal	ra,338ee <strcmp>
   10290:	6622                	ld	a2,8(sp)
   10292:	c919                	beqz	a0,102a8 <basename_main+0xa4>
   10294:	00043537          	lui	a0,0x43
   10298:	80090693          	addi	a3,s2,-2048
   1029c:	7f048593          	addi	a1,s1,2032
   102a0:	80850513          	addi	a0,a0,-2040 # 42808 <CSWTCH.18+0x380>
   102a4:	362130ef          	jal	ra,23606 <t_printf>
	T("/usr/", "usr");
   102a8:	000439b7          	lui	s3,0x43
   102ac:	85098593          	addi	a1,s3,-1968 # 42850 <CSWTCH.18+0x3c8>
   102b0:	0828                	addi	a0,sp,24
   102b2:	65a230ef          	jal	ra,3390c <strcpy>
   102b6:	2ab180ef          	jal	ra,28d60 <basename>
   102ba:	000434b7          	lui	s1,0x43
   102be:	85aa                	mv	a1,a0
   102c0:	e42a                	sd	a0,8(sp)
   102c2:	85848513          	addi	a0,s1,-1960 # 42858 <CSWTCH.18+0x3d0>
   102c6:	628230ef          	jal	ra,338ee <strcmp>
   102ca:	6622                	ld	a2,8(sp)
   102cc:	c919                	beqz	a0,102e2 <basename_main+0xde>
   102ce:	00043537          	lui	a0,0x43
   102d2:	85848693          	addi	a3,s1,-1960
   102d6:	85098593          	addi	a1,s3,-1968
   102da:	86050513          	addi	a0,a0,-1952 # 42860 <CSWTCH.18+0x3d8>
   102de:	328130ef          	jal	ra,23606 <t_printf>
	T("usr/", "usr");
   102e2:	000439b7          	lui	s3,0x43
   102e6:	8a898593          	addi	a1,s3,-1880 # 428a8 <CSWTCH.18+0x420>
   102ea:	0828                	addi	a0,sp,24
   102ec:	620230ef          	jal	ra,3390c <strcpy>
   102f0:	271180ef          	jal	ra,28d60 <basename>
   102f4:	85aa                	mv	a1,a0
   102f6:	e42a                	sd	a0,8(sp)
   102f8:	85848513          	addi	a0,s1,-1960
   102fc:	5f2230ef          	jal	ra,338ee <strcmp>
   10300:	6622                	ld	a2,8(sp)
   10302:	c919                	beqz	a0,10318 <basename_main+0x114>
   10304:	00043537          	lui	a0,0x43
   10308:	85848693          	addi	a3,s1,-1960
   1030c:	8a898593          	addi	a1,s3,-1880
   10310:	8b050513          	addi	a0,a0,-1872 # 428b0 <CSWTCH.18+0x428>
   10314:	2f2130ef          	jal	ra,23606 <t_printf>
	T("/", "/");
   10318:	000904b7          	lui	s1,0x90
   1031c:	16048593          	addi	a1,s1,352 # 90160 <__pow_log_data+0x1050>
   10320:	0828                	addi	a0,sp,24
   10322:	5ea230ef          	jal	ra,3390c <strcpy>
   10326:	23b180ef          	jal	ra,28d60 <basename>
   1032a:	85aa                	mv	a1,a0
   1032c:	e42a                	sd	a0,8(sp)
   1032e:	16048513          	addi	a0,s1,352
   10332:	5bc230ef          	jal	ra,338ee <strcmp>
   10336:	6622                	ld	a2,8(sp)
   10338:	c919                	beqz	a0,1034e <basename_main+0x14a>
   1033a:	00043537          	lui	a0,0x43
   1033e:	16048693          	addi	a3,s1,352
   10342:	16048593          	addi	a1,s1,352
   10346:	8f850513          	addi	a0,a0,-1800 # 428f8 <CSWTCH.18+0x470>
   1034a:	2bc130ef          	jal	ra,23606 <t_printf>
	T("///", "/");
   1034e:	000439b7          	lui	s3,0x43
   10352:	94098593          	addi	a1,s3,-1728 # 42940 <CSWTCH.18+0x4b8>
   10356:	0828                	addi	a0,sp,24
   10358:	5b4230ef          	jal	ra,3390c <strcpy>
   1035c:	205180ef          	jal	ra,28d60 <basename>
   10360:	85aa                	mv	a1,a0
   10362:	e42a                	sd	a0,8(sp)
   10364:	16048513          	addi	a0,s1,352
   10368:	586230ef          	jal	ra,338ee <strcmp>
   1036c:	6622                	ld	a2,8(sp)
   1036e:	c919                	beqz	a0,10384 <basename_main+0x180>
   10370:	00043537          	lui	a0,0x43
   10374:	16048693          	addi	a3,s1,352
   10378:	94098593          	addi	a1,s3,-1728
   1037c:	94850513          	addi	a0,a0,-1720 # 42948 <CSWTCH.18+0x4c0>
   10380:	286130ef          	jal	ra,23606 <t_printf>
	T("//usr//lib//", "lib");
   10384:	000434b7          	lui	s1,0x43
   10388:	99048593          	addi	a1,s1,-1648 # 42990 <CSWTCH.18+0x508>
   1038c:	0828                	addi	a0,sp,24
   1038e:	57e230ef          	jal	ra,3390c <strcpy>
   10392:	1cf180ef          	jal	ra,28d60 <basename>
   10396:	85aa                	mv	a1,a0
   10398:	e42a                	sd	a0,8(sp)
   1039a:	80090513          	addi	a0,s2,-2048
   1039e:	550230ef          	jal	ra,338ee <strcmp>
   103a2:	6622                	ld	a2,8(sp)
   103a4:	c919                	beqz	a0,103ba <basename_main+0x1b6>
   103a6:	00043537          	lui	a0,0x43
   103aa:	80090693          	addi	a3,s2,-2048
   103ae:	99048593          	addi	a1,s1,-1648
   103b2:	9a050513          	addi	a0,a0,-1632 # 429a0 <CSWTCH.18+0x518>
   103b6:	250130ef          	jal	ra,23606 <t_printf>
	T(".", ".");
   103ba:	75840593          	addi	a1,s0,1880
   103be:	0828                	addi	a0,sp,24
   103c0:	54c230ef          	jal	ra,3390c <strcpy>
   103c4:	19d180ef          	jal	ra,28d60 <basename>
   103c8:	85aa                	mv	a1,a0
   103ca:	e42a                	sd	a0,8(sp)
   103cc:	75840513          	addi	a0,s0,1880
   103d0:	51e230ef          	jal	ra,338ee <strcmp>
   103d4:	6622                	ld	a2,8(sp)
   103d6:	c919                	beqz	a0,103ec <basename_main+0x1e8>
   103d8:	00043537          	lui	a0,0x43
   103dc:	75840693          	addi	a3,s0,1880
   103e0:	75840593          	addi	a1,s0,1880
   103e4:	9e850513          	addi	a0,a0,-1560 # 429e8 <CSWTCH.18+0x560>
   103e8:	21e130ef          	jal	ra,23606 <t_printf>
	T("..", "..");
   103ec:	00043437          	lui	s0,0x43
   103f0:	45040593          	addi	a1,s0,1104 # 43450 <CSWTCH.18+0xfc8>
   103f4:	0828                	addi	a0,sp,24
   103f6:	516230ef          	jal	ra,3390c <strcpy>
   103fa:	167180ef          	jal	ra,28d60 <basename>
   103fe:	85aa                	mv	a1,a0
   10400:	e42a                	sd	a0,8(sp)
   10402:	45040513          	addi	a0,s0,1104
   10406:	4e8230ef          	jal	ra,338ee <strcmp>
   1040a:	6622                	ld	a2,8(sp)
   1040c:	c919                	beqz	a0,10422 <basename_main+0x21e>
   1040e:	00043537          	lui	a0,0x43
   10412:	45040693          	addi	a3,s0,1104
   10416:	45040593          	addi	a1,s0,1104
   1041a:	a3050513          	addi	a0,a0,-1488 # 42a30 <CSWTCH.18+0x5a8>
   1041e:	1e8130ef          	jal	ra,23606 <t_printf>
	return t_status;
   10422:	b801a503          	lw	a0,-1152(gp) # 98a08 <_edata>
}
   10426:	70aa                	ld	ra,168(sp)
   10428:	740a                	ld	s0,160(sp)
   1042a:	64ea                	ld	s1,152(sp)
   1042c:	694a                	ld	s2,144(sp)
   1042e:	69aa                	ld	s3,136(sp)
   10430:	2501                	sext.w	a0,a0
   10432:	614d                	addi	sp,sp,176
   10434:	8082                	ret

0000000000010436 <clocale_mbfuncs_main>:
#include <langinfo.h>
#include <limits.h>
#include "test.h"

int main(void)
{
   10436:	81010113          	addi	sp,sp,-2032
	char s[MB_LEN_MAX*256];
	size_t rv;
	int c;
	int ni_errors=0;

	setlocale(LC_CTYPE, "C");
   1043a:	000435b7          	lui	a1,0x43
{
   1043e:	7e113423          	sd	ra,2024(sp)
   10442:	7e813023          	sd	s0,2016(sp)
   10446:	7c913c23          	sd	s1,2008(sp)
   1044a:	7d213823          	sd	s2,2000(sp)
   1044e:	7d313423          	sd	s3,1992(sp)
   10452:	7d413023          	sd	s4,1984(sp)
   10456:	7b513c23          	sd	s5,1976(sp)
   1045a:	7b613823          	sd	s6,1968(sp)
   1045e:	7b713423          	sd	s7,1960(sp)
   10462:	7b813023          	sd	s8,1952(sp)
   10466:	79913c23          	sd	s9,1944(sp)
	setlocale(LC_CTYPE, "C");
   1046a:	a7858593          	addi	a1,a1,-1416 # 42a78 <CSWTCH.18+0x5f0>
{
   1046e:	b6010113          	addi	sp,sp,-1184
	setlocale(LC_CTYPE, "C");
   10472:	4501                	li	a0,0
   10474:	639170ef          	jal	ra,282ac <setlocale>

	if (MB_CUR_MAX != 1) t_error("MB_CUR_MAX = %d, expected 1\n", (int)MB_CUR_MAX);
   10478:	621150ef          	jal	ra,26298 <__ctype_get_mb_cur_max>
   1047c:	4785                	li	a5,1
   1047e:	00f50c63          	beq	a0,a5,10496 <clocale_mbfuncs_main+0x60>
   10482:	617150ef          	jal	ra,26298 <__ctype_get_mb_cur_max>
   10486:	0005059b          	sext.w	a1,a0
   1048a:	00043537          	lui	a0,0x43
   1048e:	a8050513          	addi	a0,a0,-1408 # 42a80 <CSWTCH.18+0x5f8>
   10492:	174130ef          	jal	ra,23606 <t_printf>
   10496:	6785                	lui	a5,0x1
   10498:	757d                	lui	a0,0xfffff
   1049a:	c3078713          	addi	a4,a5,-976 # c30 <c1+0xc1a>
   1049e:	7f050413          	addi	s0,a0,2032 # fffffffffffff7f0 <__BSS_END__+0xffffffffffe61610>
   104a2:	970a                	add	a4,a4,sp
   104a4:	943a                	add	s0,s0,a4

	for (i=0; i<256; i++) {
		st = (mbstate_t){0};
		if (mbrtowc(&wc, &(char){i}, 1, &st) != !!i)
   104a6:	c3078713          	addi	a4,a5,-976
   104aa:	3e050a93          	addi	s5,a0,992
   104ae:	970a                	add	a4,a4,sp
   104b0:	3dc50513          	addi	a0,a0,988
{
   104b4:	89a2                	mv	s3,s0
   104b6:	4481                	li	s1,0
		if (mbrtowc(&wc, &(char){i}, 1, &st) != !!i)
   104b8:	9aba                	add	s5,s5,a4
   104ba:	00a70933          	add	s2,a4,a0
			t_error("mbrtowc failed to convert byte %.2x to wchar_t\n", i);
   104be:	00043bb7          	lui	s7,0x43
			t_error("btowc failed to convert byte %.2x to wchar_t\n", i);
			continue;
		}
		for (j=0; j<i; j++) {
			if (map[j]==map[i])
				t_error("bytes %.2x and %.2x map to same wchar_t %.4x\n", j, i, (unsigned)map[i]);
   104c2:	00043c37          	lui	s8,0x43
			t_error("btowc failed to convert byte %.2x to wchar_t\n", i);
   104c6:	00043cb7          	lui	s9,0x43
		if (mbrtowc(&wc, &(char){i}, 1, &st) != !!i)
   104ca:	6705                	lui	a4,0x1
   104cc:	82870793          	addi	a5,a4,-2008 # 828 <c1+0x812>
   104d0:	978a                	add	a5,a5,sp
   104d2:	85be                	mv	a1,a5
   104d4:	86d6                	mv	a3,s5
   104d6:	4605                	li	a2,1
   104d8:	854a                	mv	a0,s2
   104da:	00978023          	sb	s1,0(a5)
		st = (mbstate_t){0};
   104de:	e802                	sd	zero,16(sp)
		if (mbrtowc(&wc, &(char){i}, 1, &st) != !!i)
   104e0:	455180ef          	jal	ra,29134 <mbrtowc>
   104e4:	009037b3          	snez	a5,s1
   104e8:	00f50763          	beq	a0,a5,104f6 <clocale_mbfuncs_main+0xc0>
			t_error("mbrtowc failed to convert byte %.2x to wchar_t\n", i);
   104ec:	85a6                	mv	a1,s1
   104ee:	ac8b8513          	addi	a0,s7,-1336 # 42ac8 <CSWTCH.18+0x640>
   104f2:	114130ef          	jal	ra,23606 <t_printf>
		if ((map[i]=btowc(i)) == WEOF) {
   104f6:	8526                	mv	a0,s1
   104f8:	40d180ef          	jal	ra,29104 <btowc>
   104fc:	2501                	sext.w	a0,a0
   104fe:	00a9a023          	sw	a0,0(s3)
   10502:	57fd                	li	a5,-1
   10504:	38f51f63          	bne	a0,a5,108a2 <clocale_mbfuncs_main+0x46c>
			t_error("btowc failed to convert byte %.2x to wchar_t\n", i);
   10508:	85a6                	mv	a1,s1
   1050a:	b20c8513          	addi	a0,s9,-1248 # 42b20 <CSWTCH.18+0x698>
   1050e:	0f8130ef          	jal	ra,23606 <t_printf>
	for (i=0; i<256; i++) {
   10512:	2485                	addiw	s1,s1,1
   10514:	10000793          	li	a5,256
   10518:	0991                	addi	s3,s3,4
   1051a:	faf498e3          	bne	s1,a5,104ca <clocale_mbfuncs_main+0x94>
   1051e:	8922                	mv	s2,s0
		}
	}

	for (i=0; i<256; i++) {
   10520:	4481                	li	s1,0
		if (map[i]==WEOF) continue;
   10522:	5a7d                	li	s4,-1
		if (wctob(map[i]) != i)
			t_error("wctob failed to convert wchar_t %.4x back to byte %.2x\n", (unsigned)map[i], i);
   10524:	00043ab7          	lui	s5,0x43
	for (i=0; i<256; i++) {
   10528:	10000993          	li	s3,256
		if (map[i]==WEOF) continue;
   1052c:	00092503          	lw	a0,0(s2)
   10530:	01450d63          	beq	a0,s4,1054a <clocale_mbfuncs_main+0x114>
		if (wctob(map[i]) != i)
   10534:	190190ef          	jal	ra,296c4 <wctob>
   10538:	00950963          	beq	a0,s1,1054a <clocale_mbfuncs_main+0x114>
			t_error("wctob failed to convert wchar_t %.4x back to byte %.2x\n", (unsigned)map[i], i);
   1053c:	00092583          	lw	a1,0(s2)
   10540:	8626                	mv	a2,s1
   10542:	bd0a8513          	addi	a0,s5,-1072 # 42bd0 <CSWTCH.18+0x748>
   10546:	0c0130ef          	jal	ra,23606 <t_printf>
	for (i=0; i<256; i++) {
   1054a:	2485                	addiw	s1,s1,1
   1054c:	0911                	addi	s2,s2,4
   1054e:	fd349fe3          	bne	s1,s3,1052c <clocale_mbfuncs_main+0xf6>
	}

	/* covering whole 32-bit range would be too slow... maybe add random high tests? */
	for (i=0; i<0x110000; i++) {
		if (wcschr(map+1, i)) continue;
   10552:	6705                	lui	a4,0x1
   10554:	c3070693          	addi	a3,a4,-976 # c30 <c1+0xc1a>
   10558:	77fd                	lui	a5,0xfffff
   1055a:	968a                	add	a3,a3,sp
   1055c:	00f68ab3          	add	s5,a3,a5
		if ((c=wctob(i)) != WEOF && ni_errors++ < 50)
			t_error("wctob accepted non-image wchar_t %.4x as byte %.2x\n", i, c);
		st = (mbstate_t){0};
   10560:	c3070693          	addi	a3,a4,-976
   10564:	968a                	add	a3,a3,sp
   10566:	00f68bb3          	add	s7,a3,a5
		if (wcrtomb(s, i, &st) != -1  && ni_errors++ < 50)
   1056a:	c3070693          	addi	a3,a4,-976
   1056e:	3e078b13          	addi	s6,a5,992 # fffffffffffff3e0 <__BSS_END__+0xffffffffffe61200>
   10572:	968a                	add	a3,a3,sp
   10574:	3f078793          	addi	a5,a5,1008
	int ni_errors=0;
   10578:	4901                	li	s2,0
	for (i=0; i<0x110000; i++) {
   1057a:	4481                	li	s1,0
		if (wcschr(map+1, i)) continue;
   1057c:	7f4a8a93          	addi	s5,s5,2036
		if (wcrtomb(s, i, &st) != -1  && ni_errors++ < 50)
   10580:	9b36                	add	s6,s6,a3
   10582:	00f689b3          	add	s3,a3,a5
			t_error("wcrtomb accepted non-image wchar_t %.4x\n", i);
   10586:	00043c37          	lui	s8,0x43
			t_error("wctob accepted non-image wchar_t %.4x as byte %.2x\n", i, c);
   1058a:	00043cb7          	lui	s9,0x43
		if (wcschr(map+1, i)) continue;
   1058e:	85a6                	mv	a1,s1
   10590:	8556                	mv	a0,s5
   10592:	4af230ef          	jal	ra,34240 <wcschr>
   10596:	e931                	bnez	a0,105ea <clocale_mbfuncs_main+0x1b4>
		if ((c=wctob(i)) != WEOF && ni_errors++ < 50)
   10598:	8526                	mv	a0,s1
   1059a:	12a190ef          	jal	ra,296c4 <wctob>
   1059e:	57fd                	li	a5,-1
   105a0:	862a                	mv	a2,a0
   105a2:	8a4a                	mv	s4,s2
   105a4:	00f50d63          	beq	a0,a5,105be <clocale_mbfuncs_main+0x188>
   105a8:	03100793          	li	a5,49
   105ac:	00190a1b          	addiw	s4,s2,1
   105b0:	0127c763          	blt	a5,s2,105be <clocale_mbfuncs_main+0x188>
			t_error("wctob accepted non-image wchar_t %.4x as byte %.2x\n", i, c);
   105b4:	85a6                	mv	a1,s1
   105b6:	c30c8513          	addi	a0,s9,-976 # 42c30 <CSWTCH.18+0x7a8>
   105ba:	04c130ef          	jal	ra,23606 <t_printf>
		if (wcrtomb(s, i, &st) != -1  && ni_errors++ < 50)
   105be:	865a                	mv	a2,s6
   105c0:	85a6                	mv	a1,s1
   105c2:	854e                	mv	a0,s3
		st = (mbstate_t){0};
   105c4:	3e0bb023          	sd	zero,992(s7)
		if (wcrtomb(s, i, &st) != -1  && ni_errors++ < 50)
   105c8:	703180ef          	jal	ra,294ca <wcrtomb>
   105cc:	57fd                	li	a5,-1
   105ce:	8952                	mv	s2,s4
   105d0:	00f50d63          	beq	a0,a5,105ea <clocale_mbfuncs_main+0x1b4>
   105d4:	03100793          	li	a5,49
   105d8:	001a091b          	addiw	s2,s4,1
   105dc:	0147c763          	blt	a5,s4,105ea <clocale_mbfuncs_main+0x1b4>
			t_error("wcrtomb accepted non-image wchar_t %.4x\n", i);
   105e0:	85a6                	mv	a1,s1
   105e2:	c90c0513          	addi	a0,s8,-880 # 42c90 <CSWTCH.18+0x808>
   105e6:	020130ef          	jal	ra,23606 <t_printf>
	for (i=0; i<0x110000; i++) {
   105ea:	2485                	addiw	s1,s1,1
   105ec:	001107b7          	lui	a5,0x110
   105f0:	f8f49fe3          	bne	s1,a5,1058e <clocale_mbfuncs_main+0x158>
	}
	if (ni_errors > 50)
   105f4:	03200793          	li	a5,50
   105f8:	0127d963          	ble	s2,a5,1060a <clocale_mbfuncs_main+0x1d4>
		t_error("additional %d non-image errors (not printed)\n", ni_errors);
   105fc:	00043537          	lui	a0,0x43
   10600:	85ca                	mv	a1,s2
   10602:	ce050513          	addi	a0,a0,-800 # 42ce0 <CSWTCH.18+0x858>
   10606:	000130ef          	jal	ra,23606 <t_printf>

	map[256] = 0;
   1060a:	6705                	lui	a4,0x1
   1060c:	82070793          	addi	a5,a4,-2016 # 820 <c1+0x80a>
   10610:	978a                	add	a5,a5,sp
   10612:	0007a023          	sw	zero,0(a5) # 110000 <buf+0x73668>
	st = (mbstate_t){0};
	if ((rv=wcsrtombs(s, &(const wchar_t *){map+1}, sizeof s, &st)) != 255)
   10616:	c3070793          	addi	a5,a4,-976
	map[256] = 0;
   1061a:	757d                	lui	a0,0xfffff
	if ((rv=wcsrtombs(s, &(const wchar_t *){map+1}, sizeof s, &st)) != 255)
   1061c:	978a                	add	a5,a5,sp
   1061e:	97aa                	add	a5,a5,a0
   10620:	82870693          	addi	a3,a4,-2008
   10624:	7f478793          	addi	a5,a5,2036
   10628:	968a                	add	a3,a3,sp
   1062a:	e29c                	sd	a5,0(a3)
   1062c:	c3070793          	addi	a5,a4,-976
   10630:	3e050693          	addi	a3,a0,992 # fffffffffffff3e0 <__BSS_END__+0xffffffffffe61200>
   10634:	978a                	add	a5,a5,sp
   10636:	96be                	add	a3,a3,a5
   10638:	c3070793          	addi	a5,a4,-976
   1063c:	978a                	add	a5,a5,sp
   1063e:	82870593          	addi	a1,a4,-2008
   10642:	3f050513          	addi	a0,a0,1008
   10646:	958a                	add	a1,a1,sp
   10648:	953e                	add	a0,a0,a5
   1064a:	40000613          	li	a2,1024
	st = (mbstate_t){0};
   1064e:	e802                	sd	zero,16(sp)
	if ((rv=wcsrtombs(s, &(const wchar_t *){map+1}, sizeof s, &st)) != 255)
   10650:	771180ef          	jal	ra,295c0 <wcsrtombs>
   10654:	0ff00793          	li	a5,255
   10658:	85aa                	mv	a1,a0
   1065a:	00f50863          	beq	a0,a5,1066a <clocale_mbfuncs_main+0x234>
		t_error("wcsrtombs returned %zd, expected 255\n", rv);
   1065e:	00043537          	lui	a0,0x43
   10662:	d3850513          	addi	a0,a0,-712 # 42d38 <CSWTCH.18+0x8b0>
   10666:	7a1120ef          	jal	ra,23606 <t_printf>
	if ((rv=mbsrtowcs(wtmp, &(const char *){s}, 256, &st)) != 255)
   1066a:	6705                	lui	a4,0x1
   1066c:	75fd                	lui	a1,0xfffff
   1066e:	c3070693          	addi	a3,a4,-976 # c30 <c1+0xc1a>
   10672:	3f058793          	addi	a5,a1,1008 # fffffffffffff3f0 <__BSS_END__+0xffffffffffe61210>
   10676:	968a                	add	a3,a3,sp
   10678:	97b6                	add	a5,a5,a3
   1067a:	ec3e                	sd	a5,24(sp)
   1067c:	c3070793          	addi	a5,a4,-976
   10680:	3e058693          	addi	a3,a1,992
   10684:	978a                	add	a5,a5,sp
   10686:	96be                	add	a3,a3,a5
   10688:	c3070793          	addi	a5,a4,-976
   1068c:	978a                	add	a5,a5,sp
   1068e:	82870513          	addi	a0,a4,-2008
   10692:	3e858593          	addi	a1,a1,1000
   10696:	95be                	add	a1,a1,a5
   10698:	10000613          	li	a2,256
   1069c:	950a                	add	a0,a0,sp
   1069e:	395180ef          	jal	ra,29232 <mbsrtowcs>
   106a2:	0ff00793          	li	a5,255
   106a6:	85aa                	mv	a1,a0
   106a8:	00f50863          	beq	a0,a5,106b8 <clocale_mbfuncs_main+0x282>
		t_error("mbsrtowcs returned %zd, expected 255\n", rv);
   106ac:	00043537          	lui	a0,0x43
   106b0:	d8850513          	addi	a0,a0,-632 # 42d88 <CSWTCH.18+0x900>
   106b4:	753120ef          	jal	ra,23606 <t_printf>
	if (memcmp(map+1, wtmp, 256*sizeof(*map)))
   106b8:	6705                	lui	a4,0x1
   106ba:	c3070793          	addi	a5,a4,-976 # c30 <c1+0xc1a>
   106be:	757d                	lui	a0,0xfffff
   106c0:	978a                	add	a5,a5,sp
   106c2:	953e                	add	a0,a0,a5
   106c4:	82870593          	addi	a1,a4,-2008
   106c8:	40000613          	li	a2,1024
   106cc:	958a                	add	a1,a1,sp
   106ce:	7f450513          	addi	a0,a0,2036 # fffffffffffff7f4 <__BSS_END__+0xffffffffffe61614>
   106d2:	612220ef          	jal	ra,32ce4 <memcmp>
   106d6:	c519                	beqz	a0,106e4 <clocale_mbfuncs_main+0x2ae>
		t_error("wcsrtombs/mbsrtowcs round trip failed\n");
   106d8:	00043537          	lui	a0,0x43
   106dc:	dd850513          	addi	a0,a0,-552 # 42dd8 <CSWTCH.18+0x950>
   106e0:	727120ef          	jal	ra,23606 <t_printf>
   106e4:	08000493          	li	s1,128

	for (i=128; i<256; i++) {
		if (iswalnum(map[i])) t_error("iswalnum returned true for %.4x (%.2x)\n", map[i], i);
   106e8:	00043937          	lui	s2,0x43
		if (iswalpha(map[i])) t_error("iswalpha returned true for %.4x (%.2x)\n", map[i], i);
   106ec:	000439b7          	lui	s3,0x43
		if (iswblank(map[i])) t_error("iswblank returned true for %.4x (%.2x)\n", map[i], i);
   106f0:	00043a37          	lui	s4,0x43
		if (iswcntrl(map[i])) t_error("iswcntrl returned true for %.4x (%.2x)\n", map[i], i);
   106f4:	00043ab7          	lui	s5,0x43
		if (iswdigit(map[i])) t_error("iswdigit returned true for %.4x (%.2x)\n", map[i], i);
   106f8:	00043b37          	lui	s6,0x43
		if (iswgraph(map[i])) t_error("iswgraph returned true for %.4x (%.2x)\n", map[i], i);
   106fc:	00043bb7          	lui	s7,0x43
		if (iswlower(map[i])) t_error("iswlower returned true for %.4x (%.2x)\n", map[i], i);
   10700:	00043c37          	lui	s8,0x43
		if (iswprint(map[i])) t_error("iswprint returned true for %.4x (%.2x)\n", map[i], i);
   10704:	00043cb7          	lui	s9,0x43
		if (iswalnum(map[i])) t_error("iswalnum returned true for %.4x (%.2x)\n", map[i], i);
   10708:	20042503          	lw	a0,512(s0)
   1070c:	39d150ef          	jal	ra,262a8 <iswalnum>
   10710:	c901                	beqz	a0,10720 <clocale_mbfuncs_main+0x2ea>
   10712:	20042583          	lw	a1,512(s0)
   10716:	8626                	mv	a2,s1
   10718:	e2890513          	addi	a0,s2,-472 # 42e28 <CSWTCH.18+0x9a0>
   1071c:	6eb120ef          	jal	ra,23606 <t_printf>
		if (iswalpha(map[i])) t_error("iswalpha returned true for %.4x (%.2x)\n", map[i], i);
   10720:	20042503          	lw	a0,512(s0)
   10724:	3a9150ef          	jal	ra,262cc <iswalpha>
   10728:	c901                	beqz	a0,10738 <clocale_mbfuncs_main+0x302>
   1072a:	20042583          	lw	a1,512(s0)
   1072e:	8626                	mv	a2,s1
   10730:	e7898513          	addi	a0,s3,-392 # 42e78 <CSWTCH.18+0x9f0>
   10734:	6d3120ef          	jal	ra,23606 <t_printf>
		if (iswblank(map[i])) t_error("iswblank returned true for %.4x (%.2x)\n", map[i], i);
   10738:	20042503          	lw	a0,512(s0)
   1073c:	3e1150ef          	jal	ra,2631c <iswblank>
   10740:	c901                	beqz	a0,10750 <clocale_mbfuncs_main+0x31a>
   10742:	20042583          	lw	a1,512(s0)
   10746:	8626                	mv	a2,s1
   10748:	ec8a0513          	addi	a0,s4,-312 # 42ec8 <CSWTCH.18+0xa40>
   1074c:	6bb120ef          	jal	ra,23606 <t_printf>
		if (iswcntrl(map[i])) t_error("iswcntrl returned true for %.4x (%.2x)\n", map[i], i);
   10750:	20042503          	lw	a0,512(s0)
   10754:	3d1150ef          	jal	ra,26324 <iswcntrl>
   10758:	c901                	beqz	a0,10768 <clocale_mbfuncs_main+0x332>
   1075a:	20042583          	lw	a1,512(s0)
   1075e:	8626                	mv	a2,s1
   10760:	f18a8513          	addi	a0,s5,-232 # 42f18 <CSWTCH.18+0xa90>
   10764:	6a3120ef          	jal	ra,23606 <t_printf>
		if (iswdigit(map[i])) t_error("iswdigit returned true for %.4x (%.2x)\n", map[i], i);
   10768:	20042583          	lw	a1,512(s0)
   1076c:	47a5                	li	a5,9
   1076e:	fd05871b          	addiw	a4,a1,-48
   10772:	00e7e763          	bltu	a5,a4,10780 <clocale_mbfuncs_main+0x34a>
   10776:	8626                	mv	a2,s1
   10778:	f68b0513          	addi	a0,s6,-152 # 42f68 <CSWTCH.18+0xae0>
   1077c:	68b120ef          	jal	ra,23606 <t_printf>
		if (iswgraph(map[i])) t_error("iswgraph returned true for %.4x (%.2x)\n", map[i], i);
   10780:	20042503          	lw	a0,512(s0)
   10784:	3d9150ef          	jal	ra,2635c <iswgraph>
   10788:	c901                	beqz	a0,10798 <clocale_mbfuncs_main+0x362>
   1078a:	20042583          	lw	a1,512(s0)
   1078e:	8626                	mv	a2,s1
   10790:	fb8b8513          	addi	a0,s7,-72 # 42fb8 <CSWTCH.18+0xb30>
   10794:	673120ef          	jal	ra,23606 <t_printf>
		if (iswlower(map[i])) t_error("iswlower returned true for %.4x (%.2x)\n", map[i], i);
   10798:	20042503          	lw	a0,512(s0)
   1079c:	3e9150ef          	jal	ra,26384 <iswlower>
   107a0:	c901                	beqz	a0,107b0 <clocale_mbfuncs_main+0x37a>
   107a2:	20042583          	lw	a1,512(s0)
   107a6:	8626                	mv	a2,s1
   107a8:	008c0513          	addi	a0,s8,8 # 43008 <CSWTCH.18+0xb80>
   107ac:	65b120ef          	jal	ra,23606 <t_printf>
		if (iswprint(map[i])) t_error("iswprint returned true for %.4x (%.2x)\n", map[i], i);
   107b0:	20042503          	lw	a0,512(s0)
   107b4:	3f1150ef          	jal	ra,263a4 <iswprint>
   107b8:	c901                	beqz	a0,107c8 <clocale_mbfuncs_main+0x392>
   107ba:	20042583          	lw	a1,512(s0)
   107be:	8626                	mv	a2,s1
   107c0:	058c8513          	addi	a0,s9,88 # 43058 <CSWTCH.18+0xbd0>
   107c4:	643120ef          	jal	ra,23606 <t_printf>
		if (iswpunct(map[i])) t_error("iswpunct returned true for %.4x (%.2x)\n", map[i], i);
   107c8:	20042503          	lw	a0,512(s0)
   107cc:	443150ef          	jal	ra,2640e <iswpunct>
   107d0:	c911                	beqz	a0,107e4 <clocale_mbfuncs_main+0x3ae>
   107d2:	20042583          	lw	a1,512(s0)
   107d6:	00043537          	lui	a0,0x43
   107da:	8626                	mv	a2,s1
   107dc:	0a850513          	addi	a0,a0,168 # 430a8 <CSWTCH.18+0xc20>
   107e0:	627120ef          	jal	ra,23606 <t_printf>
		if (iswspace(map[i])) t_error("iswspace returned true for %.4x (%.2x)\n", map[i], i);
   107e4:	20042503          	lw	a0,512(s0)
   107e8:	469150ef          	jal	ra,26450 <iswspace>
   107ec:	c911                	beqz	a0,10800 <clocale_mbfuncs_main+0x3ca>
   107ee:	20042583          	lw	a1,512(s0)
   107f2:	00043537          	lui	a0,0x43
   107f6:	8626                	mv	a2,s1
   107f8:	0f850513          	addi	a0,a0,248 # 430f8 <CSWTCH.18+0xc70>
   107fc:	60b120ef          	jal	ra,23606 <t_printf>
		if (iswupper(map[i])) t_error("iswupper returned true for %.4x (%.2x)\n", map[i], i);
   10800:	20042503          	lw	a0,512(s0)
   10804:	473150ef          	jal	ra,26476 <iswupper>
   10808:	c911                	beqz	a0,1081c <clocale_mbfuncs_main+0x3e6>
   1080a:	20042583          	lw	a1,512(s0)
   1080e:	00043537          	lui	a0,0x43
   10812:	8626                	mv	a2,s1
   10814:	14850513          	addi	a0,a0,328 # 43148 <CSWTCH.18+0xcc0>
   10818:	5ef120ef          	jal	ra,23606 <t_printf>
		if (iswxdigit(map[i])) t_error("iswxdigit returned true for %.4x (%.2x)\n", map[i], i);
   1081c:	20042503          	lw	a0,512(s0)
   10820:	477150ef          	jal	ra,26496 <iswxdigit>
   10824:	c911                	beqz	a0,10838 <clocale_mbfuncs_main+0x402>
   10826:	20042583          	lw	a1,512(s0)
   1082a:	00043537          	lui	a0,0x43
   1082e:	8626                	mv	a2,s1
   10830:	19850513          	addi	a0,a0,408 # 43198 <CSWTCH.18+0xd10>
   10834:	5d3120ef          	jal	ra,23606 <t_printf>
	for (i=128; i<256; i++) {
   10838:	2485                	addiw	s1,s1,1
   1083a:	10000793          	li	a5,256
   1083e:	0411                	addi	s0,s0,4
   10840:	ecf494e3          	bne	s1,a5,10708 <clocale_mbfuncs_main+0x2d2>
	}

	return t_status;
   10844:	b801a503          	lw	a0,-1152(gp) # 98a08 <_edata>
}
   10848:	4a010113          	addi	sp,sp,1184
   1084c:	7e813083          	ld	ra,2024(sp)
   10850:	7e013403          	ld	s0,2016(sp)
   10854:	7d813483          	ld	s1,2008(sp)
   10858:	7d013903          	ld	s2,2000(sp)
   1085c:	7c813983          	ld	s3,1992(sp)
   10860:	7c013a03          	ld	s4,1984(sp)
   10864:	7b813a83          	ld	s5,1976(sp)
   10868:	7b013b03          	ld	s6,1968(sp)
   1086c:	7a813b83          	ld	s7,1960(sp)
   10870:	7a013c03          	ld	s8,1952(sp)
   10874:	79813c83          	ld	s9,1944(sp)
   10878:	2501                	sext.w	a0,a0
   1087a:	7f010113          	addi	sp,sp,2032
   1087e:	8082                	ret
			if (map[j]==map[i])
   10880:	0009a783          	lw	a5,0(s3)
   10884:	000b2683          	lw	a3,0(s6)
   10888:	00f69863          	bne	a3,a5,10898 <clocale_mbfuncs_main+0x462>
				t_error("bytes %.2x and %.2x map to same wchar_t %.4x\n", j, i, (unsigned)map[i]);
   1088c:	8626                	mv	a2,s1
   1088e:	85d2                	mv	a1,s4
   10890:	b78c0513          	addi	a0,s8,-1160
   10894:	573120ef          	jal	ra,23606 <t_printf>
		for (j=0; j<i; j++) {
   10898:	2a05                	addiw	s4,s4,1
   1089a:	0b11                	addi	s6,s6,4
   1089c:	fe9a12e3          	bne	s4,s1,10880 <clocale_mbfuncs_main+0x44a>
   108a0:	b98d                	j	10512 <clocale_mbfuncs_main+0xdc>
   108a2:	8b22                	mv	s6,s0
   108a4:	4a01                	li	s4,0
   108a6:	bfdd                	j	1089c <clocale_mbfuncs_main+0x466>

00000000000108a8 <clock_gettime_main>:

#define TEST(c, ...) \
	( (c) || (t_error(#c " failed: " __VA_ARGS__),0) )

int main()
{
   108a8:	1101                	addi	sp,sp,-32
	struct timespec ts;
	TEST(clock_gettime(CLOCK_REALTIME, &ts) == 0 && errno == 0, "%s\n", strerror(errno));
   108aa:	858a                	mv	a1,sp
   108ac:	4501                	li	a0,0
{
   108ae:	e822                	sd	s0,16(sp)
   108b0:	ec06                	sd	ra,24(sp)
	TEST(clock_gettime(CLOCK_REALTIME, &ts) == 0 && errno == 0, "%s\n", strerror(errno));
   108b2:	7ab260ef          	jal	ra,3785c <__clock_gettime>
   108b6:	842a                	mv	s0,a0
   108b8:	232160ef          	jal	ra,26aea <__errno_location>
   108bc:	e019                	bnez	s0,108c2 <clock_gettime_main+0x1a>
   108be:	411c                	lw	a5,0(a0)
   108c0:	cb99                	beqz	a5,108d6 <clock_gettime_main+0x2e>
   108c2:	4108                	lw	a0,0(a0)
   108c4:	256160ef          	jal	ra,26b1a <strerror>
   108c8:	85aa                	mv	a1,a0
   108ca:	00043537          	lui	a0,0x43
   108ce:	1e850513          	addi	a0,a0,488 # 431e8 <CSWTCH.18+0xd60>
   108d2:	535120ef          	jal	ra,23606 <t_printf>
	return t_status;
   108d6:	b801a503          	lw	a0,-1152(gp) # 98a08 <_edata>
}
   108da:	60e2                	ld	ra,24(sp)
   108dc:	6442                	ld	s0,16(sp)
   108de:	2501                	sext.w	a0,a0
   108e0:	6105                	addi	sp,sp,32
   108e2:	8082                	ret

00000000000108e4 <crypt_main>:
#define T(h,s,k) p = crypt(k,s); \
 if (!p) p ="*"; \
 if (strcmp(p,h)!=0) t_error("crypt(%s, \"%s\") failed: got \"%s\" want \"%s\"\n", #k, s, p, h);

int main()
{
   108e4:	715d                	addi	sp,sp,-80
   108e6:	f84a                	sd	s2,48(sp)
   108e8:	e85a                	sd	s6,16(sp)

/* md5 */
T("$1$abcd0123$9Qcg8DyviekV3tDGMZynJ1", "$1$abcd0123$", "Xy01@#\x01\x02\x80\x7f\xff\r\n\x81\t !")
   108ea:	00043937          	lui	s2,0x43
   108ee:	00043b37          	lui	s6,0x43
   108f2:	25090593          	addi	a1,s2,592 # 43250 <CSWTCH.18+0xdc8>
   108f6:	260b0513          	addi	a0,s6,608 # 43260 <CSWTCH.18+0xdd8>
{
   108fa:	e0a2                	sd	s0,64(sp)
   108fc:	fc26                	sd	s1,56(sp)
   108fe:	e486                	sd	ra,72(sp)
   10900:	f44e                	sd	s3,40(sp)
   10902:	f052                	sd	s4,32(sp)
   10904:	ec56                	sd	s5,24(sp)
   10906:	e45e                	sd	s7,8(sp)
T("$1$abcd0123$9Qcg8DyviekV3tDGMZynJ1", "$1$abcd0123$", "Xy01@#\x01\x02\x80\x7f\xff\r\n\x81\t !")
   10908:	277140ef          	jal	ra,2537e <crypt>
   1090c:	000434b7          	lui	s1,0x43
   10910:	160504e3          	beqz	a0,11278 <crypt_main+0x994>
   10914:	b8a1b423          	sd	a0,-1144(gp) # 98a10 <p>
   10918:	b881b503          	ld	a0,-1144(gp) # 98a10 <p>
   1091c:	000439b7          	lui	s3,0x43
   10920:	28098593          	addi	a1,s3,640 # 43280 <CSWTCH.18+0xdf8>
   10924:	7cb220ef          	jal	ra,338ee <strcmp>
   10928:	c10d                	beqz	a0,1094a <crypt_main+0x66>
   1092a:	b881b683          	ld	a3,-1144(gp) # 98a10 <p>
   1092e:	000435b7          	lui	a1,0x43
   10932:	00043537          	lui	a0,0x43
   10936:	28098713          	addi	a4,s3,640
   1093a:	25090613          	addi	a2,s2,592
   1093e:	2a858593          	addi	a1,a1,680 # 432a8 <CSWTCH.18+0xe20>
   10942:	2d850513          	addi	a0,a0,728 # 432d8 <CSWTCH.18+0xe50>
   10946:	4c1120ef          	jal	ra,23606 <t_printf>
T("$1$$qRPK7m23GJusamGpoGLby/", "$1$$", "")
   1094a:	000439b7          	lui	s3,0x43
   1094e:	0005f937          	lui	s2,0x5f
   10952:	32098593          	addi	a1,s3,800 # 43320 <CSWTCH.18+0xe98>
   10956:	5a890513          	addi	a0,s2,1448 # 5f5a8 <t+0x1758>
   1095a:	225140ef          	jal	ra,2537e <crypt>
   1095e:	120503e3          	beqz	a0,11284 <crypt_main+0x9a0>
   10962:	b8a1b423          	sd	a0,-1144(gp) # 98a10 <p>
   10966:	b881b503          	ld	a0,-1144(gp) # 98a10 <p>
   1096a:	00043a37          	lui	s4,0x43
   1096e:	328a0593          	addi	a1,s4,808 # 43328 <CSWTCH.18+0xea0>
   10972:	77d220ef          	jal	ra,338ee <strcmp>
   10976:	c10d                	beqz	a0,10998 <crypt_main+0xb4>
   10978:	b881b683          	ld	a3,-1144(gp) # 98a10 <p>
   1097c:	000435b7          	lui	a1,0x43
   10980:	00043537          	lui	a0,0x43
   10984:	328a0713          	addi	a4,s4,808
   10988:	32098613          	addi	a2,s3,800
   1098c:	34858593          	addi	a1,a1,840 # 43348 <CSWTCH.18+0xec0>
   10990:	35050513          	addi	a0,a0,848 # 43350 <CSWTCH.18+0xec8>
   10994:	473120ef          	jal	ra,23606 <t_printf>
T("$1$salt$UsdFqFVB.FsuinRDK5eE..", "$1$salt$", "")
   10998:	000439b7          	lui	s3,0x43
   1099c:	39898593          	addi	a1,s3,920 # 43398 <CSWTCH.18+0xf10>
   109a0:	5a890513          	addi	a0,s2,1448
   109a4:	1db140ef          	jal	ra,2537e <crypt>
   109a8:	0e0504e3          	beqz	a0,11290 <crypt_main+0x9ac>
   109ac:	b8a1b423          	sd	a0,-1144(gp) # 98a10 <p>
   109b0:	b881b503          	ld	a0,-1144(gp) # 98a10 <p>
   109b4:	00043a37          	lui	s4,0x43
   109b8:	3a8a0593          	addi	a1,s4,936 # 433a8 <CSWTCH.18+0xf20>
   109bc:	733220ef          	jal	ra,338ee <strcmp>
   109c0:	c10d                	beqz	a0,109e2 <crypt_main+0xfe>
   109c2:	b881b683          	ld	a3,-1144(gp) # 98a10 <p>
   109c6:	000435b7          	lui	a1,0x43
   109ca:	00043537          	lui	a0,0x43
   109ce:	3a8a0713          	addi	a4,s4,936
   109d2:	39898613          	addi	a2,s3,920
   109d6:	34858593          	addi	a1,a1,840 # 43348 <CSWTCH.18+0xec0>
   109da:	3c850513          	addi	a0,a0,968 # 433c8 <CSWTCH.18+0xf40>
   109de:	429120ef          	jal	ra,23606 <t_printf>
T("$1$salt1234$.pylIeU8A8nhxsVrZNOP..", "$1$salt1234$", "Aa@\xaa 0123456789")
   109e2:	00043a37          	lui	s4,0x43
   109e6:	000439b7          	lui	s3,0x43
   109ea:	410a0593          	addi	a1,s4,1040 # 43410 <CSWTCH.18+0xf88>
   109ee:	42098513          	addi	a0,s3,1056 # 43420 <CSWTCH.18+0xf98>
   109f2:	18d140ef          	jal	ra,2537e <crypt>
   109f6:	0a0503e3          	beqz	a0,1129c <crypt_main+0x9b8>
   109fa:	b8a1b423          	sd	a0,-1144(gp) # 98a10 <p>
   109fe:	b881b503          	ld	a0,-1144(gp) # 98a10 <p>
   10a02:	00043ab7          	lui	s5,0x43
   10a06:	430a8593          	addi	a1,s5,1072 # 43430 <CSWTCH.18+0xfa8>
   10a0a:	6e5220ef          	jal	ra,338ee <strcmp>
   10a0e:	c10d                	beqz	a0,10a30 <crypt_main+0x14c>
   10a10:	b881b683          	ld	a3,-1144(gp) # 98a10 <p>
   10a14:	000435b7          	lui	a1,0x43
   10a18:	00043537          	lui	a0,0x43
   10a1c:	430a8713          	addi	a4,s5,1072
   10a20:	410a0613          	addi	a2,s4,1040
   10a24:	45858593          	addi	a1,a1,1112 # 43458 <CSWTCH.18+0xfd0>
   10a28:	47050513          	addi	a0,a0,1136 # 43470 <CSWTCH.18+0xfe8>
   10a2c:	3db120ef          	jal	ra,23606 <t_printf>
T("$1$aaaaaaaa$zqksdEYCs/p2VrrMTPU0x0", "$1$aaaaaaaaaaaaaaaaaaaa$", "aaaaaaaaaaaaaaaaaaaa")
   10a30:	00043a37          	lui	s4,0x43
   10a34:	00043537          	lui	a0,0x43
   10a38:	4b8a0593          	addi	a1,s4,1208 # 434b8 <CSWTCH.18+0x1030>
   10a3c:	4d850513          	addi	a0,a0,1240 # 434d8 <CSWTCH.18+0x1050>
   10a40:	13f140ef          	jal	ra,2537e <crypt>
   10a44:	060502e3          	beqz	a0,112a8 <crypt_main+0x9c4>
   10a48:	b8a1b423          	sd	a0,-1144(gp) # 98a10 <p>
   10a4c:	b881b503          	ld	a0,-1144(gp) # 98a10 <p>
   10a50:	00043ab7          	lui	s5,0x43
   10a54:	4f0a8593          	addi	a1,s5,1264 # 434f0 <CSWTCH.18+0x1068>
   10a58:	697220ef          	jal	ra,338ee <strcmp>
   10a5c:	c10d                	beqz	a0,10a7e <crypt_main+0x19a>
   10a5e:	b881b683          	ld	a3,-1144(gp) # 98a10 <p>
   10a62:	000435b7          	lui	a1,0x43
   10a66:	00043537          	lui	a0,0x43
   10a6a:	4f0a8713          	addi	a4,s5,1264
   10a6e:	4b8a0613          	addi	a2,s4,1208
   10a72:	51858593          	addi	a1,a1,1304 # 43518 <CSWTCH.18+0x1090>
   10a76:	53050513          	addi	a0,a0,1328 # 43530 <CSWTCH.18+0x10a8>
   10a7a:	38d120ef          	jal	ra,23606 <t_printf>
/* blowfish */
T("*",
   10a7e:	00043a37          	lui	s4,0x43
   10a82:	578a0593          	addi	a1,s4,1400 # 43578 <CSWTCH.18+0x10f0>
   10a86:	5a890513          	addi	a0,s2,1448
   10a8a:	0f5140ef          	jal	ra,2537e <crypt>
   10a8e:	020503e3          	beqz	a0,112b4 <crypt_main+0x9d0>
   10a92:	b8a1b423          	sd	a0,-1144(gp) # 98a10 <p>
   10a96:	b881b503          	ld	a0,-1144(gp) # 98a10 <p>
   10a9a:	27848593          	addi	a1,s1,632 # 43278 <CSWTCH.18+0xdf0>
   10a9e:	651220ef          	jal	ra,338ee <strcmp>
   10aa2:	c10d                	beqz	a0,10ac4 <crypt_main+0x1e0>
   10aa4:	b881b683          	ld	a3,-1144(gp) # 98a10 <p>
   10aa8:	000435b7          	lui	a1,0x43
   10aac:	00043537          	lui	a0,0x43
   10ab0:	27848713          	addi	a4,s1,632
   10ab4:	578a0613          	addi	a2,s4,1400
   10ab8:	34858593          	addi	a1,a1,840 # 43348 <CSWTCH.18+0xec0>
   10abc:	59850513          	addi	a0,a0,1432 # 43598 <CSWTCH.18+0x1110>
   10ac0:	347120ef          	jal	ra,23606 <t_printf>
	"$2a$00$0123456789012345678901", "")
T("*",
   10ac4:	00043a37          	lui	s4,0x43
   10ac8:	5e0a0593          	addi	a1,s4,1504 # 435e0 <CSWTCH.18+0x1158>
   10acc:	5a890513          	addi	a0,s2,1448
   10ad0:	0af140ef          	jal	ra,2537e <crypt>
   10ad4:	7e050663          	beqz	a0,112c0 <crypt_main+0x9dc>
   10ad8:	b8a1b423          	sd	a0,-1144(gp) # 98a10 <p>
   10adc:	b881b503          	ld	a0,-1144(gp) # 98a10 <p>
   10ae0:	27848593          	addi	a1,s1,632
   10ae4:	60b220ef          	jal	ra,338ee <strcmp>
   10ae8:	c10d                	beqz	a0,10b0a <crypt_main+0x226>
   10aea:	b881b683          	ld	a3,-1144(gp) # 98a10 <p>
   10aee:	000435b7          	lui	a1,0x43
   10af2:	00043537          	lui	a0,0x43
   10af6:	27848713          	addi	a4,s1,632
   10afa:	5e0a0613          	addi	a2,s4,1504
   10afe:	34858593          	addi	a1,a1,840 # 43348 <CSWTCH.18+0xec0>
   10b02:	60050513          	addi	a0,a0,1536 # 43600 <CSWTCH.18+0x1178>
   10b06:	301120ef          	jal	ra,23606 <t_printf>
	"$2a$08$01234567890123456789", "")
T("$2a$04$012345678901234567890u8auMTJmy9uQv1pCMPSGmRjXec5nzCf6",
   10b0a:	00043a37          	lui	s4,0x43
   10b0e:	648a0593          	addi	a1,s4,1608 # 43648 <CSWTCH.18+0x11c0>
   10b12:	5a890513          	addi	a0,s2,1448
   10b16:	069140ef          	jal	ra,2537e <crypt>
   10b1a:	7a050963          	beqz	a0,112cc <crypt_main+0x9e8>
   10b1e:	b8a1b423          	sd	a0,-1144(gp) # 98a10 <p>
   10b22:	b881b503          	ld	a0,-1144(gp) # 98a10 <p>
   10b26:	00043ab7          	lui	s5,0x43
   10b2a:	668a8593          	addi	a1,s5,1640 # 43668 <CSWTCH.18+0x11e0>
   10b2e:	5c1220ef          	jal	ra,338ee <strcmp>
   10b32:	c10d                	beqz	a0,10b54 <crypt_main+0x270>
   10b34:	b881b683          	ld	a3,-1144(gp) # 98a10 <p>
   10b38:	000435b7          	lui	a1,0x43
   10b3c:	00043537          	lui	a0,0x43
   10b40:	668a8713          	addi	a4,s5,1640
   10b44:	648a0613          	addi	a2,s4,1608
   10b48:	34858593          	addi	a1,a1,840 # 43348 <CSWTCH.18+0xec0>
   10b4c:	6a850513          	addi	a0,a0,1704 # 436a8 <CSWTCH.18+0x1220>
   10b50:	2b7120ef          	jal	ra,23606 <t_printf>
	"$2a$04$0123456789012345678901", "")
T("$2a$04$abcdefghijklmnopqrstuuEgxSMhZgdHqm5w1Iw6ZfXSn4If4J406",
   10b54:	00043a37          	lui	s4,0x43
   10b58:	00043ab7          	lui	s5,0x43
   10b5c:	6f0a0593          	addi	a1,s4,1776 # 436f0 <CSWTCH.18+0x1268>
   10b60:	710a8513          	addi	a0,s5,1808 # 43710 <CSWTCH.18+0x1288>
   10b64:	01b140ef          	jal	ra,2537e <crypt>
   10b68:	76050863          	beqz	a0,112d8 <crypt_main+0x9f4>
   10b6c:	b8a1b423          	sd	a0,-1144(gp) # 98a10 <p>
   10b70:	b881b503          	ld	a0,-1144(gp) # 98a10 <p>
   10b74:	00043bb7          	lui	s7,0x43
   10b78:	718b8593          	addi	a1,s7,1816 # 43718 <CSWTCH.18+0x1290>
   10b7c:	573220ef          	jal	ra,338ee <strcmp>
   10b80:	c10d                	beqz	a0,10ba2 <crypt_main+0x2be>
   10b82:	b881b683          	ld	a3,-1144(gp) # 98a10 <p>
   10b86:	000435b7          	lui	a1,0x43
   10b8a:	00043537          	lui	a0,0x43
   10b8e:	718b8713          	addi	a4,s7,1816
   10b92:	6f0a0613          	addi	a2,s4,1776
   10b96:	75858593          	addi	a1,a1,1880 # 43758 <CSWTCH.18+0x12d0>
   10b9a:	77850513          	addi	a0,a0,1912 # 43778 <CSWTCH.18+0x12f0>
   10b9e:	269120ef          	jal	ra,23606 <t_printf>
	"$2a$04$abcdefghijklmnopqrstuv", "\xff\xff\xff\xa3\x33\x01\x40")
T("$2a$04$abcdefghijklmnopqrstuu8J3SjO9LQpndv9O3HW/e0PB1xKk.PJu",
   10ba2:	6f0a0593          	addi	a1,s4,1776
   10ba6:	42098513          	addi	a0,s3,1056
   10baa:	7d4140ef          	jal	ra,2537e <crypt>
   10bae:	72050b63          	beqz	a0,112e4 <crypt_main+0xa00>
   10bb2:	b8a1b423          	sd	a0,-1144(gp) # 98a10 <p>
   10bb6:	b881b503          	ld	a0,-1144(gp) # 98a10 <p>
   10bba:	00043bb7          	lui	s7,0x43
   10bbe:	7c0b8593          	addi	a1,s7,1984 # 437c0 <CSWTCH.18+0x1338>
   10bc2:	52d220ef          	jal	ra,338ee <strcmp>
   10bc6:	c10d                	beqz	a0,10be8 <crypt_main+0x304>
   10bc8:	b881b683          	ld	a3,-1144(gp) # 98a10 <p>
   10bcc:	000435b7          	lui	a1,0x43
   10bd0:	00044537          	lui	a0,0x44
   10bd4:	7c0b8713          	addi	a4,s7,1984
   10bd8:	6f0a0613          	addi	a2,s4,1776
   10bdc:	45858593          	addi	a1,a1,1112 # 43458 <CSWTCH.18+0xfd0>
   10be0:	80050513          	addi	a0,a0,-2048 # 43800 <CSWTCH.18+0x1378>
   10be4:	223120ef          	jal	ra,23606 <t_printf>
	"$2a$04$abcdefghijklmnopqrstuv", "Aa@\xaa 0123456789")
T("$2x$04$abcdefghijklmnopqrstuubUAnPDiHn0JtKfNM4q6HN1ZsdaC1D8i",
   10be8:	00044a37          	lui	s4,0x44
   10bec:	848a0593          	addi	a1,s4,-1976 # 43848 <CSWTCH.18+0x13c0>
   10bf0:	710a8513          	addi	a0,s5,1808
   10bf4:	78a140ef          	jal	ra,2537e <crypt>
   10bf8:	6e050c63          	beqz	a0,112f0 <crypt_main+0xa0c>
   10bfc:	b8a1b423          	sd	a0,-1144(gp) # 98a10 <p>
   10c00:	b881b503          	ld	a0,-1144(gp) # 98a10 <p>
   10c04:	00044bb7          	lui	s7,0x44
   10c08:	868b8593          	addi	a1,s7,-1944 # 43868 <CSWTCH.18+0x13e0>
   10c0c:	4e3220ef          	jal	ra,338ee <strcmp>
   10c10:	c10d                	beqz	a0,10c32 <crypt_main+0x34e>
   10c12:	b881b683          	ld	a3,-1144(gp) # 98a10 <p>
   10c16:	000435b7          	lui	a1,0x43
   10c1a:	00044537          	lui	a0,0x44
   10c1e:	868b8713          	addi	a4,s7,-1944
   10c22:	848a0613          	addi	a2,s4,-1976
   10c26:	75858593          	addi	a1,a1,1880 # 43758 <CSWTCH.18+0x12d0>
   10c2a:	8a850513          	addi	a0,a0,-1880 # 438a8 <CSWTCH.18+0x1420>
   10c2e:	1d9120ef          	jal	ra,23606 <t_printf>
	"$2x$04$abcdefghijklmnopqrstuv", "\xff\xff\xff\xa3\x33\x01\x40")
T("$2x$04$abcdefghijklmnopqrstuuxYRr8W0rYwastFTc35iurVdXD9PtVhq",
   10c32:	848a0593          	addi	a1,s4,-1976
   10c36:	42098513          	addi	a0,s3,1056
   10c3a:	744140ef          	jal	ra,2537e <crypt>
   10c3e:	6a050f63          	beqz	a0,112fc <crypt_main+0xa18>
   10c42:	b8a1b423          	sd	a0,-1144(gp) # 98a10 <p>
   10c46:	b881b503          	ld	a0,-1144(gp) # 98a10 <p>
   10c4a:	00044bb7          	lui	s7,0x44
   10c4e:	8f0b8593          	addi	a1,s7,-1808 # 438f0 <CSWTCH.18+0x1468>
   10c52:	49d220ef          	jal	ra,338ee <strcmp>
   10c56:	c10d                	beqz	a0,10c78 <crypt_main+0x394>
   10c58:	b881b683          	ld	a3,-1144(gp) # 98a10 <p>
   10c5c:	000435b7          	lui	a1,0x43
   10c60:	00044537          	lui	a0,0x44
   10c64:	8f0b8713          	addi	a4,s7,-1808
   10c68:	848a0613          	addi	a2,s4,-1976
   10c6c:	45858593          	addi	a1,a1,1112 # 43458 <CSWTCH.18+0xfd0>
   10c70:	93050513          	addi	a0,a0,-1744 # 43930 <CSWTCH.18+0x14a8>
   10c74:	193120ef          	jal	ra,23606 <t_printf>
	"$2x$04$abcdefghijklmnopqrstuv", "Aa@\xaa 0123456789")
T("$2y$04$abcdefghijklmnopqrstuubUAnPDiHn0JtKfNM4q6HN1ZsdaC1D8i",
   10c78:	00044a37          	lui	s4,0x44
   10c7c:	978a0593          	addi	a1,s4,-1672 # 43978 <CSWTCH.18+0x14f0>
   10c80:	710a8513          	addi	a0,s5,1808
   10c84:	6fa140ef          	jal	ra,2537e <crypt>
   10c88:	66050f63          	beqz	a0,11306 <crypt_main+0xa22>
   10c8c:	b8a1b423          	sd	a0,-1144(gp) # 98a10 <p>
   10c90:	b881b503          	ld	a0,-1144(gp) # 98a10 <p>
   10c94:	00044ab7          	lui	s5,0x44
   10c98:	998a8593          	addi	a1,s5,-1640 # 43998 <CSWTCH.18+0x1510>
   10c9c:	453220ef          	jal	ra,338ee <strcmp>
   10ca0:	c10d                	beqz	a0,10cc2 <crypt_main+0x3de>
   10ca2:	b881b683          	ld	a3,-1144(gp) # 98a10 <p>
   10ca6:	000435b7          	lui	a1,0x43
   10caa:	00044537          	lui	a0,0x44
   10cae:	998a8713          	addi	a4,s5,-1640
   10cb2:	978a0613          	addi	a2,s4,-1672
   10cb6:	75858593          	addi	a1,a1,1880 # 43758 <CSWTCH.18+0x12d0>
   10cba:	9d850513          	addi	a0,a0,-1576 # 439d8 <CSWTCH.18+0x1550>
   10cbe:	149120ef          	jal	ra,23606 <t_printf>
	"$2y$04$abcdefghijklmnopqrstuv", "\xff\xff\xff\xa3\x33\x01\x40")
T("$2y$04$abcdefghijklmnopqrstuu8J3SjO9LQpndv9O3HW/e0PB1xKk.PJu",
   10cc2:	978a0593          	addi	a1,s4,-1672
   10cc6:	42098513          	addi	a0,s3,1056
   10cca:	6b4140ef          	jal	ra,2537e <crypt>
   10cce:	64050163          	beqz	a0,11310 <crypt_main+0xa2c>
   10cd2:	b8a1b423          	sd	a0,-1144(gp) # 98a10 <p>
   10cd6:	b881b503          	ld	a0,-1144(gp) # 98a10 <p>
   10cda:	00044ab7          	lui	s5,0x44
   10cde:	a20a8593          	addi	a1,s5,-1504 # 43a20 <CSWTCH.18+0x1598>
   10ce2:	40d220ef          	jal	ra,338ee <strcmp>
   10ce6:	c10d                	beqz	a0,10d08 <crypt_main+0x424>
   10ce8:	b881b683          	ld	a3,-1144(gp) # 98a10 <p>
   10cec:	000435b7          	lui	a1,0x43
   10cf0:	00044537          	lui	a0,0x44
   10cf4:	a20a8713          	addi	a4,s5,-1504
   10cf8:	978a0613          	addi	a2,s4,-1672
   10cfc:	45858593          	addi	a1,a1,1112 # 43458 <CSWTCH.18+0xfd0>
   10d00:	a6050513          	addi	a0,a0,-1440 # 43a60 <CSWTCH.18+0x15d8>
   10d04:	103120ef          	jal	ra,23606 <t_printf>
	"$2y$04$abcdefghijklmnopqrstuv", "Aa@\xaa 0123456789")
/* sha256 */
T("$5$$3c2QQ0KjIU1OLtB29cl8Fplc2WN7X89bnoEjaR7tWu.", "$5$$", "")
   10d08:	00044a37          	lui	s4,0x44
   10d0c:	aa8a0593          	addi	a1,s4,-1368 # 43aa8 <CSWTCH.18+0x1620>
   10d10:	5a890513          	addi	a0,s2,1448
   10d14:	66a140ef          	jal	ra,2537e <crypt>
   10d18:	60050163          	beqz	a0,1131a <crypt_main+0xa36>
   10d1c:	b8a1b423          	sd	a0,-1144(gp) # 98a10 <p>
   10d20:	b881b503          	ld	a0,-1144(gp) # 98a10 <p>
   10d24:	000444b7          	lui	s1,0x44
   10d28:	ab048593          	addi	a1,s1,-1360 # 43ab0 <CSWTCH.18+0x1628>
   10d2c:	3c3220ef          	jal	ra,338ee <strcmp>
   10d30:	c10d                	beqz	a0,10d52 <crypt_main+0x46e>
   10d32:	b881b683          	ld	a3,-1144(gp) # 98a10 <p>
   10d36:	000435b7          	lui	a1,0x43
   10d3a:	00044537          	lui	a0,0x44
   10d3e:	ab048713          	addi	a4,s1,-1360
   10d42:	aa8a0613          	addi	a2,s4,-1368
   10d46:	34858593          	addi	a1,a1,840 # 43348 <CSWTCH.18+0xec0>
   10d4a:	ae050513          	addi	a0,a0,-1312 # 43ae0 <CSWTCH.18+0x1658>
   10d4e:	0b9120ef          	jal	ra,23606 <t_printf>
T("$5$rounds=1234$abc0123456789$3VfDjPt05VHFn47C/ojFZ6KRPYrOjj1lLbH.dkF3bZ6", "$5$rounds=1234$abc0123456789$", "Xy01@#\x01\x02\x80\x7f\xff\r\n\x81\t !")
   10d52:	000444b7          	lui	s1,0x44
   10d56:	b2848593          	addi	a1,s1,-1240 # 43b28 <CSWTCH.18+0x16a0>
   10d5a:	260b0513          	addi	a0,s6,608
   10d5e:	620140ef          	jal	ra,2537e <crypt>
   10d62:	5c050163          	beqz	a0,11324 <crypt_main+0xa40>
   10d66:	b8a1b423          	sd	a0,-1144(gp) # 98a10 <p>
   10d6a:	b881b503          	ld	a0,-1144(gp) # 98a10 <p>
   10d6e:	00044937          	lui	s2,0x44
   10d72:	b4890593          	addi	a1,s2,-1208 # 43b48 <CSWTCH.18+0x16c0>
   10d76:	379220ef          	jal	ra,338ee <strcmp>
   10d7a:	c10d                	beqz	a0,10d9c <crypt_main+0x4b8>
   10d7c:	b881b683          	ld	a3,-1144(gp) # 98a10 <p>
   10d80:	000435b7          	lui	a1,0x43
   10d84:	00044537          	lui	a0,0x44
   10d88:	b4890713          	addi	a4,s2,-1208
   10d8c:	b2848613          	addi	a2,s1,-1240
   10d90:	2a858593          	addi	a1,a1,680 # 432a8 <CSWTCH.18+0xe20>
   10d94:	b9850513          	addi	a0,a0,-1128 # 43b98 <CSWTCH.18+0x1710>
   10d98:	06f120ef          	jal	ra,23606 <t_printf>
T("$5$salt1234$1145V3OxW91Wl.LSS3pmBHvb2jV3ujiUhD7DgpoJtw9", "$5$salt1234$", "Aa@\xaa 0123456789")
   10d9c:	000444b7          	lui	s1,0x44
   10da0:	be048593          	addi	a1,s1,-1056 # 43be0 <CSWTCH.18+0x1758>
   10da4:	42098513          	addi	a0,s3,1056
   10da8:	5d6140ef          	jal	ra,2537e <crypt>
   10dac:	58050363          	beqz	a0,11332 <crypt_main+0xa4e>
   10db0:	b8a1b423          	sd	a0,-1144(gp) # 98a10 <p>
   10db4:	b881b503          	ld	a0,-1144(gp) # 98a10 <p>
   10db8:	00044937          	lui	s2,0x44
   10dbc:	bf090593          	addi	a1,s2,-1040 # 43bf0 <CSWTCH.18+0x1768>
   10dc0:	32f220ef          	jal	ra,338ee <strcmp>
   10dc4:	c10d                	beqz	a0,10de6 <crypt_main+0x502>
   10dc6:	b881b683          	ld	a3,-1144(gp) # 98a10 <p>
   10dca:	000435b7          	lui	a1,0x43
   10dce:	00044537          	lui	a0,0x44
   10dd2:	bf090713          	addi	a4,s2,-1040
   10dd6:	be048613          	addi	a2,s1,-1056
   10dda:	45858593          	addi	a1,a1,1112 # 43458 <CSWTCH.18+0xfd0>
   10dde:	c2850513          	addi	a0,a0,-984 # 43c28 <CSWTCH.18+0x17a0>
   10de2:	025120ef          	jal	ra,23606 <t_printf>
T("$5$rounds=1000$$ZIwsx59lFMWVo3Yt6IxpZVn0IhpY8Yg4gxC21zUDBI4", "$5$rounds=1$", "a")
   10de6:	00044937          	lui	s2,0x44
   10dea:	000574b7          	lui	s1,0x57
   10dee:	c7090593          	addi	a1,s2,-912 # 43c70 <CSWTCH.18+0x17e8>
   10df2:	f0048513          	addi	a0,s1,-256 # 56f00 <fp_tests+0x4858>
   10df6:	588140ef          	jal	ra,2537e <crypt>
   10dfa:	54050363          	beqz	a0,11340 <crypt_main+0xa5c>
   10dfe:	b8a1b423          	sd	a0,-1144(gp) # 98a10 <p>
   10e02:	b881b503          	ld	a0,-1144(gp) # 98a10 <p>
   10e06:	000449b7          	lui	s3,0x44
   10e0a:	c8098593          	addi	a1,s3,-896 # 43c80 <CSWTCH.18+0x17f8>
   10e0e:	2e1220ef          	jal	ra,338ee <strcmp>
   10e12:	c10d                	beqz	a0,10e34 <crypt_main+0x550>
   10e14:	b881b683          	ld	a3,-1144(gp) # 98a10 <p>
   10e18:	000445b7          	lui	a1,0x44
   10e1c:	00044537          	lui	a0,0x44
   10e20:	c8098713          	addi	a4,s3,-896
   10e24:	c7090613          	addi	a2,s2,-912
   10e28:	cc058593          	addi	a1,a1,-832 # 43cc0 <CSWTCH.18+0x1838>
   10e2c:	cc850513          	addi	a0,a0,-824 # 43cc8 <CSWTCH.18+0x1840>
   10e30:	7d6120ef          	jal	ra,23606 <t_printf>
T("$5$rounds=1234$$i.IiuqtWmTzupHAZtfV/PB33Usz.MwGHq9BKFAEj.B3", "$5$rounds=00001234$", "a")
   10e34:	00044937          	lui	s2,0x44
   10e38:	d1090593          	addi	a1,s2,-752 # 43d10 <CSWTCH.18+0x1888>
   10e3c:	f0048513          	addi	a0,s1,-256
   10e40:	53e140ef          	jal	ra,2537e <crypt>
   10e44:	50050563          	beqz	a0,1134e <crypt_main+0xa6a>
   10e48:	b8a1b423          	sd	a0,-1144(gp) # 98a10 <p>
   10e4c:	b881b503          	ld	a0,-1144(gp) # 98a10 <p>
   10e50:	000449b7          	lui	s3,0x44
   10e54:	d2898593          	addi	a1,s3,-728 # 43d28 <CSWTCH.18+0x18a0>
   10e58:	297220ef          	jal	ra,338ee <strcmp>
   10e5c:	c10d                	beqz	a0,10e7e <crypt_main+0x59a>
   10e5e:	b881b683          	ld	a3,-1144(gp) # 98a10 <p>
   10e62:	000445b7          	lui	a1,0x44
   10e66:	00044537          	lui	a0,0x44
   10e6a:	d2898713          	addi	a4,s3,-728
   10e6e:	d1090613          	addi	a2,s2,-752
   10e72:	cc058593          	addi	a1,a1,-832 # 43cc0 <CSWTCH.18+0x1838>
   10e76:	d6850513          	addi	a0,a0,-664 # 43d68 <CSWTCH.18+0x18e0>
   10e7a:	78c120ef          	jal	ra,23606 <t_printf>
//T("*", "$5$rounds= 1234$", "")
//T("*", "$5$rounds=1234567890123456789012345678901234567890$", "")
//T("*", "$5$rounds=  +00$", "")
//T("*", "$5$rounds=-4294965296$", "")
/* official tests */
T("$5$saltstring$5B8vYYiY.CVt1RlTTf8KbXBH3hsxY/GNooZaBBGWEc5",
   10e7e:	00044937          	lui	s2,0x44
   10e82:	00044ab7          	lui	s5,0x44
   10e86:	db090593          	addi	a1,s2,-592 # 43db0 <CSWTCH.18+0x1928>
   10e8a:	dc0a8513          	addi	a0,s5,-576 # 43dc0 <CSWTCH.18+0x1938>
   10e8e:	4f0140ef          	jal	ra,2537e <crypt>
   10e92:	4c050563          	beqz	a0,1135c <crypt_main+0xa78>
   10e96:	b8a1b423          	sd	a0,-1144(gp) # 98a10 <p>
   10e9a:	b881b503          	ld	a0,-1144(gp) # 98a10 <p>
   10e9e:	000449b7          	lui	s3,0x44
   10ea2:	dd098593          	addi	a1,s3,-560 # 43dd0 <CSWTCH.18+0x1948>
   10ea6:	249220ef          	jal	ra,338ee <strcmp>
   10eaa:	c10d                	beqz	a0,10ecc <crypt_main+0x5e8>
   10eac:	b881b683          	ld	a3,-1144(gp) # 98a10 <p>
   10eb0:	000445b7          	lui	a1,0x44
   10eb4:	00044537          	lui	a0,0x44
   10eb8:	dd098713          	addi	a4,s3,-560
   10ebc:	db090613          	addi	a2,s2,-592
   10ec0:	e1058593          	addi	a1,a1,-496 # 43e10 <CSWTCH.18+0x1988>
   10ec4:	e2050513          	addi	a0,a0,-480 # 43e20 <CSWTCH.18+0x1998>
   10ec8:	73e120ef          	jal	ra,23606 <t_printf>
	"$5$saltstring", "Hello world!")
T("$5$rounds=5000$toolongsaltstrin$Un/5jzAHMgOGZ5.mWJpuVolil07guHPvOW8mGRcvxa5",
   10ecc:	00044937          	lui	s2,0x44
   10ed0:	00044a37          	lui	s4,0x44
   10ed4:	e6890593          	addi	a1,s2,-408 # 43e68 <CSWTCH.18+0x19e0>
   10ed8:	e90a0513          	addi	a0,s4,-368 # 43e90 <CSWTCH.18+0x1a08>
   10edc:	4a2140ef          	jal	ra,2537e <crypt>
   10ee0:	48050563          	beqz	a0,1136a <crypt_main+0xa86>
   10ee4:	b8a1b423          	sd	a0,-1144(gp) # 98a10 <p>
   10ee8:	b881b503          	ld	a0,-1144(gp) # 98a10 <p>
   10eec:	000449b7          	lui	s3,0x44
   10ef0:	ea898593          	addi	a1,s3,-344 # 43ea8 <CSWTCH.18+0x1a20>
   10ef4:	1fb220ef          	jal	ra,338ee <strcmp>
   10ef8:	c10d                	beqz	a0,10f1a <crypt_main+0x636>
   10efa:	b881b683          	ld	a3,-1144(gp) # 98a10 <p>
   10efe:	000445b7          	lui	a1,0x44
   10f02:	00044537          	lui	a0,0x44
   10f06:	ea898713          	addi	a4,s3,-344
   10f0a:	e6890613          	addi	a2,s2,-408
   10f0e:	ef858593          	addi	a1,a1,-264 # 43ef8 <CSWTCH.18+0x1a70>
   10f12:	f1050513          	addi	a0,a0,-240 # 43f10 <CSWTCH.18+0x1a88>
   10f16:	6f0120ef          	jal	ra,23606 <t_printf>
	"$5$rounds=5000$toolongsaltstring", "This is just a test")
T("$5$rounds=1400$anotherlongsalts$Rx.j8H.h8HjEDGomFU8bDkXm3XIUnzyxf12oP84Bnq1",
   10f1a:	00044937          	lui	s2,0x44
   10f1e:	000449b7          	lui	s3,0x44
   10f22:	f5890593          	addi	a1,s2,-168 # 43f58 <CSWTCH.18+0x1ad0>
   10f26:	f8098513          	addi	a0,s3,-128 # 43f80 <CSWTCH.18+0x1af8>
   10f2a:	454140ef          	jal	ra,2537e <crypt>
   10f2e:	44050563          	beqz	a0,11378 <crypt_main+0xa94>
   10f32:	b8a1b423          	sd	a0,-1144(gp) # 98a10 <p>
   10f36:	b881b503          	ld	a0,-1144(gp) # 98a10 <p>
   10f3a:	00044b37          	lui	s6,0x44
   10f3e:	fd8b0593          	addi	a1,s6,-40 # 43fd8 <CSWTCH.18+0x1b50>
   10f42:	1ad220ef          	jal	ra,338ee <strcmp>
   10f46:	c10d                	beqz	a0,10f68 <crypt_main+0x684>
   10f48:	b881b683          	ld	a3,-1144(gp) # 98a10 <p>
   10f4c:	000445b7          	lui	a1,0x44
   10f50:	00044537          	lui	a0,0x44
   10f54:	fd8b0713          	addi	a4,s6,-40
   10f58:	f5890613          	addi	a2,s2,-168
   10f5c:	02858593          	addi	a1,a1,40 # 44028 <CSWTCH.18+0x1ba0>
   10f60:	08050513          	addi	a0,a0,128 # 44080 <CSWTCH.18+0x1bf8>
   10f64:	6a2120ef          	jal	ra,23606 <t_printf>
	"$5$rounds=1400$anotherlongsaltstring", "a very much longer text to encrypt.  This one even stretches over morethan one line.")
T("$5$rounds=1000$roundstoolow$yfvwcWrQ8l/K0DAWyuPMDNHpIVlTQebY9l/gL972bIC",
   10f68:	00044b37          	lui	s6,0x44
   10f6c:	00044937          	lui	s2,0x44
   10f70:	0c8b0593          	addi	a1,s6,200 # 440c8 <CSWTCH.18+0x1c40>
   10f74:	0e890513          	addi	a0,s2,232 # 440e8 <CSWTCH.18+0x1c60>
   10f78:	406140ef          	jal	ra,2537e <crypt>
   10f7c:	40050563          	beqz	a0,11386 <crypt_main+0xaa2>
   10f80:	b8a1b423          	sd	a0,-1144(gp) # 98a10 <p>
   10f84:	b881b503          	ld	a0,-1144(gp) # 98a10 <p>
   10f88:	00044bb7          	lui	s7,0x44
   10f8c:	110b8593          	addi	a1,s7,272 # 44110 <CSWTCH.18+0x1c88>
   10f90:	15f220ef          	jal	ra,338ee <strcmp>
   10f94:	c10d                	beqz	a0,10fb6 <crypt_main+0x6d2>
   10f96:	b881b683          	ld	a3,-1144(gp) # 98a10 <p>
   10f9a:	000445b7          	lui	a1,0x44
   10f9e:	00044537          	lui	a0,0x44
   10fa2:	110b8713          	addi	a4,s7,272
   10fa6:	0c8b0613          	addi	a2,s6,200
   10faa:	15858593          	addi	a1,a1,344 # 44158 <CSWTCH.18+0x1cd0>
   10fae:	18050513          	addi	a0,a0,384 # 44180 <CSWTCH.18+0x1cf8>
   10fb2:	654120ef          	jal	ra,23606 <t_printf>
//T("$5$rounds=77777$short$JiO1O3ZpDAxGJeaDIuqCoEFysAe1mZNJRs3pw0KQRd/",
//	"$5$rounds=77777$short", "we have a short salt string but not a short password")
//T("$5$rounds=123456$asaltof16chars..$gP3VQ/6X7UUEW3HkBn2w1/Ptq2jxPyzV/cZKmF/wJvD",
//	"$5$rounds=123456$asaltof16chars..", "a short string")
/* sha512 */
T("$6$$/chiBau24cE26QQVW3IfIe68Xu5.JQ4E8Ie7lcRLwqxO5cxGuBhqF2HmTL.zWJ9zjChg3yJYFXeGBQ2y3Ba1d1",
   10fb6:	00044b37          	lui	s6,0x44
   10fba:	0005f537          	lui	a0,0x5f
   10fbe:	1c8b0593          	addi	a1,s6,456 # 441c8 <CSWTCH.18+0x1d40>
   10fc2:	5a850513          	addi	a0,a0,1448 # 5f5a8 <t+0x1758>
   10fc6:	3b8140ef          	jal	ra,2537e <crypt>
   10fca:	3c050563          	beqz	a0,11394 <crypt_main+0xab0>
   10fce:	b8a1b423          	sd	a0,-1144(gp) # 98a10 <p>
   10fd2:	b881b503          	ld	a0,-1144(gp) # 98a10 <p>
   10fd6:	00044bb7          	lui	s7,0x44
   10fda:	1d0b8593          	addi	a1,s7,464 # 441d0 <CSWTCH.18+0x1d48>
   10fde:	111220ef          	jal	ra,338ee <strcmp>
   10fe2:	c10d                	beqz	a0,11004 <crypt_main+0x720>
   10fe4:	b881b683          	ld	a3,-1144(gp) # 98a10 <p>
   10fe8:	000435b7          	lui	a1,0x43
   10fec:	00044537          	lui	a0,0x44
   10ff0:	1d0b8713          	addi	a4,s7,464
   10ff4:	1c8b0613          	addi	a2,s6,456
   10ff8:	34858593          	addi	a1,a1,840 # 43348 <CSWTCH.18+0xec0>
   10ffc:	23050513          	addi	a0,a0,560 # 44230 <CSWTCH.18+0x1da8>
   11000:	606120ef          	jal	ra,23606 <t_printf>
	"$6$$", "")
T("$6$rounds=1234$abc0123456789$BCpt8zLrc/RcyuXmCDOE1ALqMXB2MH6n1g891HhFj8.w7LxGv.FTkqq6Vxc/km3Y0jE0j24jY5PIv/oOu6reg1",
   11004:	00044b37          	lui	s6,0x44
   11008:	00043537          	lui	a0,0x43
   1100c:	278b0593          	addi	a1,s6,632 # 44278 <CSWTCH.18+0x1df0>
   11010:	26050513          	addi	a0,a0,608 # 43260 <CSWTCH.18+0xdd8>
   11014:	36a140ef          	jal	ra,2537e <crypt>
   11018:	38050563          	beqz	a0,113a2 <crypt_main+0xabe>
   1101c:	b8a1b423          	sd	a0,-1144(gp) # 98a10 <p>
   11020:	b881b503          	ld	a0,-1144(gp) # 98a10 <p>
   11024:	00044bb7          	lui	s7,0x44
   11028:	298b8593          	addi	a1,s7,664 # 44298 <CSWTCH.18+0x1e10>
   1102c:	0c3220ef          	jal	ra,338ee <strcmp>
   11030:	c10d                	beqz	a0,11052 <crypt_main+0x76e>
   11032:	b881b683          	ld	a3,-1144(gp) # 98a10 <p>
   11036:	000435b7          	lui	a1,0x43
   1103a:	00044537          	lui	a0,0x44
   1103e:	298b8713          	addi	a4,s7,664
   11042:	278b0613          	addi	a2,s6,632
   11046:	2a858593          	addi	a1,a1,680 # 432a8 <CSWTCH.18+0xe20>
   1104a:	31050513          	addi	a0,a0,784 # 44310 <CSWTCH.18+0x1e88>
   1104e:	5b8120ef          	jal	ra,23606 <t_printf>
	"$6$rounds=1234$abc0123456789$", "Xy01@#\x01\x02\x80\x7f\xff\r\n\x81\t !")
T("$6$salt1234$44TYByJTJkEpcbmj8XzV6H7ltUN.7FUFFWKGeph85fMuAME8f1yQnXxqPbz6gfMq7tisOjTrxg3S2DDebWewt1",
   11052:	00044b37          	lui	s6,0x44
   11056:	00043537          	lui	a0,0x43
   1105a:	358b0593          	addi	a1,s6,856 # 44358 <CSWTCH.18+0x1ed0>
   1105e:	42050513          	addi	a0,a0,1056 # 43420 <CSWTCH.18+0xf98>
   11062:	31c140ef          	jal	ra,2537e <crypt>
   11066:	34050563          	beqz	a0,113b0 <crypt_main+0xacc>
   1106a:	b8a1b423          	sd	a0,-1144(gp) # 98a10 <p>
   1106e:	b881b503          	ld	a0,-1144(gp) # 98a10 <p>
   11072:	00044bb7          	lui	s7,0x44
   11076:	368b8593          	addi	a1,s7,872 # 44368 <CSWTCH.18+0x1ee0>
   1107a:	075220ef          	jal	ra,338ee <strcmp>
   1107e:	c10d                	beqz	a0,110a0 <crypt_main+0x7bc>
   11080:	b881b683          	ld	a3,-1144(gp) # 98a10 <p>
   11084:	000435b7          	lui	a1,0x43
   11088:	00044537          	lui	a0,0x44
   1108c:	368b8713          	addi	a4,s7,872
   11090:	358b0613          	addi	a2,s6,856
   11094:	45858593          	addi	a1,a1,1112 # 43458 <CSWTCH.18+0xfd0>
   11098:	3d050513          	addi	a0,a0,976 # 443d0 <CSWTCH.18+0x1f48>
   1109c:	56a120ef          	jal	ra,23606 <t_printf>
	"$6$salt1234$", "Aa@\xaa 0123456789")
T("$6$rounds=1000$$hETGMQQ5sXu1md3PrmRCM4AxTgbNpYQaIhk4xQzvCiNfeogfCR9PZGSRXghUOxMAPFU2wuz/ZLafIHrHopO.60",
   110a0:	00044b37          	lui	s6,0x44
   110a4:	418b0593          	addi	a1,s6,1048 # 44418 <CSWTCH.18+0x1f90>
   110a8:	f0048513          	addi	a0,s1,-256
   110ac:	2d2140ef          	jal	ra,2537e <crypt>
   110b0:	30050763          	beqz	a0,113be <crypt_main+0xada>
   110b4:	b8a1b423          	sd	a0,-1144(gp) # 98a10 <p>
   110b8:	b881b503          	ld	a0,-1144(gp) # 98a10 <p>
   110bc:	00044bb7          	lui	s7,0x44
   110c0:	428b8593          	addi	a1,s7,1064 # 44428 <CSWTCH.18+0x1fa0>
   110c4:	02b220ef          	jal	ra,338ee <strcmp>
   110c8:	c10d                	beqz	a0,110ea <crypt_main+0x806>
   110ca:	b881b683          	ld	a3,-1144(gp) # 98a10 <p>
   110ce:	000445b7          	lui	a1,0x44
   110d2:	00044537          	lui	a0,0x44
   110d6:	428b8713          	addi	a4,s7,1064
   110da:	418b0613          	addi	a2,s6,1048
   110de:	cc058593          	addi	a1,a1,-832 # 43cc0 <CSWTCH.18+0x1838>
   110e2:	49050513          	addi	a0,a0,1168 # 44490 <CSWTCH.18+0x2008>
   110e6:	520120ef          	jal	ra,23606 <t_printf>
	"$6$rounds=1$", "a")
T("$6$rounds=1234$$.9spjeVb1fINMikxgAZEpur.ZQ/Gte./HuKWm2sAZ37eK3e1.ZdfRuatKdR/H..lKQfb2AB.RtHh7xKm.FE2J.",
   110ea:	00044b37          	lui	s6,0x44
   110ee:	4d8b0593          	addi	a1,s6,1240 # 444d8 <CSWTCH.18+0x2050>
   110f2:	f0048513          	addi	a0,s1,-256
   110f6:	288140ef          	jal	ra,2537e <crypt>
   110fa:	2c050963          	beqz	a0,113cc <crypt_main+0xae8>
   110fe:	b8a1b423          	sd	a0,-1144(gp) # 98a10 <p>
   11102:	b881b503          	ld	a0,-1144(gp) # 98a10 <p>
   11106:	000444b7          	lui	s1,0x44
   1110a:	4f048593          	addi	a1,s1,1264 # 444f0 <CSWTCH.18+0x2068>
   1110e:	7e0220ef          	jal	ra,338ee <strcmp>
   11112:	c10d                	beqz	a0,11134 <crypt_main+0x850>
   11114:	b881b683          	ld	a3,-1144(gp) # 98a10 <p>
   11118:	000445b7          	lui	a1,0x44
   1111c:	00044537          	lui	a0,0x44
   11120:	4f048713          	addi	a4,s1,1264
   11124:	4d8b0613          	addi	a2,s6,1240
   11128:	cc058593          	addi	a1,a1,-832 # 43cc0 <CSWTCH.18+0x1838>
   1112c:	55850513          	addi	a0,a0,1368 # 44558 <CSWTCH.18+0x20d0>
   11130:	4d6120ef          	jal	ra,23606 <t_printf>
//T("*", "$6$rounds= 1234$", "")
//T("*", "$6$rounds=1234567890123456789012345678901234567890$", "")
//T("*", "$6$rounds=  +00$", "")
//T("*", "$6$rounds=-4294965296$", "")
/* official tests */
T("$6$saltstring$svn8UoSVapNtMuq1ukKS4tPQd8iKwSMHWjl/O817G3uBnIFNjnQJuesI68u4OTLiBFdcbYEdFCoEOfaS35inz1",
   11134:	000444b7          	lui	s1,0x44
   11138:	5a048593          	addi	a1,s1,1440 # 445a0 <CSWTCH.18+0x2118>
   1113c:	dc0a8513          	addi	a0,s5,-576
   11140:	23e140ef          	jal	ra,2537e <crypt>
   11144:	28050b63          	beqz	a0,113da <crypt_main+0xaf6>
   11148:	b8a1b423          	sd	a0,-1144(gp) # 98a10 <p>
   1114c:	b881b503          	ld	a0,-1144(gp) # 98a10 <p>
   11150:	00044ab7          	lui	s5,0x44
   11154:	5b0a8593          	addi	a1,s5,1456 # 445b0 <CSWTCH.18+0x2128>
   11158:	796220ef          	jal	ra,338ee <strcmp>
   1115c:	c10d                	beqz	a0,1117e <crypt_main+0x89a>
   1115e:	b881b683          	ld	a3,-1144(gp) # 98a10 <p>
   11162:	000445b7          	lui	a1,0x44
   11166:	00044537          	lui	a0,0x44
   1116a:	5b0a8713          	addi	a4,s5,1456
   1116e:	5a048613          	addi	a2,s1,1440
   11172:	e1058593          	addi	a1,a1,-496 # 43e10 <CSWTCH.18+0x1988>
   11176:	61850513          	addi	a0,a0,1560 # 44618 <CSWTCH.18+0x2190>
   1117a:	48c120ef          	jal	ra,23606 <t_printf>
	"$6$saltstring", "Hello world!")
T("$6$rounds=5000$toolongsaltstrin$lQ8jolhgVRVhY4b5pZKaysCLi0QBxGoNeKQzQ3glMhwllF7oGDZxUhx1yxdYcz/e1JSbq3y6JMxxl8audkUEm0",
   1117e:	000444b7          	lui	s1,0x44
   11182:	66048593          	addi	a1,s1,1632 # 44660 <CSWTCH.18+0x21d8>
   11186:	e90a0513          	addi	a0,s4,-368
   1118a:	1f4140ef          	jal	ra,2537e <crypt>
   1118e:	24050d63          	beqz	a0,113e8 <crypt_main+0xb04>
   11192:	b8a1b423          	sd	a0,-1144(gp) # 98a10 <p>
   11196:	b881b503          	ld	a0,-1144(gp) # 98a10 <p>
   1119a:	00044a37          	lui	s4,0x44
   1119e:	688a0593          	addi	a1,s4,1672 # 44688 <CSWTCH.18+0x2200>
   111a2:	74c220ef          	jal	ra,338ee <strcmp>
   111a6:	c10d                	beqz	a0,111c8 <crypt_main+0x8e4>
   111a8:	b881b683          	ld	a3,-1144(gp) # 98a10 <p>
   111ac:	000445b7          	lui	a1,0x44
   111b0:	00044537          	lui	a0,0x44
   111b4:	688a0713          	addi	a4,s4,1672
   111b8:	66048613          	addi	a2,s1,1632
   111bc:	ef858593          	addi	a1,a1,-264 # 43ef8 <CSWTCH.18+0x1a70>
   111c0:	70050513          	addi	a0,a0,1792 # 44700 <CSWTCH.18+0x2278>
   111c4:	442120ef          	jal	ra,23606 <t_printf>
	"$6$rounds=5000$toolongsaltstring", "This is just a test")
T("$6$rounds=1400$anotherlongsalts$POfYwTEok97VWcjxIiSOjiykti.o/pQs.wPvMxQ6Fm7I6IoYN3CmLs66x9t0oSwbtEW7o7UmJEiDwGqd8p4ur1",
   111c8:	000444b7          	lui	s1,0x44
   111cc:	74848593          	addi	a1,s1,1864 # 44748 <CSWTCH.18+0x22c0>
   111d0:	f8098513          	addi	a0,s3,-128
   111d4:	1aa140ef          	jal	ra,2537e <crypt>
   111d8:	20050f63          	beqz	a0,113f6 <crypt_main+0xb12>
   111dc:	b8a1b423          	sd	a0,-1144(gp) # 98a10 <p>
   111e0:	b881b503          	ld	a0,-1144(gp) # 98a10 <p>
   111e4:	000449b7          	lui	s3,0x44
   111e8:	77098593          	addi	a1,s3,1904 # 44770 <CSWTCH.18+0x22e8>
   111ec:	702220ef          	jal	ra,338ee <strcmp>
   111f0:	c10d                	beqz	a0,11212 <crypt_main+0x92e>
   111f2:	b881b683          	ld	a3,-1144(gp) # 98a10 <p>
   111f6:	000445b7          	lui	a1,0x44
   111fa:	00044537          	lui	a0,0x44
   111fe:	77098713          	addi	a4,s3,1904
   11202:	74848613          	addi	a2,s1,1864
   11206:	02858593          	addi	a1,a1,40 # 44028 <CSWTCH.18+0x1ba0>
   1120a:	7e850513          	addi	a0,a0,2024 # 447e8 <CSWTCH.18+0x2360>
   1120e:	3f8120ef          	jal	ra,23606 <t_printf>
	"$6$rounds=1400$anotherlongsaltstring", "a very much longer text to encrypt.  This one even stretches over morethan one line.")
T("$6$rounds=1000$roundstoolow$kUMsbe306n21p9R.FRkW3IGn.S9NPN0x50YhH1xhLsPuWGsUSklZt58jaTfF4ZEQpyUNGc0dqbpBYYBaHHrsX.",
   11212:	000454b7          	lui	s1,0x45
   11216:	83048593          	addi	a1,s1,-2000 # 44830 <CSWTCH.18+0x23a8>
   1121a:	0e890513          	addi	a0,s2,232
   1121e:	160140ef          	jal	ra,2537e <crypt>
   11222:	1e050163          	beqz	a0,11404 <crypt_main+0xb20>
   11226:	b8a1b423          	sd	a0,-1144(gp) # 98a10 <p>
   1122a:	b881b503          	ld	a0,-1144(gp) # 98a10 <p>
   1122e:	00045937          	lui	s2,0x45
   11232:	85090593          	addi	a1,s2,-1968 # 44850 <CSWTCH.18+0x23c8>
   11236:	6b8220ef          	jal	ra,338ee <strcmp>
   1123a:	c10d                	beqz	a0,1125c <crypt_main+0x978>
   1123c:	b881b683          	ld	a3,-1144(gp) # 98a10 <p>
   11240:	000445b7          	lui	a1,0x44
   11244:	00045537          	lui	a0,0x45
   11248:	85090713          	addi	a4,s2,-1968
   1124c:	83048613          	addi	a2,s1,-2000
   11250:	15858593          	addi	a1,a1,344 # 44158 <CSWTCH.18+0x1cd0>
   11254:	8c850513          	addi	a0,a0,-1848 # 448c8 <CSWTCH.18+0x2440>
   11258:	3ae120ef          	jal	ra,23606 <t_printf>
//T("$6$rounds=77777$short$WuQyW2YR.hBNpjjRhpYD/ifIw05xdfeEyQoMxIXbkvr0gge1a1x3yRULJ5CCaUeOxFmtlcGZelFl5CxtgfiAc0",
//	"$6$rounds=77777$short", "we have a short salt string but not a short password")
//T("$6$rounds=123456$asaltof16chars..$BtCwjqMJGx5hrJhZywWvt0RLE8uZ4oPwcelCjmw2kSYu.Ec6ycULevoBK25fs2xXgMNrCzIMVcgEJAstJeonj1",
//	"$6$rounds=123456$asaltof16chars..", "a short string")

return t_status;
   1125c:	b801a503          	lw	a0,-1152(gp) # 98a08 <_edata>
}
   11260:	60a6                	ld	ra,72(sp)
   11262:	6406                	ld	s0,64(sp)
   11264:	74e2                	ld	s1,56(sp)
   11266:	7942                	ld	s2,48(sp)
   11268:	79a2                	ld	s3,40(sp)
   1126a:	7a02                	ld	s4,32(sp)
   1126c:	6ae2                	ld	s5,24(sp)
   1126e:	6b42                	ld	s6,16(sp)
   11270:	6ba2                	ld	s7,8(sp)
   11272:	2501                	sext.w	a0,a0
   11274:	6161                	addi	sp,sp,80
   11276:	8082                	ret
T("$1$abcd0123$9Qcg8DyviekV3tDGMZynJ1", "$1$abcd0123$", "Xy01@#\x01\x02\x80\x7f\xff\r\n\x81\t !")
   11278:	27848793          	addi	a5,s1,632
   1127c:	b8f1b423          	sd	a5,-1144(gp) # 98a10 <p>
   11280:	e98ff06f          	j	10918 <crypt_main+0x34>
T("$1$$qRPK7m23GJusamGpoGLby/", "$1$$", "")
   11284:	27848793          	addi	a5,s1,632
   11288:	b8f1b423          	sd	a5,-1144(gp) # 98a10 <p>
   1128c:	edaff06f          	j	10966 <crypt_main+0x82>
T("$1$salt$UsdFqFVB.FsuinRDK5eE..", "$1$salt$", "")
   11290:	27848793          	addi	a5,s1,632
   11294:	b8f1b423          	sd	a5,-1144(gp) # 98a10 <p>
   11298:	f18ff06f          	j	109b0 <crypt_main+0xcc>
T("$1$salt1234$.pylIeU8A8nhxsVrZNOP..", "$1$salt1234$", "Aa@\xaa 0123456789")
   1129c:	27848793          	addi	a5,s1,632
   112a0:	b8f1b423          	sd	a5,-1144(gp) # 98a10 <p>
   112a4:	f5aff06f          	j	109fe <crypt_main+0x11a>
T("$1$aaaaaaaa$zqksdEYCs/p2VrrMTPU0x0", "$1$aaaaaaaaaaaaaaaaaaaa$", "aaaaaaaaaaaaaaaaaaaa")
   112a8:	27848793          	addi	a5,s1,632
   112ac:	b8f1b423          	sd	a5,-1144(gp) # 98a10 <p>
   112b0:	f9cff06f          	j	10a4c <crypt_main+0x168>
T("*",
   112b4:	27848793          	addi	a5,s1,632
   112b8:	b8f1b423          	sd	a5,-1144(gp) # 98a10 <p>
   112bc:	fdaff06f          	j	10a96 <crypt_main+0x1b2>
T("*",
   112c0:	27848793          	addi	a5,s1,632
   112c4:	b8f1b423          	sd	a5,-1144(gp) # 98a10 <p>
   112c8:	815ff06f          	j	10adc <crypt_main+0x1f8>
T("$2a$04$012345678901234567890u8auMTJmy9uQv1pCMPSGmRjXec5nzCf6",
   112cc:	27848793          	addi	a5,s1,632
   112d0:	b8f1b423          	sd	a5,-1144(gp) # 98a10 <p>
   112d4:	84fff06f          	j	10b22 <crypt_main+0x23e>
T("$2a$04$abcdefghijklmnopqrstuuEgxSMhZgdHqm5w1Iw6ZfXSn4If4J406",
   112d8:	27848793          	addi	a5,s1,632
   112dc:	b8f1b423          	sd	a5,-1144(gp) # 98a10 <p>
   112e0:	891ff06f          	j	10b70 <crypt_main+0x28c>
T("$2a$04$abcdefghijklmnopqrstuu8J3SjO9LQpndv9O3HW/e0PB1xKk.PJu",
   112e4:	27848793          	addi	a5,s1,632
   112e8:	b8f1b423          	sd	a5,-1144(gp) # 98a10 <p>
   112ec:	8cbff06f          	j	10bb6 <crypt_main+0x2d2>
T("$2x$04$abcdefghijklmnopqrstuubUAnPDiHn0JtKfNM4q6HN1ZsdaC1D8i",
   112f0:	27848793          	addi	a5,s1,632
   112f4:	b8f1b423          	sd	a5,-1144(gp) # 98a10 <p>
   112f8:	909ff06f          	j	10c00 <crypt_main+0x31c>
T("$2x$04$abcdefghijklmnopqrstuuxYRr8W0rYwastFTc35iurVdXD9PtVhq",
   112fc:	27848793          	addi	a5,s1,632
   11300:	b8f1b423          	sd	a5,-1144(gp) # 98a10 <p>
   11304:	b289                	j	10c46 <crypt_main+0x362>
T("$2y$04$abcdefghijklmnopqrstuubUAnPDiHn0JtKfNM4q6HN1ZsdaC1D8i",
   11306:	27848793          	addi	a5,s1,632
   1130a:	b8f1b423          	sd	a5,-1144(gp) # 98a10 <p>
   1130e:	b249                	j	10c90 <crypt_main+0x3ac>
T("$2y$04$abcdefghijklmnopqrstuu8J3SjO9LQpndv9O3HW/e0PB1xKk.PJu",
   11310:	27848793          	addi	a5,s1,632
   11314:	b8f1b423          	sd	a5,-1144(gp) # 98a10 <p>
   11318:	ba7d                	j	10cd6 <crypt_main+0x3f2>
T("$5$$3c2QQ0KjIU1OLtB29cl8Fplc2WN7X89bnoEjaR7tWu.", "$5$$", "")
   1131a:	27848493          	addi	s1,s1,632
   1131e:	b891b423          	sd	s1,-1144(gp) # 98a10 <p>
   11322:	bafd                	j	10d20 <crypt_main+0x43c>
T("$5$rounds=1234$abc0123456789$3VfDjPt05VHFn47C/ojFZ6KRPYrOjj1lLbH.dkF3bZ6", "$5$rounds=1234$abc0123456789$", "Xy01@#\x01\x02\x80\x7f\xff\r\n\x81\t !")
   11324:	000437b7          	lui	a5,0x43
   11328:	27878793          	addi	a5,a5,632 # 43278 <CSWTCH.18+0xdf0>
   1132c:	b8f1b423          	sd	a5,-1144(gp) # 98a10 <p>
   11330:	bc2d                	j	10d6a <crypt_main+0x486>
T("$5$salt1234$1145V3OxW91Wl.LSS3pmBHvb2jV3ujiUhD7DgpoJtw9", "$5$salt1234$", "Aa@\xaa 0123456789")
   11332:	000437b7          	lui	a5,0x43
   11336:	27878793          	addi	a5,a5,632 # 43278 <CSWTCH.18+0xdf0>
   1133a:	b8f1b423          	sd	a5,-1144(gp) # 98a10 <p>
   1133e:	bc9d                	j	10db4 <crypt_main+0x4d0>
T("$5$rounds=1000$$ZIwsx59lFMWVo3Yt6IxpZVn0IhpY8Yg4gxC21zUDBI4", "$5$rounds=1$", "a")
   11340:	000437b7          	lui	a5,0x43
   11344:	27878793          	addi	a5,a5,632 # 43278 <CSWTCH.18+0xdf0>
   11348:	b8f1b423          	sd	a5,-1144(gp) # 98a10 <p>
   1134c:	bc5d                	j	10e02 <crypt_main+0x51e>
T("$5$rounds=1234$$i.IiuqtWmTzupHAZtfV/PB33Usz.MwGHq9BKFAEj.B3", "$5$rounds=00001234$", "a")
   1134e:	000437b7          	lui	a5,0x43
   11352:	27878793          	addi	a5,a5,632 # 43278 <CSWTCH.18+0xdf0>
   11356:	b8f1b423          	sd	a5,-1144(gp) # 98a10 <p>
   1135a:	bccd                	j	10e4c <crypt_main+0x568>
T("$5$saltstring$5B8vYYiY.CVt1RlTTf8KbXBH3hsxY/GNooZaBBGWEc5",
   1135c:	000437b7          	lui	a5,0x43
   11360:	27878793          	addi	a5,a5,632 # 43278 <CSWTCH.18+0xdf0>
   11364:	b8f1b423          	sd	a5,-1144(gp) # 98a10 <p>
   11368:	be0d                	j	10e9a <crypt_main+0x5b6>
T("$5$rounds=5000$toolongsaltstrin$Un/5jzAHMgOGZ5.mWJpuVolil07guHPvOW8mGRcvxa5",
   1136a:	000437b7          	lui	a5,0x43
   1136e:	27878793          	addi	a5,a5,632 # 43278 <CSWTCH.18+0xdf0>
   11372:	b8f1b423          	sd	a5,-1144(gp) # 98a10 <p>
   11376:	be8d                	j	10ee8 <crypt_main+0x604>
T("$5$rounds=1400$anotherlongsalts$Rx.j8H.h8HjEDGomFU8bDkXm3XIUnzyxf12oP84Bnq1",
   11378:	000437b7          	lui	a5,0x43
   1137c:	27878793          	addi	a5,a5,632 # 43278 <CSWTCH.18+0xdf0>
   11380:	b8f1b423          	sd	a5,-1144(gp) # 98a10 <p>
   11384:	be4d                	j	10f36 <crypt_main+0x652>
T("$5$rounds=1000$roundstoolow$yfvwcWrQ8l/K0DAWyuPMDNHpIVlTQebY9l/gL972bIC",
   11386:	000437b7          	lui	a5,0x43
   1138a:	27878793          	addi	a5,a5,632 # 43278 <CSWTCH.18+0xdf0>
   1138e:	b8f1b423          	sd	a5,-1144(gp) # 98a10 <p>
   11392:	becd                	j	10f84 <crypt_main+0x6a0>
T("$6$$/chiBau24cE26QQVW3IfIe68Xu5.JQ4E8Ie7lcRLwqxO5cxGuBhqF2HmTL.zWJ9zjChg3yJYFXeGBQ2y3Ba1d1",
   11394:	000437b7          	lui	a5,0x43
   11398:	27878793          	addi	a5,a5,632 # 43278 <CSWTCH.18+0xdf0>
   1139c:	b8f1b423          	sd	a5,-1144(gp) # 98a10 <p>
   113a0:	b90d                	j	10fd2 <crypt_main+0x6ee>
T("$6$rounds=1234$abc0123456789$BCpt8zLrc/RcyuXmCDOE1ALqMXB2MH6n1g891HhFj8.w7LxGv.FTkqq6Vxc/km3Y0jE0j24jY5PIv/oOu6reg1",
   113a2:	000437b7          	lui	a5,0x43
   113a6:	27878793          	addi	a5,a5,632 # 43278 <CSWTCH.18+0xdf0>
   113aa:	b8f1b423          	sd	a5,-1144(gp) # 98a10 <p>
   113ae:	b98d                	j	11020 <crypt_main+0x73c>
T("$6$salt1234$44TYByJTJkEpcbmj8XzV6H7ltUN.7FUFFWKGeph85fMuAME8f1yQnXxqPbz6gfMq7tisOjTrxg3S2DDebWewt1",
   113b0:	000437b7          	lui	a5,0x43
   113b4:	27878793          	addi	a5,a5,632 # 43278 <CSWTCH.18+0xdf0>
   113b8:	b8f1b423          	sd	a5,-1144(gp) # 98a10 <p>
   113bc:	b94d                	j	1106e <crypt_main+0x78a>
T("$6$rounds=1000$$hETGMQQ5sXu1md3PrmRCM4AxTgbNpYQaIhk4xQzvCiNfeogfCR9PZGSRXghUOxMAPFU2wuz/ZLafIHrHopO.60",
   113be:	000437b7          	lui	a5,0x43
   113c2:	27878793          	addi	a5,a5,632 # 43278 <CSWTCH.18+0xdf0>
   113c6:	b8f1b423          	sd	a5,-1144(gp) # 98a10 <p>
   113ca:	b1fd                	j	110b8 <crypt_main+0x7d4>
T("$6$rounds=1234$$.9spjeVb1fINMikxgAZEpur.ZQ/Gte./HuKWm2sAZ37eK3e1.ZdfRuatKdR/H..lKQfb2AB.RtHh7xKm.FE2J.",
   113cc:	000437b7          	lui	a5,0x43
   113d0:	27878793          	addi	a5,a5,632 # 43278 <CSWTCH.18+0xdf0>
   113d4:	b8f1b423          	sd	a5,-1144(gp) # 98a10 <p>
   113d8:	b32d                	j	11102 <crypt_main+0x81e>
T("$6$saltstring$svn8UoSVapNtMuq1ukKS4tPQd8iKwSMHWjl/O817G3uBnIFNjnQJuesI68u4OTLiBFdcbYEdFCoEOfaS35inz1",
   113da:	000437b7          	lui	a5,0x43
   113de:	27878793          	addi	a5,a5,632 # 43278 <CSWTCH.18+0xdf0>
   113e2:	b8f1b423          	sd	a5,-1144(gp) # 98a10 <p>
   113e6:	b39d                	j	1114c <crypt_main+0x868>
T("$6$rounds=5000$toolongsaltstrin$lQ8jolhgVRVhY4b5pZKaysCLi0QBxGoNeKQzQ3glMhwllF7oGDZxUhx1yxdYcz/e1JSbq3y6JMxxl8audkUEm0",
   113e8:	000437b7          	lui	a5,0x43
   113ec:	27878793          	addi	a5,a5,632 # 43278 <CSWTCH.18+0xdf0>
   113f0:	b8f1b423          	sd	a5,-1144(gp) # 98a10 <p>
   113f4:	b34d                	j	11196 <crypt_main+0x8b2>
T("$6$rounds=1400$anotherlongsalts$POfYwTEok97VWcjxIiSOjiykti.o/pQs.wPvMxQ6Fm7I6IoYN3CmLs66x9t0oSwbtEW7o7UmJEiDwGqd8p4ur1",
   113f6:	000437b7          	lui	a5,0x43
   113fa:	27878793          	addi	a5,a5,632 # 43278 <CSWTCH.18+0xdf0>
   113fe:	b8f1b423          	sd	a5,-1144(gp) # 98a10 <p>
   11402:	bbf9                	j	111e0 <crypt_main+0x8fc>
T("$6$rounds=1000$roundstoolow$kUMsbe306n21p9R.FRkW3IGn.S9NPN0x50YhH1xhLsPuWGsUSklZt58jaTfF4ZEQpyUNGc0dqbpBYYBaHHrsX.",
   11404:	000437b7          	lui	a5,0x43
   11408:	27878793          	addi	a5,a5,632 # 43278 <CSWTCH.18+0xdf0>
   1140c:	b8f1b423          	sd	a5,-1144(gp) # 98a10 <p>
   11410:	bd29                	j	1122a <crypt_main+0x946>

0000000000011412 <dirname_main>:
	if (strcmp(want, got) != 0) \
		t_error("dirname(\"%s\") got \"%s\" want \"%s\"\n", path, got, want); \
}

int main()
{
   11412:	7135                	addi	sp,sp,-160
	if (strcmp(dirname(0), ".") != 0)
   11414:	4501                	li	a0,0
{
   11416:	e922                	sd	s0,144(sp)
   11418:	ed06                	sd	ra,152(sp)
   1141a:	e526                	sd	s1,136(sp)
   1141c:	e14a                	sd	s2,128(sp)
	if (strcmp(dirname(0), ".") != 0)
   1141e:	00042437          	lui	s0,0x42
   11422:	1a7170ef          	jal	ra,28dc8 <dirname>
   11426:	75840593          	addi	a1,s0,1880 # 42758 <CSWTCH.18+0x2d0>
   1142a:	4c4220ef          	jal	ra,338ee <strcmp>
   1142e:	c919                	beqz	a0,11444 <dirname_main+0x32>
		t_error("dirname(0) returned \"%s\"; expected \".\"\n", dirname(0));
   11430:	4501                	li	a0,0
   11432:	197170ef          	jal	ra,28dc8 <dirname>
   11436:	85aa                	mv	a1,a0
   11438:	00045537          	lui	a0,0x45
   1143c:	91050513          	addi	a0,a0,-1776 # 44910 <CSWTCH.18+0x2488>
   11440:	1c6120ef          	jal	ra,23606 <t_printf>
	T("", ".");
   11444:	0005f4b7          	lui	s1,0x5f
   11448:	5a848593          	addi	a1,s1,1448 # 5f5a8 <t+0x1758>
   1144c:	0828                	addi	a0,sp,24
   1144e:	4be220ef          	jal	ra,3390c <strcpy>
   11452:	177170ef          	jal	ra,28dc8 <dirname>
   11456:	85aa                	mv	a1,a0
   11458:	e42a                	sd	a0,8(sp)
   1145a:	75840513          	addi	a0,s0,1880
   1145e:	490220ef          	jal	ra,338ee <strcmp>
   11462:	6622                	ld	a2,8(sp)
   11464:	c919                	beqz	a0,1147a <dirname_main+0x68>
   11466:	00045537          	lui	a0,0x45
   1146a:	75840693          	addi	a3,s0,1880
   1146e:	5a848593          	addi	a1,s1,1448
   11472:	95850513          	addi	a0,a0,-1704 # 44958 <CSWTCH.18+0x24d0>
   11476:	190120ef          	jal	ra,23606 <t_printf>
	T("/usr/lib", "/usr");
   1147a:	000424b7          	lui	s1,0x42
   1147e:	7f048593          	addi	a1,s1,2032 # 427f0 <CSWTCH.18+0x368>
   11482:	0828                	addi	a0,sp,24
   11484:	488220ef          	jal	ra,3390c <strcpy>
   11488:	141170ef          	jal	ra,28dc8 <dirname>
   1148c:	00045937          	lui	s2,0x45
   11490:	85aa                	mv	a1,a0
   11492:	e42a                	sd	a0,8(sp)
   11494:	99890513          	addi	a0,s2,-1640 # 44998 <CSWTCH.18+0x2510>
   11498:	456220ef          	jal	ra,338ee <strcmp>
   1149c:	6622                	ld	a2,8(sp)
   1149e:	c919                	beqz	a0,114b4 <dirname_main+0xa2>
   114a0:	00045537          	lui	a0,0x45
   114a4:	99890693          	addi	a3,s2,-1640
   114a8:	7f048593          	addi	a1,s1,2032
   114ac:	9a050513          	addi	a0,a0,-1632 # 449a0 <CSWTCH.18+0x2518>
   114b0:	156120ef          	jal	ra,23606 <t_printf>
	T("/usr/", "/");
   114b4:	00043937          	lui	s2,0x43
   114b8:	85090593          	addi	a1,s2,-1968 # 42850 <CSWTCH.18+0x3c8>
   114bc:	0828                	addi	a0,sp,24
   114be:	44e220ef          	jal	ra,3390c <strcpy>
   114c2:	107170ef          	jal	ra,28dc8 <dirname>
   114c6:	000904b7          	lui	s1,0x90
   114ca:	85aa                	mv	a1,a0
   114cc:	e42a                	sd	a0,8(sp)
   114ce:	16048513          	addi	a0,s1,352 # 90160 <__pow_log_data+0x1050>
   114d2:	41c220ef          	jal	ra,338ee <strcmp>
   114d6:	6622                	ld	a2,8(sp)
   114d8:	c919                	beqz	a0,114ee <dirname_main+0xdc>
   114da:	00045537          	lui	a0,0x45
   114de:	16048693          	addi	a3,s1,352
   114e2:	85090593          	addi	a1,s2,-1968
   114e6:	9e050513          	addi	a0,a0,-1568 # 449e0 <CSWTCH.18+0x2558>
   114ea:	11c120ef          	jal	ra,23606 <t_printf>
	T("usr", ".");
   114ee:	00043937          	lui	s2,0x43
   114f2:	85890593          	addi	a1,s2,-1960 # 42858 <CSWTCH.18+0x3d0>
   114f6:	0828                	addi	a0,sp,24
   114f8:	414220ef          	jal	ra,3390c <strcpy>
   114fc:	0cd170ef          	jal	ra,28dc8 <dirname>
   11500:	85aa                	mv	a1,a0
   11502:	e42a                	sd	a0,8(sp)
   11504:	75840513          	addi	a0,s0,1880
   11508:	3e6220ef          	jal	ra,338ee <strcmp>
   1150c:	6622                	ld	a2,8(sp)
   1150e:	c919                	beqz	a0,11524 <dirname_main+0x112>
   11510:	00045537          	lui	a0,0x45
   11514:	75840693          	addi	a3,s0,1880
   11518:	85890593          	addi	a1,s2,-1960
   1151c:	a2050513          	addi	a0,a0,-1504 # 44a20 <CSWTCH.18+0x2598>
   11520:	0e6120ef          	jal	ra,23606 <t_printf>
	T("usr/", ".");
   11524:	00043937          	lui	s2,0x43
   11528:	8a890593          	addi	a1,s2,-1880 # 428a8 <CSWTCH.18+0x420>
   1152c:	0828                	addi	a0,sp,24
   1152e:	3de220ef          	jal	ra,3390c <strcpy>
   11532:	097170ef          	jal	ra,28dc8 <dirname>
   11536:	85aa                	mv	a1,a0
   11538:	e42a                	sd	a0,8(sp)
   1153a:	75840513          	addi	a0,s0,1880
   1153e:	3b0220ef          	jal	ra,338ee <strcmp>
   11542:	6622                	ld	a2,8(sp)
   11544:	c919                	beqz	a0,1155a <dirname_main+0x148>
   11546:	00045537          	lui	a0,0x45
   1154a:	75840693          	addi	a3,s0,1880
   1154e:	8a890593          	addi	a1,s2,-1880
   11552:	a6050513          	addi	a0,a0,-1440 # 44a60 <CSWTCH.18+0x25d8>
   11556:	0b0120ef          	jal	ra,23606 <t_printf>
	T("/", "/");
   1155a:	16048593          	addi	a1,s1,352
   1155e:	0828                	addi	a0,sp,24
   11560:	3ac220ef          	jal	ra,3390c <strcpy>
   11564:	065170ef          	jal	ra,28dc8 <dirname>
   11568:	85aa                	mv	a1,a0
   1156a:	e42a                	sd	a0,8(sp)
   1156c:	16048513          	addi	a0,s1,352
   11570:	37e220ef          	jal	ra,338ee <strcmp>
   11574:	6622                	ld	a2,8(sp)
   11576:	c919                	beqz	a0,1158c <dirname_main+0x17a>
   11578:	00045537          	lui	a0,0x45
   1157c:	16048693          	addi	a3,s1,352
   11580:	16048593          	addi	a1,s1,352
   11584:	aa050513          	addi	a0,a0,-1376 # 44aa0 <CSWTCH.18+0x2618>
   11588:	07e120ef          	jal	ra,23606 <t_printf>
	T("///", "/");
   1158c:	00043937          	lui	s2,0x43
   11590:	94090593          	addi	a1,s2,-1728 # 42940 <CSWTCH.18+0x4b8>
   11594:	0828                	addi	a0,sp,24
   11596:	376220ef          	jal	ra,3390c <strcpy>
   1159a:	02f170ef          	jal	ra,28dc8 <dirname>
   1159e:	85aa                	mv	a1,a0
   115a0:	e42a                	sd	a0,8(sp)
   115a2:	16048513          	addi	a0,s1,352
   115a6:	348220ef          	jal	ra,338ee <strcmp>
   115aa:	6622                	ld	a2,8(sp)
   115ac:	c919                	beqz	a0,115c2 <dirname_main+0x1b0>
   115ae:	00045537          	lui	a0,0x45
   115b2:	16048693          	addi	a3,s1,352
   115b6:	94090593          	addi	a1,s2,-1728
   115ba:	ae050513          	addi	a0,a0,-1312 # 44ae0 <CSWTCH.18+0x2658>
   115be:	048120ef          	jal	ra,23606 <t_printf>
	T(".", ".");
   115c2:	75840593          	addi	a1,s0,1880
   115c6:	0828                	addi	a0,sp,24
   115c8:	344220ef          	jal	ra,3390c <strcpy>
   115cc:	7fc170ef          	jal	ra,28dc8 <dirname>
   115d0:	85aa                	mv	a1,a0
   115d2:	e42a                	sd	a0,8(sp)
   115d4:	75840513          	addi	a0,s0,1880
   115d8:	316220ef          	jal	ra,338ee <strcmp>
   115dc:	6622                	ld	a2,8(sp)
   115de:	c919                	beqz	a0,115f4 <dirname_main+0x1e2>
   115e0:	00045537          	lui	a0,0x45
   115e4:	75840693          	addi	a3,s0,1880
   115e8:	75840593          	addi	a1,s0,1880
   115ec:	b2050513          	addi	a0,a0,-1248 # 44b20 <CSWTCH.18+0x2698>
   115f0:	016120ef          	jal	ra,23606 <t_printf>
	T("..", ".");
   115f4:	000434b7          	lui	s1,0x43
   115f8:	45048593          	addi	a1,s1,1104 # 43450 <CSWTCH.18+0xfc8>
   115fc:	0828                	addi	a0,sp,24
   115fe:	30e220ef          	jal	ra,3390c <strcpy>
   11602:	7c6170ef          	jal	ra,28dc8 <dirname>
   11606:	85aa                	mv	a1,a0
   11608:	e42a                	sd	a0,8(sp)
   1160a:	75840513          	addi	a0,s0,1880
   1160e:	2e0220ef          	jal	ra,338ee <strcmp>
   11612:	6622                	ld	a2,8(sp)
   11614:	c919                	beqz	a0,1162a <dirname_main+0x218>
   11616:	00045537          	lui	a0,0x45
   1161a:	75840693          	addi	a3,s0,1880
   1161e:	45048593          	addi	a1,s1,1104
   11622:	b6050513          	addi	a0,a0,-1184 # 44b60 <CSWTCH.18+0x26d8>
   11626:	7e1110ef          	jal	ra,23606 <t_printf>
	return t_status;
   1162a:	b801a503          	lw	a0,-1152(gp) # 98a08 <_edata>
}
   1162e:	60ea                	ld	ra,152(sp)
   11630:	644a                	ld	s0,144(sp)
   11632:	64aa                	ld	s1,136(sp)
   11634:	690a                	ld	s2,128(sp)
   11636:	2501                	sext.w	a0,a0
   11638:	610d                	addi	sp,sp,160
   1163a:	8082                	ret

000000000001163c <env_main>:
#include "test.h"

extern char **environ;

int main()
{
   1163c:	7139                	addi	sp,sp,-64
   1163e:	f04a                	sd	s2,32(sp)
	char *s;
	int r;
	if (!environ)
   11640:	c181b783          	ld	a5,-1000(gp) # 98aa0 <__environ>
{
   11644:	fc06                	sd	ra,56(sp)
   11646:	f822                	sd	s0,48(sp)
   11648:	f426                	sd	s1,40(sp)
   1164a:	ec4e                	sd	s3,24(sp)
   1164c:	e852                	sd	s4,16(sp)
	if (!environ)
   1164e:	e799                	bnez	a5,1165c <env_main+0x20>
		t_error("environ is NULL\n");
   11650:	00045537          	lui	a0,0x45
   11654:	ba050513          	addi	a0,a0,-1120 # 44ba0 <CSWTCH.18+0x2718>
   11658:	7af110ef          	jal	ra,23606 <t_printf>
	if (clearenv() || (environ && *environ))
   1165c:	15a150ef          	jal	ra,267b6 <clearenv>
   11660:	e511                	bnez	a0,1166c <env_main+0x30>
   11662:	c181b783          	ld	a5,-1000(gp) # 98aa0 <__environ>
   11666:	cf99                	beqz	a5,11684 <env_main+0x48>
   11668:	639c                	ld	a5,0(a5)
   1166a:	cf89                	beqz	a5,11684 <env_main+0x48>
		t_error("clrearenv: %s\n", strerror(errno));
   1166c:	47e150ef          	jal	ra,26aea <__errno_location>
   11670:	4108                	lw	a0,0(a0)
   11672:	4a8150ef          	jal	ra,26b1a <strerror>
   11676:	85aa                	mv	a1,a0
   11678:	00045537          	lui	a0,0x45
   1167c:	bd050513          	addi	a0,a0,-1072 # 44bd0 <CSWTCH.18+0x2748>
   11680:	787110ef          	jal	ra,23606 <t_printf>
	if (putenv("TEST=1"))
   11684:	000454b7          	lui	s1,0x45
   11688:	bf848513          	addi	a0,s1,-1032 # 44bf8 <CSWTCH.18+0x2770>
   1168c:	27c150ef          	jal	ra,26908 <putenv>
   11690:	89aa                	mv	s3,a0
   11692:	458150ef          	jal	ra,26aea <__errno_location>
   11696:	842a                	mv	s0,a0
   11698:	00098c63          	beqz	s3,116b0 <env_main+0x74>
		t_error("putenv: %s\n", strerror(errno));
   1169c:	4108                	lw	a0,0(a0)
   1169e:	47c150ef          	jal	ra,26b1a <strerror>
   116a2:	85aa                	mv	a1,a0
   116a4:	00045537          	lui	a0,0x45
   116a8:	c0050513          	addi	a0,a0,-1024 # 44c00 <CSWTCH.18+0x2778>
   116ac:	75b110ef          	jal	ra,23606 <t_printf>
	if (strcmp(environ[0],"TEST=1") != 0)
   116b0:	c181b783          	ld	a5,-1000(gp) # 98aa0 <__environ>
   116b4:	bf848593          	addi	a1,s1,-1032
   116b8:	6388                	ld	a0,0(a5)
   116ba:	234220ef          	jal	ra,338ee <strcmp>
   116be:	c911                	beqz	a0,116d2 <env_main+0x96>
		t_error("putenv failed: environ[0]: %s, wanted \"TEST=1\"\n", environ[0]);
   116c0:	c181b783          	ld	a5,-1000(gp) # 98aa0 <__environ>
   116c4:	00045537          	lui	a0,0x45
   116c8:	c2850513          	addi	a0,a0,-984 # 44c28 <CSWTCH.18+0x27a0>
   116cc:	638c                	ld	a1,0(a5)
   116ce:	739110ef          	jal	ra,23606 <t_printf>
	if ((s=environ[1]))
   116d2:	c181b783          	ld	a5,-1000(gp) # 98aa0 <__environ>
   116d6:	678c                	ld	a1,8(a5)
   116d8:	c599                	beqz	a1,116e6 <env_main+0xaa>
		t_error("environ[1]: %p, wanted 0\n", s);
   116da:	00045537          	lui	a0,0x45
   116de:	c7850513          	addi	a0,a0,-904 # 44c78 <CSWTCH.18+0x27f0>
   116e2:	725110ef          	jal	ra,23606 <t_printf>
	if (!(s=getenv("TEST")))
   116e6:	000454b7          	lui	s1,0x45
   116ea:	cb048513          	addi	a0,s1,-848 # 44cb0 <CSWTCH.18+0x2828>
   116ee:	0f0150ef          	jal	ra,267de <getenv>
   116f2:	89aa                	mv	s3,a0
   116f4:	e519                	bnez	a0,11702 <env_main+0xc6>
		t_error("getenv(\"TEST\"): 0, wanted \"1\"\n");
   116f6:	00045537          	lui	a0,0x45
   116fa:	cb850513          	addi	a0,a0,-840 # 44cb8 <CSWTCH.18+0x2830>
   116fe:	709110ef          	jal	ra,23606 <t_printf>
	if (strcmp(s,"1") != 0)
   11702:	000455b7          	lui	a1,0x45
   11706:	20858593          	addi	a1,a1,520 # 45208 <CSWTCH.18+0x2d80>
   1170a:	854e                	mv	a0,s3
   1170c:	1e2220ef          	jal	ra,338ee <strcmp>
   11710:	c901                	beqz	a0,11720 <env_main+0xe4>
		t_error("getenv(\"TEST\"): \"%s\", wanted \"1\"\n", s);
   11712:	00045537          	lui	a0,0x45
   11716:	85ce                	mv	a1,s3
   11718:	cf050513          	addi	a0,a0,-784 # 44cf0 <CSWTCH.18+0x2868>
   1171c:	6eb110ef          	jal	ra,23606 <t_printf>
	if (unsetenv("TEST"))
   11720:	cb048513          	addi	a0,s1,-848
   11724:	336150ef          	jal	ra,26a5a <unsetenv>
   11728:	c919                	beqz	a0,1173e <env_main+0x102>
		t_error("unsetenv: %s\n", strerror(errno));
   1172a:	4008                	lw	a0,0(s0)
   1172c:	3ee150ef          	jal	ra,26b1a <strerror>
   11730:	85aa                	mv	a1,a0
   11732:	00045537          	lui	a0,0x45
   11736:	d3050513          	addi	a0,a0,-720 # 44d30 <CSWTCH.18+0x28a8>
   1173a:	6cd110ef          	jal	ra,23606 <t_printf>
	if ((s=*environ))
   1173e:	c181b783          	ld	a5,-1000(gp) # 98aa0 <__environ>
   11742:	638c                	ld	a1,0(a5)
   11744:	c599                	beqz	a1,11752 <env_main+0x116>
		t_error("*environ: %p != 0\n", s);
   11746:	00045537          	lui	a0,0x45
   1174a:	d5850513          	addi	a0,a0,-680 # 44d58 <CSWTCH.18+0x28d0>
   1174e:	6b9110ef          	jal	ra,23606 <t_printf>
	if ((s=getenv("TEST")))
   11752:	cb048513          	addi	a0,s1,-848
   11756:	088150ef          	jal	ra,267de <getenv>
   1175a:	85aa                	mv	a1,a0
   1175c:	c519                	beqz	a0,1176a <env_main+0x12e>
		t_error("getenv(\"TEST\"): %p, wanted 0\n", s);
   1175e:	00045537          	lui	a0,0x45
   11762:	d8850513          	addi	a0,a0,-632 # 44d88 <CSWTCH.18+0x2900>
   11766:	6a1110ef          	jal	ra,23606 <t_printf>
	errno = 0;
	if (setenv("TEST", "2", 0))
   1176a:	000459b7          	lui	s3,0x45
	errno = 0;
   1176e:	00042023          	sw	zero,0(s0)
	if (setenv("TEST", "2", 0))
   11772:	4601                	li	a2,0
   11774:	dc098593          	addi	a1,s3,-576 # 44dc0 <CSWTCH.18+0x2938>
   11778:	cb048513          	addi	a0,s1,-848
   1177c:	236150ef          	jal	ra,269b2 <setenv>
   11780:	c919                	beqz	a0,11796 <env_main+0x15a>
		t_error("setenv: %s\n", strerror(errno));
   11782:	4008                	lw	a0,0(s0)
   11784:	396150ef          	jal	ra,26b1a <strerror>
   11788:	85aa                	mv	a1,a0
   1178a:	00045537          	lui	a0,0x45
   1178e:	dc850513          	addi	a0,a0,-568 # 44dc8 <CSWTCH.18+0x2940>
   11792:	675110ef          	jal	ra,23606 <t_printf>
	if (strcmp(s=getenv("TEST"),"2") != 0)
   11796:	cb048513          	addi	a0,s1,-848
   1179a:	044150ef          	jal	ra,267de <getenv>
   1179e:	dc098593          	addi	a1,s3,-576
   117a2:	8a2a                	mv	s4,a0
   117a4:	14a220ef          	jal	ra,338ee <strcmp>
   117a8:	c901                	beqz	a0,117b8 <env_main+0x17c>
		t_error("getenv(\"TEST\"): \"%s\", wanted \"2\"\n", s);
   117aa:	00045537          	lui	a0,0x45
   117ae:	85d2                	mv	a1,s4
   117b0:	df050513          	addi	a0,a0,-528 # 44df0 <CSWTCH.18+0x2968>
   117b4:	653110ef          	jal	ra,23606 <t_printf>
	if (strcmp(environ[0], "TEST=2") != 0)
   117b8:	c181b783          	ld	a5,-1000(gp) # 98aa0 <__environ>
   117bc:	000455b7          	lui	a1,0x45
   117c0:	e3058593          	addi	a1,a1,-464 # 44e30 <CSWTCH.18+0x29a8>
   117c4:	6388                	ld	a0,0(a5)
   117c6:	128220ef          	jal	ra,338ee <strcmp>
   117ca:	c911                	beqz	a0,117de <env_main+0x1a2>
		t_error("setenv failed: environ[0]: %s, wanted \"TEST=2\"\n", environ[0]);
   117cc:	c181b783          	ld	a5,-1000(gp) # 98aa0 <__environ>
   117d0:	00045537          	lui	a0,0x45
   117d4:	e3850513          	addi	a0,a0,-456 # 44e38 <CSWTCH.18+0x29b0>
   117d8:	638c                	ld	a1,0(a5)
   117da:	62d110ef          	jal	ra,23606 <t_printf>
	errno = 0;
	if (setenv("TEST", "3", 0))
   117de:	00048937          	lui	s2,0x48
	errno = 0;
   117e2:	00042023          	sw	zero,0(s0)
	if (setenv("TEST", "3", 0))
   117e6:	4601                	li	a2,0
   117e8:	7d090593          	addi	a1,s2,2000 # 487d0 <CSWTCH.18+0x6348>
   117ec:	cb048513          	addi	a0,s1,-848
   117f0:	1c2150ef          	jal	ra,269b2 <setenv>
   117f4:	c919                	beqz	a0,1180a <env_main+0x1ce>
		t_error("setenv: %s\n", strerror(errno));
   117f6:	4008                	lw	a0,0(s0)
   117f8:	322150ef          	jal	ra,26b1a <strerror>
   117fc:	85aa                	mv	a1,a0
   117fe:	00045537          	lui	a0,0x45
   11802:	e8850513          	addi	a0,a0,-376 # 44e88 <CSWTCH.18+0x2a00>
   11806:	601110ef          	jal	ra,23606 <t_printf>
	if (strcmp(s=getenv("TEST"),"2") != 0)
   1180a:	cb048513          	addi	a0,s1,-848
   1180e:	7d1140ef          	jal	ra,267de <getenv>
   11812:	dc098593          	addi	a1,s3,-576
   11816:	8a2a                	mv	s4,a0
   11818:	0d6220ef          	jal	ra,338ee <strcmp>
   1181c:	c901                	beqz	a0,1182c <env_main+0x1f0>
		t_error("getenv(\"TEST\"): \"%s\", wanted \"2\"\n", s);
   1181e:	00045537          	lui	a0,0x45
   11822:	85d2                	mv	a1,s4
   11824:	eb050513          	addi	a0,a0,-336 # 44eb0 <CSWTCH.18+0x2a28>
   11828:	5df110ef          	jal	ra,23606 <t_printf>
	errno = 0;
   1182c:	00042023          	sw	zero,0(s0)
	if (setenv("TEST", "3", 1))
   11830:	4605                	li	a2,1
   11832:	7d090593          	addi	a1,s2,2000
   11836:	cb048513          	addi	a0,s1,-848
   1183a:	178150ef          	jal	ra,269b2 <setenv>
   1183e:	c919                	beqz	a0,11854 <env_main+0x218>
		t_error("setenv: %s\n", strerror(errno));
   11840:	4008                	lw	a0,0(s0)
   11842:	2d8150ef          	jal	ra,26b1a <strerror>
   11846:	85aa                	mv	a1,a0
   11848:	00045537          	lui	a0,0x45
   1184c:	ef050513          	addi	a0,a0,-272 # 44ef0 <CSWTCH.18+0x2a68>
   11850:	5b7110ef          	jal	ra,23606 <t_printf>
	if (strcmp(s=getenv("TEST"),"3") != 0)
   11854:	cb048513          	addi	a0,s1,-848
   11858:	787140ef          	jal	ra,267de <getenv>
   1185c:	7d090593          	addi	a1,s2,2000
   11860:	84aa                	mv	s1,a0
   11862:	08c220ef          	jal	ra,338ee <strcmp>
   11866:	c901                	beqz	a0,11876 <env_main+0x23a>
		t_error("getenv(\"TEST\"): \"%s\", wanted \"3\"\n", s);
   11868:	00045537          	lui	a0,0x45
   1186c:	85a6                	mv	a1,s1
   1186e:	f1850513          	addi	a0,a0,-232 # 44f18 <CSWTCH.18+0x2a90>
   11872:	595110ef          	jal	ra,23606 <t_printf>
	/* test failures */
	errno = 0;
	if ((r=setenv("","",0)) != -1 || errno != EINVAL)
   11876:	0005f537          	lui	a0,0x5f
   1187a:	5a850593          	addi	a1,a0,1448 # 5f5a8 <t+0x1758>
	errno = 0;
   1187e:	00042023          	sw	zero,0(s0)
	if ((r=setenv("","",0)) != -1 || errno != EINVAL)
   11882:	4601                	li	a2,0
   11884:	5a850513          	addi	a0,a0,1448
   11888:	12a150ef          	jal	ra,269b2 <setenv>
   1188c:	57fd                	li	a5,-1
   1188e:	85aa                	mv	a1,a0
   11890:	00f51663          	bne	a0,a5,1189c <env_main+0x260>
   11894:	4018                	lw	a4,0(s0)
   11896:	47d9                	li	a5,22
   11898:	02f70263          	beq	a4,a5,118bc <env_main+0x280>
		t_error("setenv(\"\",\"\",0): %d, errno: %d (%s), wanted -1, %d (EINVAL)\n", r, errno, strerror(errno), EINVAL);
   1189c:	4010                	lw	a2,0(s0)
   1189e:	e42e                	sd	a1,8(sp)
   118a0:	8532                	mv	a0,a2
   118a2:	e032                	sd	a2,0(sp)
   118a4:	276150ef          	jal	ra,26b1a <strerror>
   118a8:	6602                	ld	a2,0(sp)
   118aa:	65a2                	ld	a1,8(sp)
   118ac:	86aa                	mv	a3,a0
   118ae:	00045537          	lui	a0,0x45
   118b2:	4759                	li	a4,22
   118b4:	f5850513          	addi	a0,a0,-168 # 44f58 <CSWTCH.18+0x2ad0>
   118b8:	54f110ef          	jal	ra,23606 <t_printf>
	return t_status;
   118bc:	b801a503          	lw	a0,-1152(gp) # 98a08 <_edata>
}
   118c0:	70e2                	ld	ra,56(sp)
   118c2:	7442                	ld	s0,48(sp)
   118c4:	74a2                	ld	s1,40(sp)
   118c6:	7902                	ld	s2,32(sp)
   118c8:	69e2                	ld	s3,24(sp)
   118ca:	6a42                	ld	s4,16(sp)
   118cc:	2501                	sext.w	a0,a0
   118ce:	6121                	addi	sp,sp,64
   118d0:	8082                	ret

00000000000118d2 <fdopen_main>:
	if (!(c)) \
		t_error("%s failed (errno = %d)\n", #c, errno); \
} while(0)

int main(void)
{
   118d2:	715d                	addi	sp,sp,-80
	char tmp[] = "/tmp/testsuite-XXXXXX";
   118d4:	000455b7          	lui	a1,0x45
   118d8:	4659                	li	a2,22
   118da:	24858593          	addi	a1,a1,584 # 45248 <CSWTCH.18+0x2dc0>
   118de:	0028                	addi	a0,sp,8
{
   118e0:	e486                	sd	ra,72(sp)
   118e2:	e0a2                	sd	s0,64(sp)
   118e4:	fc26                	sd	s1,56(sp)
   118e6:	f84a                	sd	s2,48(sp)
   118e8:	f44e                	sd	s3,40(sp)
	char tmp[] = "/tmp/testsuite-XXXXXX";
   118ea:	41e210ef          	jal	ra,32d08 <memcpy>
	char foo[6];
	int fd;
	FILE *f;

	TEST((fd = mkstemp(tmp)) > 2);
   118ee:	1fc150ef          	jal	ra,26aea <__errno_location>
   118f2:	00052023          	sw	zero,0(a0)
   118f6:	842a                	mv	s0,a0
   118f8:	0028                	addi	a0,sp,8
   118fa:	5b7220ef          	jal	ra,346b0 <mkstemp>
   118fe:	4789                	li	a5,2
   11900:	84aa                	mv	s1,a0
   11902:	00a7cd63          	blt	a5,a0,1191c <fdopen_main+0x4a>
   11906:	4010                	lw	a2,0(s0)
   11908:	000455b7          	lui	a1,0x45
   1190c:	00045537          	lui	a0,0x45
   11910:	fb058593          	addi	a1,a1,-80 # 44fb0 <CSWTCH.18+0x2b28>
   11914:	fc850513          	addi	a0,a0,-56 # 44fc8 <CSWTCH.18+0x2b40>
   11918:	4ef110ef          	jal	ra,23606 <t_printf>
	TEST(write(fd, "hello", 6)==6);
   1191c:	000459b7          	lui	s3,0x45
   11920:	00042023          	sw	zero,0(s0)
   11924:	4619                	li	a2,6
   11926:	00098593          	mv	a1,s3
   1192a:	8526                	mv	a0,s1
   1192c:	3f9260ef          	jal	ra,38524 <write>
   11930:	4799                	li	a5,6
   11932:	00f50d63          	beq	a0,a5,1194c <fdopen_main+0x7a>
   11936:	4010                	lw	a2,0(s0)
   11938:	000455b7          	lui	a1,0x45
   1193c:	00045537          	lui	a0,0x45
   11940:	00858593          	addi	a1,a1,8 # 45008 <CSWTCH.18+0x2b80>
   11944:	02850513          	addi	a0,a0,40 # 45028 <CSWTCH.18+0x2ba0>
   11948:	4bf110ef          	jal	ra,23606 <t_printf>
	TEST(f = fdopen(fd, "rb"));
   1194c:	000455b7          	lui	a1,0x45
   11950:	00042023          	sw	zero,0(s0)
   11954:	06058593          	addi	a1,a1,96 # 45060 <CSWTCH.18+0x2bd8>
   11958:	8526                	mv	a0,s1
   1195a:	35e1d0ef          	jal	ra,2ecb8 <__fdopen>
   1195e:	892a                	mv	s2,a0
   11960:	ed21                	bnez	a0,119b8 <fdopen_main+0xe6>
   11962:	4010                	lw	a2,0(s0)
   11964:	000455b7          	lui	a1,0x45
   11968:	00045537          	lui	a0,0x45
   1196c:	06858593          	addi	a1,a1,104 # 45068 <CSWTCH.18+0x2be0>
   11970:	08050513          	addi	a0,a0,128 # 45080 <CSWTCH.18+0x2bf8>
   11974:	493110ef          	jal	ra,23606 <t_printf>
		TEST(fgets(foo, sizeof foo, f));
		if (strcmp(foo,"hello") != 0)
			t_error("fgets read back: \"%s\"; wanted: \"hello\"\n", foo);
		fclose(f);
	}
	if (fd > 2)
   11978:	4789                	li	a5,2
   1197a:	0297d563          	ble	s1,a5,119a4 <fdopen_main+0xd2>
		TEST(unlink(tmp) != -1);
   1197e:	00042023          	sw	zero,0(s0)
   11982:	0028                	addi	a0,sp,8
   11984:	381260ef          	jal	ra,38504 <unlink>
   11988:	57fd                	li	a5,-1
   1198a:	00f51d63          	bne	a0,a5,119a4 <fdopen_main+0xd2>
   1198e:	4010                	lw	a2,0(s0)
   11990:	000455b7          	lui	a1,0x45
   11994:	00045537          	lui	a0,0x45
   11998:	1f858593          	addi	a1,a1,504 # 451f8 <CSWTCH.18+0x2d70>
   1199c:	21050513          	addi	a0,a0,528 # 45210 <CSWTCH.18+0x2d88>
   119a0:	467110ef          	jal	ra,23606 <t_printf>
	return t_status;
   119a4:	b801a503          	lw	a0,-1152(gp) # 98a08 <_edata>
}
   119a8:	60a6                	ld	ra,72(sp)
   119aa:	6406                	ld	s0,64(sp)
   119ac:	74e2                	ld	s1,56(sp)
   119ae:	7942                	ld	s2,48(sp)
   119b0:	79a2                	ld	s3,40(sp)
	return t_status;
   119b2:	2501                	sext.w	a0,a0
}
   119b4:	6161                	addi	sp,sp,80
   119b6:	8082                	ret
		TEST(ftello(f)==6);
   119b8:	00042023          	sw	zero,0(s0)
   119bc:	0d01e0ef          	jal	ra,2fa8c <__ftello>
   119c0:	4799                	li	a5,6
   119c2:	00f50d63          	beq	a0,a5,119dc <fdopen_main+0x10a>
   119c6:	4010                	lw	a2,0(s0)
   119c8:	000455b7          	lui	a1,0x45
   119cc:	00045537          	lui	a0,0x45
   119d0:	0b858593          	addi	a1,a1,184 # 450b8 <CSWTCH.18+0x2c30>
   119d4:	0c850513          	addi	a0,a0,200 # 450c8 <CSWTCH.18+0x2c40>
   119d8:	42f110ef          	jal	ra,23606 <t_printf>
		TEST(fseeko(f, 0, SEEK_SET)==0);
   119dc:	00042023          	sw	zero,0(s0)
   119e0:	4601                	li	a2,0
   119e2:	4581                	li	a1,0
   119e4:	854a                	mv	a0,s2
   119e6:	01a1e0ef          	jal	ra,2fa00 <__fseeko>
   119ea:	cd01                	beqz	a0,11a02 <fdopen_main+0x130>
   119ec:	4010                	lw	a2,0(s0)
   119ee:	000455b7          	lui	a1,0x45
   119f2:	00045537          	lui	a0,0x45
   119f6:	10058593          	addi	a1,a1,256 # 45100 <CSWTCH.18+0x2c78>
   119fa:	12050513          	addi	a0,a0,288 # 45120 <CSWTCH.18+0x2c98>
   119fe:	409110ef          	jal	ra,23606 <t_printf>
		TEST(fgets(foo, sizeof foo, f));
   11a02:	00042023          	sw	zero,0(s0)
   11a06:	864a                	mv	a2,s2
   11a08:	4599                	li	a1,6
   11a0a:	850a                	mv	a0,sp
   11a0c:	7ee1d0ef          	jal	ra,2f1fa <fgets>
   11a10:	ed01                	bnez	a0,11a28 <fdopen_main+0x156>
   11a12:	4010                	lw	a2,0(s0)
   11a14:	000455b7          	lui	a1,0x45
   11a18:	00045537          	lui	a0,0x45
   11a1c:	15858593          	addi	a1,a1,344 # 45158 <CSWTCH.18+0x2cd0>
   11a20:	17850513          	addi	a0,a0,376 # 45178 <CSWTCH.18+0x2cf0>
   11a24:	3e3110ef          	jal	ra,23606 <t_printf>
		if (strcmp(foo,"hello") != 0)
   11a28:	00098593          	mv	a1,s3
   11a2c:	850a                	mv	a0,sp
   11a2e:	6c1210ef          	jal	ra,338ee <strcmp>
   11a32:	c901                	beqz	a0,11a42 <fdopen_main+0x170>
			t_error("fgets read back: \"%s\"; wanted: \"hello\"\n", foo);
   11a34:	00045537          	lui	a0,0x45
   11a38:	858a                	mv	a1,sp
   11a3a:	1b050513          	addi	a0,a0,432 # 451b0 <CSWTCH.18+0x2d28>
   11a3e:	3c9110ef          	jal	ra,23606 <t_printf>
		fclose(f);
   11a42:	854a                	mv	a0,s2
   11a44:	4fa1d0ef          	jal	ra,2ef3e <fclose>
   11a48:	bf05                	j	11978 <fdopen_main+0xa6>

0000000000011a4a <fnmatch_main>:
	{ "[!a-c]", "d", FNM_CASEFOLD, 0 },
#endif
};

int main(void)
{
   11a4a:	7175                	addi	sp,sp,-144
   11a4c:	f0d2                	sd	s4,96(sp)
   11a4e:	00097a37          	lui	s4,0x97
   11a52:	f4ce                	sd	s3,104(sp)
   11a54:	e8da                	sd	s6,80(sp)
   11a56:	000a0993          	mv	s3,s4
   11a5a:	e4de                	sd	s7,72(sp)
	sep = "";
   11a5c:	0005fb37          	lui	s6,0x5f
			sep = "|";
   11a60:	00042bb7          	lui	s7,0x42
{
   11a64:	e122                	sd	s0,128(sp)
   11a66:	ecd6                	sd	s5,88(sp)
   11a68:	e0e2                	sd	s8,64(sp)
   11a6a:	05098413          	addi	s0,s3,80 # 45050 <CSWTCH.18+0x2bc8>
   11a6e:	e506                	sd	ra,136(sp)
   11a70:	fca6                	sd	s1,120(sp)
   11a72:	f8ca                	sd	s2,112(sp)
   11a74:	fc66                	sd	s9,56(sp)
   11a76:	f86a                	sd	s10,48(sp)
   11a78:	f46e                	sd	s11,40(sp)
   11a7a:	74098993          	addi	s3,s3,1856
   11a7e:	000a0a13          	mv	s4,s4
		int r, x;

		r = fnmatch(tests[i].pattern, tests[i].string, tests[i].flags);
		x = tests[i].expected;
		if (r != x && (r != FNM_NOMATCH || x != -FNM_NOMATCH)) {
			t_error("fnmatch(\"%s\", \"%s\", %s) failed, got %d want %d\n",
   11a82:	00045c37          	lui	s8,0x45
	sep = "";
   11a86:	5a8b0b13          	addi	s6,s6,1448 # 5f5a8 <t+0x1758>
			sep = "|";
   11a8a:	3b0b8b93          	addi	s7,s7,944 # 423b0 <__clzdi2+0x96>
		r = fnmatch(tests[i].pattern, tests[i].string, tests[i].flags);
   11a8e:	4810                	lw	a2,16(s0)
   11a90:	640c                	ld	a1,8(s0)
   11a92:	6008                	ld	a0,0(s0)
   11a94:	6e3180ef          	jal	ra,2a976 <fnmatch>
		x = tests[i].expected;
   11a98:	01442d83          	lw	s11,20(s0)
		r = fnmatch(tests[i].pattern, tests[i].string, tests[i].flags);
   11a9c:	892a                	mv	s2,a0
		if (r != x && (r != FNM_NOMATCH || x != -FNM_NOMATCH)) {
   11a9e:	05b50063          	beq	a0,s11,11ade <fnmatch_main+0x94>
   11aa2:	4785                	li	a5,1
   11aa4:	00f51563          	bne	a0,a5,11aae <fnmatch_main+0x64>
   11aa8:	57fd                	li	a5,-1
   11aaa:	02fd8a63          	beq	s11,a5,11ade <fnmatch_main+0x94>
			t_error("fnmatch(\"%s\", \"%s\", %s) failed, got %d want %d\n",
   11aae:	4804                	lw	s1,16(s0)
   11ab0:	00043c83          	ld	s9,0(s0)
   11ab4:	00843d03          	ld	s10,8(s0)
	if (!flags) {
   11ab8:	e0cd                	bnez	s1,11b5a <fnmatch_main+0x110>
		sprintf(buf, "0");
   11aba:	000635b7          	lui	a1,0x63
   11abe:	f5858593          	addi	a1,a1,-168 # 62f58 <t+0x5108>
   11ac2:	eb018513          	addi	a0,gp,-336 # 98d38 <buf.1967>
   11ac6:	7101e0ef          	jal	ra,301d6 <sprintf>
			t_error("fnmatch(\"%s\", \"%s\", %s) failed, got %d want %d\n",
   11aca:	87ee                	mv	a5,s11
   11acc:	874a                	mv	a4,s2
   11ace:	eb018693          	addi	a3,gp,-336 # 98d38 <buf.1967>
   11ad2:	866a                	mv	a2,s10
   11ad4:	85e6                	mv	a1,s9
   11ad6:	270c0513          	addi	a0,s8,624 # 45270 <CSWTCH.18+0x2de8>
   11ada:	32d110ef          	jal	ra,23606 <t_printf>
	for (i = 0; i < sizeof(tests) / sizeof(*tests); i++) {
   11ade:	0461                	addi	s0,s0,24
   11ae0:	fb3417e3          	bne	s0,s3,11a8e <fnmatch_main+0x44>
				tests[i].pattern, tests[i].string,
				flagstr(fnmatch_flags, tests[i].flags),
				r, x);
		}
	}
	return t_status;
   11ae4:	b801a503          	lw	a0,-1152(gp) # 98a08 <_edata>
}
   11ae8:	60aa                	ld	ra,136(sp)
   11aea:	640a                	ld	s0,128(sp)
   11aec:	74e6                	ld	s1,120(sp)
   11aee:	7946                	ld	s2,112(sp)
   11af0:	79a6                	ld	s3,104(sp)
   11af2:	7a06                	ld	s4,96(sp)
   11af4:	6ae6                	ld	s5,88(sp)
   11af6:	6b46                	ld	s6,80(sp)
   11af8:	6ba6                	ld	s7,72(sp)
   11afa:	6c06                	ld	s8,64(sp)
   11afc:	7ce2                	ld	s9,56(sp)
   11afe:	7d42                	ld	s10,48(sp)
   11b00:	7da2                	ld	s11,40(sp)
   11b02:	2501                	sext.w	a0,a0
   11b04:	6149                	addi	sp,sp,144
   11b06:	8082                	ret
		if (map->val && (flags & map->val) == map->val) {
   11b08:	438c                	lw	a1,0(a5)
   11b0a:	c995                	beqz	a1,11b3e <fnmatch_main+0xf4>
   11b0c:	0095f533          	and	a0,a1,s1
   11b10:	02a59763          	bne	a1,a0,11b3e <fnmatch_main+0xf4>
			n += sprintf(buf+n, "%s%s", sep, map->str);
   11b14:	00e80533          	add	a0,a6,a4
   11b18:	3b888593          	addi	a1,a7,952
   11b1c:	ec3e                	sd	a5,24(sp)
   11b1e:	e83a                	sd	a4,16(sp)
   11b20:	e442                	sd	a6,8(sp)
   11b22:	6b41e0ef          	jal	ra,301d6 <sprintf>
			flags &= ~(map->val);
   11b26:	67e2                	ld	a5,24(sp)
			n += sprintf(buf+n, "%s%s", sep, map->str);
   11b28:	6742                	ld	a4,16(sp)
			sep = "|";
   11b2a:	6822                	ld	a6,8(sp)
			flags &= ~(map->val);
   11b2c:	4394                	lw	a3,0(a5)
			n += sprintf(buf+n, "%s%s", sep, map->str);
   11b2e:	9f29                	addw	a4,a4,a0
			sep = "|";
   11b30:	865e                	mv	a2,s7
			flags &= ~(map->val);
   11b32:	fff6c693          	not	a3,a3
   11b36:	8cf5                	and	s1,s1,a3
   11b38:	2481                	sext.w	s1,s1
			sep = "|";
   11b3a:	000428b7          	lui	a7,0x42
	for (; map->str; map++) {
   11b3e:	07c1                	addi	a5,a5,16
   11b40:	6794                	ld	a3,8(a5)
   11b42:	f2f9                	bnez	a3,11b08 <fnmatch_main+0xbe>
	if (flags)
   11b44:	d0d9                	beqz	s1,11aca <fnmatch_main+0x80>
		sprintf(buf, "%sunknown=%#x", sep, flags);
   11b46:	000455b7          	lui	a1,0x45
   11b4a:	86a6                	mv	a3,s1
   11b4c:	26058593          	addi	a1,a1,608 # 45260 <CSWTCH.18+0x2dd8>
   11b50:	eb018513          	addi	a0,gp,-336 # 98d38 <buf.1967>
   11b54:	6821e0ef          	jal	ra,301d6 <sprintf>
   11b58:	bf8d                	j	11aca <fnmatch_main+0x80>
	n = 0;
   11b5a:	4701                	li	a4,0
	sep = "";
   11b5c:	865a                	mv	a2,s6
   11b5e:	87d2                	mv	a5,s4
			n += sprintf(buf+n, "%s%s", sep, map->str);
   11b60:	eb018813          	addi	a6,gp,-336 # 98d38 <buf.1967>
   11b64:	000428b7          	lui	a7,0x42
   11b68:	bfe1                	j	11b40 <fnmatch_main+0xf6>

0000000000011b6a <fscanf_main>:
	rewind(f);
	return f;
}

int main(void)
{
   11b6a:	7169                	addi	sp,sp,-304
   11b6c:	f222                	sd	s0,288(sp)
   11b6e:	f606                	sd	ra,296(sp)
   11b70:	ee26                	sd	s1,280(sp)
   11b72:	ea4a                	sd	s2,272(sp)
   11b74:	a622                	fsd	fs0,264(sp)
   11b76:	a226                	fsd	fs1,256(sp)
	double u;
	char a[100], b[100];
	FILE *f;
	int p[2];

	TEST(i, pipe(p), 0, "failed to open pipe %d!=%d (%s)");
   11b78:	773140ef          	jal	ra,26aea <__errno_location>
   11b7c:	842a                	mv	s0,a0
   11b7e:	00052023          	sw	zero,0(a0)
   11b82:	1028                	addi	a0,sp,40
   11b84:	0ed260ef          	jal	ra,38470 <pipe>
   11b88:	c115                	beqz	a0,11bac <fscanf_main+0x42>
   11b8a:	e42a                	sd	a0,8(sp)
   11b8c:	4008                	lw	a0,0(s0)
   11b8e:	78d140ef          	jal	ra,26b1a <strerror>
   11b92:	6622                	ld	a2,8(sp)
   11b94:	872a                	mv	a4,a0
   11b96:	000455b7          	lui	a1,0x45
   11b9a:	00045537          	lui	a0,0x45
   11b9e:	4681                	li	a3,0
   11ba0:	5b858593          	addi	a1,a1,1464 # 455b8 <CSWTCH.18+0x3130>
   11ba4:	5c050513          	addi	a0,a0,1472 # 455c0 <CSWTCH.18+0x3138>
   11ba8:	25f110ef          	jal	ra,23606 <t_printf>
	TEST(i, !(f = fdopen(p[0], "rb")), 0, "failed to fdopen pipe %d!=%d (%s)");
   11bac:	5522                	lw	a0,40(sp)
   11bae:	000455b7          	lui	a1,0x45
   11bb2:	00042023          	sw	zero,0(s0)
   11bb6:	06058593          	addi	a1,a1,96 # 45060 <CSWTCH.18+0x2bd8>
   11bba:	0fe1d0ef          	jal	ra,2ecb8 <__fdopen>
   11bbe:	84aa                	mv	s1,a0
   11bc0:	080514e3          	bnez	a0,12448 <fscanf_main+0x8de>
   11bc4:	4008                	lw	a0,0(s0)
   11bc6:	755140ef          	jal	ra,26b1a <strerror>
   11bca:	872a                	mv	a4,a0
   11bcc:	000455b7          	lui	a1,0x45
   11bd0:	00045537          	lui	a0,0x45
   11bd4:	4681                	li	a3,0
   11bd6:	4605                	li	a2,1
   11bd8:	61058593          	addi	a1,a1,1552 # 45610 <CSWTCH.18+0x3188>
   11bdc:	63050513          	addi	a0,a0,1584 # 45630 <CSWTCH.18+0x31a8>
   11be0:	227110ef          	jal	ra,23606 <t_printf>

	if (!f) {
		close(p[0]);
   11be4:	5522                	lw	a0,40(sp)
   11be6:	7c2260ef          	jal	ra,383a8 <close>
		close(p[1]);
   11bea:	5532                	lw	a0,44(sp)
   11bec:	7bc260ef          	jal	ra,383a8 <close>
		return 1;
   11bf0:	4505                	li	a0,1
		TEST(i, feof(f), 0, "%d != %d");
		fclose(f);
	}

	return t_status;
}
   11bf2:	70b2                	ld	ra,296(sp)
   11bf4:	7412                	ld	s0,288(sp)
   11bf6:	64f2                	ld	s1,280(sp)
   11bf8:	6952                	ld	s2,272(sp)
   11bfa:	2432                	fld	fs0,264(sp)
   11bfc:	2492                	fld	fs1,256(sp)
   11bfe:	6155                	addi	sp,sp,304
   11c00:	8082                	ret
		TEST(i, fscanf(f, "%x%n", &x, &y), 0, "%d != %d");
   11c02:	000465b7          	lui	a1,0x46
		x=y=-1;
   11c06:	57fd                	li	a5,-1
		TEST(i, fscanf(f, "%x%n", &x, &y), 0, "%d != %d");
   11c08:	0830                	addi	a2,sp,24
   11c0a:	00042023          	sw	zero,0(s0)
   11c0e:	0874                	addi	a3,sp,28
   11c10:	63058593          	addi	a1,a1,1584 # 46630 <CSWTCH.18+0x41a8>
		x=y=-1;
   11c14:	ce3e                	sw	a5,28(sp)
   11c16:	cc3e                	sw	a5,24(sp)
		TEST(i, fscanf(f, "%x%n", &x, &y), 0, "%d != %d");
   11c18:	5491d0ef          	jal	ra,2f960 <fscanf>
   11c1c:	862a                	mv	a2,a0
   11c1e:	c115                	beqz	a0,11c42 <fscanf_main+0xd8>
   11c20:	4008                	lw	a0,0(s0)
   11c22:	e432                	sd	a2,8(sp)
   11c24:	6f7140ef          	jal	ra,26b1a <strerror>
   11c28:	6622                	ld	a2,8(sp)
   11c2a:	872a                	mv	a4,a0
   11c2c:	000465b7          	lui	a1,0x46
   11c30:	00046537          	lui	a0,0x46
   11c34:	4681                	li	a3,0
   11c36:	4f858593          	addi	a1,a1,1272 # 464f8 <CSWTCH.18+0x4070>
   11c3a:	51850513          	addi	a0,a0,1304 # 46518 <CSWTCH.18+0x4090>
   11c3e:	1c9110ef          	jal	ra,23606 <t_printf>
		TEST(i, x, -1, "%d != %d");
   11c42:	4662                	lw	a2,24(sp)
   11c44:	00042023          	sw	zero,0(s0)
   11c48:	57fd                	li	a5,-1
   11c4a:	e432                	sd	a2,8(sp)
   11c4c:	02f60263          	beq	a2,a5,11c70 <fscanf_main+0x106>
   11c50:	4501                	li	a0,0
   11c52:	6c9140ef          	jal	ra,26b1a <strerror>
   11c56:	6622                	ld	a2,8(sp)
   11c58:	872a                	mv	a4,a0
   11c5a:	000905b7          	lui	a1,0x90
   11c5e:	00046537          	lui	a0,0x46
   11c62:	56fd                	li	a3,-1
   11c64:	56858593          	addi	a1,a1,1384 # 90568 <messages+0x1d0>
   11c68:	55050513          	addi	a0,a0,1360 # 46550 <CSWTCH.18+0x40c8>
   11c6c:	19b110ef          	jal	ra,23606 <t_printf>
		TEST(i, y, -1, "%d != %d");
   11c70:	4672                	lw	a2,28(sp)
   11c72:	00042023          	sw	zero,0(s0)
   11c76:	57fd                	li	a5,-1
   11c78:	e432                	sd	a2,8(sp)
   11c7a:	02f60263          	beq	a2,a5,11c9e <fscanf_main+0x134>
   11c7e:	4501                	li	a0,0
   11c80:	69b140ef          	jal	ra,26b1a <strerror>
   11c84:	6622                	ld	a2,8(sp)
   11c86:	872a                	mv	a4,a0
   11c88:	000465b7          	lui	a1,0x46
   11c8c:	00046537          	lui	a0,0x46
   11c90:	56fd                	li	a3,-1
   11c92:	ac058593          	addi	a1,a1,-1344 # 45ac0 <CSWTCH.18+0x3638>
   11c96:	58850513          	addi	a0,a0,1416 # 46588 <CSWTCH.18+0x4100>
   11c9a:	16d110ef          	jal	ra,23606 <t_printf>
		TEST(i, ftell(f), 2, "%d != %d");
   11c9e:	00042023          	sw	zero,0(s0)
   11ca2:	8526                	mv	a0,s1
   11ca4:	6271d0ef          	jal	ra,2faca <ftell>
   11ca8:	0005061b          	sext.w	a2,a0
   11cac:	4789                	li	a5,2
   11cae:	e432                	sd	a2,8(sp)
   11cb0:	02f60263          	beq	a2,a5,11cd4 <fscanf_main+0x16a>
   11cb4:	4008                	lw	a0,0(s0)
   11cb6:	665140ef          	jal	ra,26b1a <strerror>
   11cba:	6622                	ld	a2,8(sp)
   11cbc:	872a                	mv	a4,a0
   11cbe:	000465b7          	lui	a1,0x46
   11cc2:	00046537          	lui	a0,0x46
   11cc6:	4689                	li	a3,2
   11cc8:	b0058593          	addi	a1,a1,-1280 # 45b00 <CSWTCH.18+0x3678>
   11ccc:	5c050513          	addi	a0,a0,1472 # 465c0 <CSWTCH.18+0x4138>
   11cd0:	137110ef          	jal	ra,23606 <t_printf>
		TEST(i, feof(f), 0, "%d != %d");
   11cd4:	00042023          	sw	zero,0(s0)
   11cd8:	8526                	mv	a0,s1
   11cda:	2e41d0ef          	jal	ra,2efbe <feof>
   11cde:	c115                	beqz	a0,11d02 <fscanf_main+0x198>
   11ce0:	e42a                	sd	a0,8(sp)
   11ce2:	4008                	lw	a0,0(s0)
   11ce4:	637140ef          	jal	ra,26b1a <strerror>
   11ce8:	6622                	ld	a2,8(sp)
   11cea:	872a                	mv	a4,a0
   11cec:	000465b7          	lui	a1,0x46
   11cf0:	00046537          	lui	a0,0x46
   11cf4:	4681                	li	a3,0
   11cf6:	dc058593          	addi	a1,a1,-576 # 45dc0 <CSWTCH.18+0x3938>
   11cfa:	5f850513          	addi	a0,a0,1528 # 465f8 <CSWTCH.18+0x4170>
   11cfe:	109110ef          	jal	ra,23606 <t_printf>
		fclose(f);
   11d02:	8526                	mv	a0,s1
   11d04:	23a1d0ef          	jal	ra,2ef3e <fclose>
   11d08:	2450006f          	j	1274c <fscanf_main+0xbe2>
		x=y=-1;
   11d0c:	57fd                	li	a5,-1
   11d0e:	ce3e                	sw	a5,28(sp)
   11d10:	cc3e                	sw	a5,24(sp)
		u=-1;
   11d12:	8181b787          	fld	fa5,-2024(gp) # 986a0 <__SDATA_BEGIN__+0x18>
		TEST(i, fscanf(f, "%lf%n %i", &u, &x, &y), 2, "%d != %d");
   11d16:	000465b7          	lui	a1,0x46
   11d1a:	1010                	addi	a2,sp,32
   11d1c:	00042023          	sw	zero,0(s0)
   11d20:	0878                	addi	a4,sp,28
   11d22:	0834                	addi	a3,sp,24
   11d24:	63858593          	addi	a1,a1,1592 # 46638 <CSWTCH.18+0x41b0>
		u=-1;
   11d28:	b03e                	fsd	fa5,32(sp)
		TEST(i, fscanf(f, "%lf%n %i", &u, &x, &y), 2, "%d != %d");
   11d2a:	4371d0ef          	jal	ra,2f960 <fscanf>
   11d2e:	4789                	li	a5,2
   11d30:	862a                	mv	a2,a0
   11d32:	02f50363          	beq	a0,a5,11d58 <fscanf_main+0x1ee>
   11d36:	4008                	lw	a0,0(s0)
   11d38:	e432                	sd	a2,8(sp)
   11d3a:	5e1140ef          	jal	ra,26b1a <strerror>
   11d3e:	6622                	ld	a2,8(sp)
   11d40:	872a                	mv	a4,a0
   11d42:	000465b7          	lui	a1,0x46
   11d46:	00046537          	lui	a0,0x46
   11d4a:	4689                	li	a3,2
   11d4c:	31858593          	addi	a1,a1,792 # 46318 <CSWTCH.18+0x3e90>
   11d50:	34050513          	addi	a0,a0,832 # 46340 <CSWTCH.18+0x3eb8>
   11d54:	0b3110ef          	jal	ra,23606 <t_printf>
		TEST(u, u, 1.0, "%g != %g");
   11d58:	3402                	fld	fs0,32(sp)
   11d5a:	8201b487          	fld	fs1,-2016(gp) # 986a8 <__SDATA_BEGIN__+0x20>
   11d5e:	00042023          	sw	zero,0(s0)
   11d62:	a29427d3          	feq.d	a5,fs0,fs1
   11d66:	e39d                	bnez	a5,11d8c <fscanf_main+0x222>
   11d68:	4501                	li	a0,0
   11d6a:	5b1140ef          	jal	ra,26b1a <strerror>
   11d6e:	e20486d3          	fmv.x.d	a3,fs1
   11d72:	e2040653          	fmv.x.d	a2,fs0
   11d76:	872a                	mv	a4,a0
   11d78:	000465b7          	lui	a1,0x46
   11d7c:	00046537          	lui	a0,0x46
   11d80:	f0858593          	addi	a1,a1,-248 # 45f08 <CSWTCH.18+0x3a80>
   11d84:	37850513          	addi	a0,a0,888 # 46378 <CSWTCH.18+0x3ef0>
   11d88:	07f110ef          	jal	ra,23606 <t_printf>
		TEST(i, x, 6, "%d != %d");
   11d8c:	4662                	lw	a2,24(sp)
   11d8e:	00042023          	sw	zero,0(s0)
   11d92:	4799                	li	a5,6
   11d94:	e432                	sd	a2,8(sp)
   11d96:	02f60263          	beq	a2,a5,11dba <fscanf_main+0x250>
   11d9a:	4501                	li	a0,0
   11d9c:	57f140ef          	jal	ra,26b1a <strerror>
   11da0:	6622                	ld	a2,8(sp)
   11da2:	872a                	mv	a4,a0
   11da4:	000905b7          	lui	a1,0x90
   11da8:	00046537          	lui	a0,0x46
   11dac:	4699                	li	a3,6
   11dae:	56858593          	addi	a1,a1,1384 # 90568 <messages+0x1d0>
   11db2:	3b050513          	addi	a0,a0,944 # 463b0 <CSWTCH.18+0x3f28>
   11db6:	051110ef          	jal	ra,23606 <t_printf>
		TEST(i, y, 10, "%d != %d");
   11dba:	4672                	lw	a2,28(sp)
   11dbc:	00042023          	sw	zero,0(s0)
   11dc0:	47a9                	li	a5,10
   11dc2:	e432                	sd	a2,8(sp)
   11dc4:	02f60263          	beq	a2,a5,11de8 <fscanf_main+0x27e>
   11dc8:	4501                	li	a0,0
   11dca:	551140ef          	jal	ra,26b1a <strerror>
   11dce:	6622                	ld	a2,8(sp)
   11dd0:	872a                	mv	a4,a0
   11dd2:	000465b7          	lui	a1,0x46
   11dd6:	00046537          	lui	a0,0x46
   11dda:	46a9                	li	a3,10
   11ddc:	ac058593          	addi	a1,a1,-1344 # 45ac0 <CSWTCH.18+0x3638>
   11de0:	3e850513          	addi	a0,a0,1000 # 463e8 <CSWTCH.18+0x3f60>
   11de4:	023110ef          	jal	ra,23606 <t_printf>
		TEST(i, ftell(f), 13, "%d != %d");
   11de8:	00042023          	sw	zero,0(s0)
   11dec:	8526                	mv	a0,s1
   11dee:	4dd1d0ef          	jal	ra,2faca <ftell>
   11df2:	0005061b          	sext.w	a2,a0
   11df6:	47b5                	li	a5,13
   11df8:	e432                	sd	a2,8(sp)
   11dfa:	02f60263          	beq	a2,a5,11e1e <fscanf_main+0x2b4>
   11dfe:	4008                	lw	a0,0(s0)
   11e00:	51b140ef          	jal	ra,26b1a <strerror>
   11e04:	6622                	ld	a2,8(sp)
   11e06:	872a                	mv	a4,a0
   11e08:	000465b7          	lui	a1,0x46
   11e0c:	00046537          	lui	a0,0x46
   11e10:	46b5                	li	a3,13
   11e12:	b0058593          	addi	a1,a1,-1280 # 45b00 <CSWTCH.18+0x3678>
   11e16:	42050513          	addi	a0,a0,1056 # 46420 <CSWTCH.18+0x3f98>
   11e1a:	7ec110ef          	jal	ra,23606 <t_printf>
		TEST(i, !!feof(f), 1, "%d != %d");
   11e1e:	00042023          	sw	zero,0(s0)
   11e22:	8526                	mv	a0,s1
   11e24:	19a1d0ef          	jal	ra,2efbe <feof>
   11e28:	e10d                	bnez	a0,11e4a <fscanf_main+0x2e0>
   11e2a:	4008                	lw	a0,0(s0)
   11e2c:	4ef140ef          	jal	ra,26b1a <strerror>
   11e30:	872a                	mv	a4,a0
   11e32:	000465b7          	lui	a1,0x46
   11e36:	00046537          	lui	a0,0x46
   11e3a:	4685                	li	a3,1
   11e3c:	4601                	li	a2,0
   11e3e:	b4858593          	addi	a1,a1,-1208 # 45b48 <CSWTCH.18+0x36c0>
   11e42:	45850513          	addi	a0,a0,1112 # 46458 <CSWTCH.18+0x3fd0>
   11e46:	7c0110ef          	jal	ra,23606 <t_printf>
		fclose(f);
   11e4a:	8526                	mv	a0,s1
   11e4c:	0f21d0ef          	jal	ra,2ef3e <fclose>
   11e50:	0c70006f          	j	12716 <fscanf_main+0xbac>
		u=-1;
   11e54:	8181b787          	fld	fa5,-2024(gp) # 986a0 <__SDATA_BEGIN__+0x18>
		TEST(i, fscanf(f, "%lf%n %d", &u, &x, &y), 0, "%d != %d");
   11e58:	000465b7          	lui	a1,0x46
		x=y=-1;
   11e5c:	57fd                	li	a5,-1
		TEST(i, fscanf(f, "%lf%n %d", &u, &x, &y), 0, "%d != %d");
   11e5e:	1010                	addi	a2,sp,32
   11e60:	00042023          	sw	zero,0(s0)
   11e64:	0878                	addi	a4,sp,28
   11e66:	0834                	addi	a3,sp,24
   11e68:	64858593          	addi	a1,a1,1608 # 46648 <CSWTCH.18+0x41c0>
		x=y=-1;
   11e6c:	ce3e                	sw	a5,28(sp)
   11e6e:	cc3e                	sw	a5,24(sp)
		u=-1;
   11e70:	b03e                	fsd	fa5,32(sp)
		TEST(i, fscanf(f, "%lf%n %d", &u, &x, &y), 0, "%d != %d");
   11e72:	2ef1d0ef          	jal	ra,2f960 <fscanf>
   11e76:	862a                	mv	a2,a0
   11e78:	c115                	beqz	a0,11e9c <fscanf_main+0x332>
   11e7a:	4008                	lw	a0,0(s0)
   11e7c:	e432                	sd	a2,8(sp)
   11e7e:	49d140ef          	jal	ra,26b1a <strerror>
   11e82:	6622                	ld	a2,8(sp)
   11e84:	872a                	mv	a4,a0
   11e86:	000465b7          	lui	a1,0x46
   11e8a:	00046537          	lui	a0,0x46
   11e8e:	4681                	li	a3,0
   11e90:	ea858593          	addi	a1,a1,-344 # 45ea8 <CSWTCH.18+0x3a20>
   11e94:	ed050513          	addi	a0,a0,-304 # 45ed0 <CSWTCH.18+0x3a48>
   11e98:	76e110ef          	jal	ra,23606 <t_printf>
		TEST(u, u, -1.0, "%g != %g");
   11e9c:	3402                	fld	fs0,32(sp)
   11e9e:	8181b487          	fld	fs1,-2024(gp) # 986a0 <__SDATA_BEGIN__+0x18>
   11ea2:	00042023          	sw	zero,0(s0)
   11ea6:	a29427d3          	feq.d	a5,fs0,fs1
   11eaa:	e39d                	bnez	a5,11ed0 <fscanf_main+0x366>
   11eac:	4501                	li	a0,0
   11eae:	46d140ef          	jal	ra,26b1a <strerror>
   11eb2:	e20486d3          	fmv.x.d	a3,fs1
   11eb6:	e2040653          	fmv.x.d	a2,fs0
   11eba:	872a                	mv	a4,a0
   11ebc:	000465b7          	lui	a1,0x46
   11ec0:	00046537          	lui	a0,0x46
   11ec4:	f0858593          	addi	a1,a1,-248 # 45f08 <CSWTCH.18+0x3a80>
   11ec8:	f1050513          	addi	a0,a0,-240 # 45f10 <CSWTCH.18+0x3a88>
   11ecc:	73a110ef          	jal	ra,23606 <t_printf>
		TEST(i, x, -1, "%d != %d");
   11ed0:	4662                	lw	a2,24(sp)
   11ed2:	00042023          	sw	zero,0(s0)
   11ed6:	57fd                	li	a5,-1
   11ed8:	e432                	sd	a2,8(sp)
   11eda:	02f60263          	beq	a2,a5,11efe <fscanf_main+0x394>
   11ede:	4501                	li	a0,0
   11ee0:	43b140ef          	jal	ra,26b1a <strerror>
   11ee4:	6622                	ld	a2,8(sp)
   11ee6:	872a                	mv	a4,a0
   11ee8:	000905b7          	lui	a1,0x90
   11eec:	00046537          	lui	a0,0x46
   11ef0:	56fd                	li	a3,-1
   11ef2:	56858593          	addi	a1,a1,1384 # 90568 <messages+0x1d0>
   11ef6:	f4850513          	addi	a0,a0,-184 # 45f48 <CSWTCH.18+0x3ac0>
   11efa:	70c110ef          	jal	ra,23606 <t_printf>
		TEST(i, y, -1, "%d != %d");
   11efe:	4672                	lw	a2,28(sp)
   11f00:	00042023          	sw	zero,0(s0)
   11f04:	57fd                	li	a5,-1
   11f06:	e432                	sd	a2,8(sp)
   11f08:	02f60263          	beq	a2,a5,11f2c <fscanf_main+0x3c2>
   11f0c:	4501                	li	a0,0
   11f0e:	40d140ef          	jal	ra,26b1a <strerror>
   11f12:	6622                	ld	a2,8(sp)
   11f14:	872a                	mv	a4,a0
   11f16:	000465b7          	lui	a1,0x46
   11f1a:	00046537          	lui	a0,0x46
   11f1e:	56fd                	li	a3,-1
   11f20:	ac058593          	addi	a1,a1,-1344 # 45ac0 <CSWTCH.18+0x3638>
   11f24:	f8050513          	addi	a0,a0,-128 # 45f80 <CSWTCH.18+0x3af8>
   11f28:	6de110ef          	jal	ra,23606 <t_printf>
		TEST(i, ftell(f), 4, "%d != %d");
   11f2c:	00042023          	sw	zero,0(s0)
   11f30:	8526                	mv	a0,s1
   11f32:	3991d0ef          	jal	ra,2faca <ftell>
   11f36:	0005061b          	sext.w	a2,a0
   11f3a:	4791                	li	a5,4
   11f3c:	e432                	sd	a2,8(sp)
   11f3e:	02f60263          	beq	a2,a5,11f62 <fscanf_main+0x3f8>
   11f42:	4008                	lw	a0,0(s0)
   11f44:	3d7140ef          	jal	ra,26b1a <strerror>
   11f48:	6622                	ld	a2,8(sp)
   11f4a:	872a                	mv	a4,a0
   11f4c:	000465b7          	lui	a1,0x46
   11f50:	00046537          	lui	a0,0x46
   11f54:	4691                	li	a3,4
   11f56:	b0058593          	addi	a1,a1,-1280 # 45b00 <CSWTCH.18+0x3678>
   11f5a:	fb850513          	addi	a0,a0,-72 # 45fb8 <CSWTCH.18+0x3b30>
   11f5e:	6a8110ef          	jal	ra,23606 <t_printf>
		TEST(i, feof(f), 0, "%d != %d");
   11f62:	00042023          	sw	zero,0(s0)
   11f66:	8526                	mv	a0,s1
   11f68:	0561d0ef          	jal	ra,2efbe <feof>
   11f6c:	c115                	beqz	a0,11f90 <fscanf_main+0x426>
   11f6e:	e42a                	sd	a0,8(sp)
   11f70:	4008                	lw	a0,0(s0)
   11f72:	3a9140ef          	jal	ra,26b1a <strerror>
   11f76:	6622                	ld	a2,8(sp)
   11f78:	872a                	mv	a4,a0
   11f7a:	000465b7          	lui	a1,0x46
   11f7e:	00046537          	lui	a0,0x46
   11f82:	4681                	li	a3,0
   11f84:	dc058593          	addi	a1,a1,-576 # 45dc0 <CSWTCH.18+0x3938>
   11f88:	ff050513          	addi	a0,a0,-16 # 45ff0 <CSWTCH.18+0x3b68>
   11f8c:	67a110ef          	jal	ra,23606 <t_printf>
		TEST(i, fgetc(f), ' ', "%d != %d");
   11f90:	00042023          	sw	zero,0(s0)
   11f94:	8526                	mv	a0,s1
   11f96:	2241d0ef          	jal	ra,2f1ba <fgetc>
   11f9a:	02000793          	li	a5,32
   11f9e:	e42a                	sd	a0,8(sp)
   11fa0:	02f50363          	beq	a0,a5,11fc6 <fscanf_main+0x45c>
   11fa4:	4008                	lw	a0,0(s0)
   11fa6:	375140ef          	jal	ra,26b1a <strerror>
   11faa:	6622                	ld	a2,8(sp)
   11fac:	872a                	mv	a4,a0
   11fae:	000465b7          	lui	a1,0x46
   11fb2:	00046537          	lui	a0,0x46
   11fb6:	02000693          	li	a3,32
   11fba:	80858593          	addi	a1,a1,-2040 # 45808 <CSWTCH.18+0x3380>
   11fbe:	02850513          	addi	a0,a0,40 # 46028 <CSWTCH.18+0x3ba0>
   11fc2:	644110ef          	jal	ra,23606 <t_printf>
		rewind(f);
   11fc6:	8526                	mv	a0,s1
   11fc8:	1601e0ef          	jal	ra,30128 <rewind>
		TEST(i, fgetc(f), '0', "%d != %d");
   11fcc:	8526                	mv	a0,s1
   11fce:	00042023          	sw	zero,0(s0)
   11fd2:	1e81d0ef          	jal	ra,2f1ba <fgetc>
   11fd6:	03000793          	li	a5,48
   11fda:	e42a                	sd	a0,8(sp)
   11fdc:	02f50363          	beq	a0,a5,12002 <fscanf_main+0x498>
   11fe0:	4008                	lw	a0,0(s0)
   11fe2:	339140ef          	jal	ra,26b1a <strerror>
   11fe6:	6622                	ld	a2,8(sp)
   11fe8:	872a                	mv	a4,a0
   11fea:	000465b7          	lui	a1,0x46
   11fee:	00046537          	lui	a0,0x46
   11ff2:	03000693          	li	a3,48
   11ff6:	80858593          	addi	a1,a1,-2040 # 45808 <CSWTCH.18+0x3380>
   11ffa:	06050513          	addi	a0,a0,96 # 46060 <CSWTCH.18+0x3bd8>
   11ffe:	608110ef          	jal	ra,23606 <t_printf>
		TEST(i, fgetc(f), 'x', "%d != %d");
   12002:	00042023          	sw	zero,0(s0)
   12006:	8526                	mv	a0,s1
   12008:	1b21d0ef          	jal	ra,2f1ba <fgetc>
   1200c:	07800793          	li	a5,120
   12010:	e42a                	sd	a0,8(sp)
   12012:	02f50363          	beq	a0,a5,12038 <fscanf_main+0x4ce>
   12016:	4008                	lw	a0,0(s0)
   12018:	303140ef          	jal	ra,26b1a <strerror>
   1201c:	6622                	ld	a2,8(sp)
   1201e:	872a                	mv	a4,a0
   12020:	000465b7          	lui	a1,0x46
   12024:	00046537          	lui	a0,0x46
   12028:	07800693          	li	a3,120
   1202c:	80858593          	addi	a1,a1,-2040 # 45808 <CSWTCH.18+0x3380>
   12030:	09850513          	addi	a0,a0,152 # 46098 <CSWTCH.18+0x3c10>
   12034:	5d2110ef          	jal	ra,23606 <t_printf>
		TEST(i, fscanf(f, "%lf%n%c %d", &u, &x, a, &y), 3, "%d != %d");
   12038:	000465b7          	lui	a1,0x46
   1203c:	087c                	addi	a5,sp,28
   1203e:	00042023          	sw	zero,0(s0)
   12042:	1818                	addi	a4,sp,48
   12044:	0834                	addi	a3,sp,24
   12046:	1010                	addi	a2,sp,32
   12048:	0d058593          	addi	a1,a1,208 # 460d0 <CSWTCH.18+0x3c48>
   1204c:	8526                	mv	a0,s1
   1204e:	1131d0ef          	jal	ra,2f960 <fscanf>
   12052:	478d                	li	a5,3
   12054:	e42a                	sd	a0,8(sp)
   12056:	02f50263          	beq	a0,a5,1207a <fscanf_main+0x510>
   1205a:	4008                	lw	a0,0(s0)
   1205c:	2bf140ef          	jal	ra,26b1a <strerror>
   12060:	6622                	ld	a2,8(sp)
   12062:	872a                	mv	a4,a0
   12064:	000465b7          	lui	a1,0x46
   12068:	00046537          	lui	a0,0x46
   1206c:	468d                	li	a3,3
   1206e:	0e058593          	addi	a1,a1,224 # 460e0 <CSWTCH.18+0x3c58>
   12072:	10850513          	addi	a0,a0,264 # 46108 <CSWTCH.18+0x3c80>
   12076:	590110ef          	jal	ra,23606 <t_printf>
		TEST(u, u, 1.0, "%g != %g");
   1207a:	3402                	fld	fs0,32(sp)
   1207c:	8201b487          	fld	fs1,-2016(gp) # 986a8 <__SDATA_BEGIN__+0x20>
   12080:	00042023          	sw	zero,0(s0)
   12084:	a29427d3          	feq.d	a5,fs0,fs1
   12088:	e39d                	bnez	a5,120ae <fscanf_main+0x544>
   1208a:	4501                	li	a0,0
   1208c:	28f140ef          	jal	ra,26b1a <strerror>
   12090:	e20486d3          	fmv.x.d	a3,fs1
   12094:	e2040653          	fmv.x.d	a2,fs0
   12098:	872a                	mv	a4,a0
   1209a:	000465b7          	lui	a1,0x46
   1209e:	00046537          	lui	a0,0x46
   120a2:	f0858593          	addi	a1,a1,-248 # 45f08 <CSWTCH.18+0x3a80>
   120a6:	14050513          	addi	a0,a0,320 # 46140 <CSWTCH.18+0x3cb8>
   120aa:	55c110ef          	jal	ra,23606 <t_printf>
		TEST(i, x, 1, "%d != %d");
   120ae:	4662                	lw	a2,24(sp)
   120b0:	00042023          	sw	zero,0(s0)
   120b4:	4785                	li	a5,1
   120b6:	e432                	sd	a2,8(sp)
   120b8:	02f60263          	beq	a2,a5,120dc <fscanf_main+0x572>
   120bc:	4501                	li	a0,0
   120be:	25d140ef          	jal	ra,26b1a <strerror>
   120c2:	6622                	ld	a2,8(sp)
   120c4:	872a                	mv	a4,a0
   120c6:	000905b7          	lui	a1,0x90
   120ca:	00046537          	lui	a0,0x46
   120ce:	4685                	li	a3,1
   120d0:	56858593          	addi	a1,a1,1384 # 90568 <messages+0x1d0>
   120d4:	17850513          	addi	a0,a0,376 # 46178 <CSWTCH.18+0x3cf0>
   120d8:	52e110ef          	jal	ra,23606 <t_printf>
		TEST(i, a[0], 'p', "%d != %d");
   120dc:	03014603          	lbu	a2,48(sp)
   120e0:	00042023          	sw	zero,0(s0)
   120e4:	07000793          	li	a5,112
   120e8:	e432                	sd	a2,8(sp)
   120ea:	02f60363          	beq	a2,a5,12110 <fscanf_main+0x5a6>
   120ee:	4501                	li	a0,0
   120f0:	22b140ef          	jal	ra,26b1a <strerror>
   120f4:	6622                	ld	a2,8(sp)
   120f6:	872a                	mv	a4,a0
   120f8:	000465b7          	lui	a1,0x46
   120fc:	00046537          	lui	a0,0x46
   12100:	07000693          	li	a3,112
   12104:	1b058593          	addi	a1,a1,432 # 461b0 <CSWTCH.18+0x3d28>
   12108:	1b850513          	addi	a0,a0,440 # 461b8 <CSWTCH.18+0x3d30>
   1210c:	4fa110ef          	jal	ra,23606 <t_printf>
		TEST(i, y, 12, "%d != %d");
   12110:	4672                	lw	a2,28(sp)
   12112:	00042023          	sw	zero,0(s0)
   12116:	47b1                	li	a5,12
   12118:	e432                	sd	a2,8(sp)
   1211a:	02f60263          	beq	a2,a5,1213e <fscanf_main+0x5d4>
   1211e:	4501                	li	a0,0
   12120:	1fb140ef          	jal	ra,26b1a <strerror>
   12124:	6622                	ld	a2,8(sp)
   12126:	872a                	mv	a4,a0
   12128:	000465b7          	lui	a1,0x46
   1212c:	00046537          	lui	a0,0x46
   12130:	46b1                	li	a3,12
   12132:	ac058593          	addi	a1,a1,-1344 # 45ac0 <CSWTCH.18+0x3638>
   12136:	1f050513          	addi	a0,a0,496 # 461f0 <CSWTCH.18+0x3d68>
   1213a:	4cc110ef          	jal	ra,23606 <t_printf>
		TEST(i, ftell(f), 7, "%d != %d");
   1213e:	00042023          	sw	zero,0(s0)
   12142:	8526                	mv	a0,s1
   12144:	1871d0ef          	jal	ra,2faca <ftell>
   12148:	0005061b          	sext.w	a2,a0
   1214c:	479d                	li	a5,7
   1214e:	e432                	sd	a2,8(sp)
   12150:	02f60263          	beq	a2,a5,12174 <fscanf_main+0x60a>
   12154:	4008                	lw	a0,0(s0)
   12156:	1c5140ef          	jal	ra,26b1a <strerror>
   1215a:	6622                	ld	a2,8(sp)
   1215c:	872a                	mv	a4,a0
   1215e:	000465b7          	lui	a1,0x46
   12162:	00046537          	lui	a0,0x46
   12166:	469d                	li	a3,7
   12168:	b0058593          	addi	a1,a1,-1280 # 45b00 <CSWTCH.18+0x3678>
   1216c:	22850513          	addi	a0,a0,552 # 46228 <CSWTCH.18+0x3da0>
   12170:	496110ef          	jal	ra,23606 <t_printf>
		TEST(i, !!feof(f), 1, "%d != %d");
   12174:	00042023          	sw	zero,0(s0)
   12178:	8526                	mv	a0,s1
   1217a:	6451c0ef          	jal	ra,2efbe <feof>
   1217e:	e10d                	bnez	a0,121a0 <fscanf_main+0x636>
   12180:	4008                	lw	a0,0(s0)
   12182:	199140ef          	jal	ra,26b1a <strerror>
   12186:	872a                	mv	a4,a0
   12188:	000465b7          	lui	a1,0x46
   1218c:	00046537          	lui	a0,0x46
   12190:	4685                	li	a3,1
   12192:	4601                	li	a2,0
   12194:	b4858593          	addi	a1,a1,-1208 # 45b48 <CSWTCH.18+0x36c0>
   12198:	26050513          	addi	a0,a0,608 # 46260 <CSWTCH.18+0x3dd8>
   1219c:	46a110ef          	jal	ra,23606 <t_printf>
		fclose(f);
   121a0:	8526                	mv	a0,s1
   121a2:	59d1c0ef          	jal	ra,2ef3e <fclose>
   121a6:	ab2d                	j	126e0 <fscanf_main+0xb76>
		x=y=-1;
   121a8:	57fd                	li	a5,-1
		TEST(i, fscanf(f, "%10[^]]%n%10[].]%n", a, &x, b, &y), 2, "%d != %d");
   121aa:	000465b7          	lui	a1,0x46
		x=y=-1;
   121ae:	ce3e                	sw	a5,28(sp)
   121b0:	cc3e                	sw	a5,24(sp)
		TEST(i, fscanf(f, "%10[^]]%n%10[].]%n", a, &x, b, &y), 2, "%d != %d");
   121b2:	1810                	addi	a2,sp,48
   121b4:	087c                	addi	a5,sp,28
   121b6:	00042023          	sw	zero,0(s0)
   121ba:	0938                	addi	a4,sp,152
   121bc:	0834                	addi	a3,sp,24
   121be:	65858593          	addi	a1,a1,1624 # 46658 <CSWTCH.18+0x41d0>
   121c2:	79e1d0ef          	jal	ra,2f960 <fscanf>
   121c6:	4789                	li	a5,2
   121c8:	862a                	mv	a2,a0
   121ca:	02f50363          	beq	a0,a5,121f0 <fscanf_main+0x686>
   121ce:	4008                	lw	a0,0(s0)
   121d0:	e432                	sd	a2,8(sp)
   121d2:	149140ef          	jal	ra,26b1a <strerror>
   121d6:	6622                	ld	a2,8(sp)
   121d8:	872a                	mv	a4,a0
   121da:	000465b7          	lui	a1,0x46
   121de:	00046537          	lui	a0,0x46
   121e2:	4689                	li	a3,2
   121e4:	c1058593          	addi	a1,a1,-1008 # 45c10 <CSWTCH.18+0x3788>
   121e8:	c4050513          	addi	a0,a0,-960 # 45c40 <CSWTCH.18+0x37b8>
   121ec:	41a110ef          	jal	ra,23606 <t_printf>
		TEST_S(a, "[abc123", "wrong result for %[^]]");
   121f0:	00046937          	lui	s2,0x46
   121f4:	c7890593          	addi	a1,s2,-904 # 45c78 <CSWTCH.18+0x37f0>
   121f8:	1808                	addi	a0,sp,48
   121fa:	6f4210ef          	jal	ra,338ee <strcmp>
   121fe:	cd11                	beqz	a0,1221a <fscanf_main+0x6b0>
   12200:	000466b7          	lui	a3,0x46
   12204:	00046537          	lui	a0,0x46
   12208:	c8068693          	addi	a3,a3,-896 # 45c80 <CSWTCH.18+0x37f8>
   1220c:	c7890613          	addi	a2,s2,-904
   12210:	180c                	addi	a1,sp,48
   12212:	c9850513          	addi	a0,a0,-872 # 45c98 <CSWTCH.18+0x3810>
   12216:	3f0110ef          	jal	ra,23606 <t_printf>
		TEST_S(b, "]....", "wrong result for %[].]");
   1221a:	00046937          	lui	s2,0x46
   1221e:	cc890593          	addi	a1,s2,-824 # 45cc8 <CSWTCH.18+0x3840>
   12222:	0928                	addi	a0,sp,152
   12224:	6ca210ef          	jal	ra,338ee <strcmp>
   12228:	cd11                	beqz	a0,12244 <fscanf_main+0x6da>
   1222a:	000466b7          	lui	a3,0x46
   1222e:	00046537          	lui	a0,0x46
   12232:	cd068693          	addi	a3,a3,-816 # 45cd0 <CSWTCH.18+0x3848>
   12236:	cc890613          	addi	a2,s2,-824
   1223a:	092c                	addi	a1,sp,152
   1223c:	ce850513          	addi	a0,a0,-792 # 45ce8 <CSWTCH.18+0x3860>
   12240:	3c6110ef          	jal	ra,23606 <t_printf>
		TEST(i, x, 7, "%d != %d");
   12244:	4662                	lw	a2,24(sp)
   12246:	00042023          	sw	zero,0(s0)
   1224a:	479d                	li	a5,7
   1224c:	e432                	sd	a2,8(sp)
   1224e:	02f60263          	beq	a2,a5,12272 <fscanf_main+0x708>
   12252:	4501                	li	a0,0
   12254:	0c7140ef          	jal	ra,26b1a <strerror>
   12258:	6622                	ld	a2,8(sp)
   1225a:	872a                	mv	a4,a0
   1225c:	000905b7          	lui	a1,0x90
   12260:	00046537          	lui	a0,0x46
   12264:	469d                	li	a3,7
   12266:	56858593          	addi	a1,a1,1384 # 90568 <messages+0x1d0>
   1226a:	d1850513          	addi	a0,a0,-744 # 45d18 <CSWTCH.18+0x3890>
   1226e:	398110ef          	jal	ra,23606 <t_printf>
		TEST(i, y, 12, "%d != %d");
   12272:	4672                	lw	a2,28(sp)
   12274:	00042023          	sw	zero,0(s0)
   12278:	47b1                	li	a5,12
   1227a:	e432                	sd	a2,8(sp)
   1227c:	02f60263          	beq	a2,a5,122a0 <fscanf_main+0x736>
   12280:	4501                	li	a0,0
   12282:	099140ef          	jal	ra,26b1a <strerror>
   12286:	6622                	ld	a2,8(sp)
   12288:	872a                	mv	a4,a0
   1228a:	000465b7          	lui	a1,0x46
   1228e:	00046537          	lui	a0,0x46
   12292:	46b1                	li	a3,12
   12294:	ac058593          	addi	a1,a1,-1344 # 45ac0 <CSWTCH.18+0x3638>
   12298:	d5050513          	addi	a0,a0,-688 # 45d50 <CSWTCH.18+0x38c8>
   1229c:	36a110ef          	jal	ra,23606 <t_printf>
		TEST(i, ftell(f), 12, "%d != %d");
   122a0:	00042023          	sw	zero,0(s0)
   122a4:	8526                	mv	a0,s1
   122a6:	0251d0ef          	jal	ra,2faca <ftell>
   122aa:	0005061b          	sext.w	a2,a0
   122ae:	47b1                	li	a5,12
   122b0:	e432                	sd	a2,8(sp)
   122b2:	02f60263          	beq	a2,a5,122d6 <fscanf_main+0x76c>
   122b6:	4008                	lw	a0,0(s0)
   122b8:	063140ef          	jal	ra,26b1a <strerror>
   122bc:	6622                	ld	a2,8(sp)
   122be:	872a                	mv	a4,a0
   122c0:	000465b7          	lui	a1,0x46
   122c4:	00046537          	lui	a0,0x46
   122c8:	46b1                	li	a3,12
   122ca:	b0058593          	addi	a1,a1,-1280 # 45b00 <CSWTCH.18+0x3678>
   122ce:	d8850513          	addi	a0,a0,-632 # 45d88 <CSWTCH.18+0x3900>
   122d2:	334110ef          	jal	ra,23606 <t_printf>
		TEST(i, feof(f), 0, "%d != %d");
   122d6:	00042023          	sw	zero,0(s0)
   122da:	8526                	mv	a0,s1
   122dc:	4e31c0ef          	jal	ra,2efbe <feof>
   122e0:	c115                	beqz	a0,12304 <fscanf_main+0x79a>
   122e2:	e42a                	sd	a0,8(sp)
   122e4:	4008                	lw	a0,0(s0)
   122e6:	035140ef          	jal	ra,26b1a <strerror>
   122ea:	6622                	ld	a2,8(sp)
   122ec:	872a                	mv	a4,a0
   122ee:	000465b7          	lui	a1,0x46
   122f2:	00046537          	lui	a0,0x46
   122f6:	4681                	li	a3,0
   122f8:	dc058593          	addi	a1,a1,-576 # 45dc0 <CSWTCH.18+0x3938>
   122fc:	dc850513          	addi	a0,a0,-568 # 45dc8 <CSWTCH.18+0x3940>
   12300:	306110ef          	jal	ra,23606 <t_printf>
		TEST(i, fgetc(f), 'x', "%d != %d");
   12304:	00042023          	sw	zero,0(s0)
   12308:	8526                	mv	a0,s1
   1230a:	6b11c0ef          	jal	ra,2f1ba <fgetc>
   1230e:	07800793          	li	a5,120
   12312:	e42a                	sd	a0,8(sp)
   12314:	02f50363          	beq	a0,a5,1233a <fscanf_main+0x7d0>
   12318:	4008                	lw	a0,0(s0)
   1231a:	001140ef          	jal	ra,26b1a <strerror>
   1231e:	6622                	ld	a2,8(sp)
   12320:	872a                	mv	a4,a0
   12322:	000465b7          	lui	a1,0x46
   12326:	00046537          	lui	a0,0x46
   1232a:	07800693          	li	a3,120
   1232e:	80858593          	addi	a1,a1,-2040 # 45808 <CSWTCH.18+0x3380>
   12332:	e0050513          	addi	a0,a0,-512 # 45e00 <CSWTCH.18+0x3978>
   12336:	2d0110ef          	jal	ra,23606 <t_printf>
		fclose(f);
   1233a:	8526                	mv	a0,s1
   1233c:	4031c0ef          	jal	ra,2ef3e <fclose>
   12340:	a6ad                	j	126aa <fscanf_main+0xb40>
		TEST(i, fscanf(f, " %n%*d%n", &x, &y), 0, "%d != %d");
   12342:	000465b7          	lui	a1,0x46
		x=y=-1;
   12346:	57fd                	li	a5,-1
		TEST(i, fscanf(f, " %n%*d%n", &x, &y), 0, "%d != %d");
   12348:	0830                	addi	a2,sp,24
   1234a:	00042023          	sw	zero,0(s0)
   1234e:	0874                	addi	a3,sp,28
   12350:	67058593          	addi	a1,a1,1648 # 46670 <CSWTCH.18+0x41e8>
		x=y=-1;
   12354:	ce3e                	sw	a5,28(sp)
   12356:	cc3e                	sw	a5,24(sp)
		TEST(i, fscanf(f, " %n%*d%n", &x, &y), 0, "%d != %d");
   12358:	6081d0ef          	jal	ra,2f960 <fscanf>
   1235c:	862a                	mv	a2,a0
   1235e:	c115                	beqz	a0,12382 <fscanf_main+0x818>
   12360:	4008                	lw	a0,0(s0)
   12362:	e432                	sd	a2,8(sp)
   12364:	7b6140ef          	jal	ra,26b1a <strerror>
   12368:	6622                	ld	a2,8(sp)
   1236a:	872a                	mv	a4,a0
   1236c:	000465b7          	lui	a1,0x46
   12370:	00046537          	lui	a0,0x46
   12374:	4681                	li	a3,0
   12376:	a3058593          	addi	a1,a1,-1488 # 45a30 <CSWTCH.18+0x35a8>
   1237a:	a5050513          	addi	a0,a0,-1456 # 45a50 <CSWTCH.18+0x35c8>
   1237e:	288110ef          	jal	ra,23606 <t_printf>
		TEST(i, x, 6, "%d != %d");
   12382:	4662                	lw	a2,24(sp)
   12384:	00042023          	sw	zero,0(s0)
   12388:	4799                	li	a5,6
   1238a:	e432                	sd	a2,8(sp)
   1238c:	02f60263          	beq	a2,a5,123b0 <fscanf_main+0x846>
   12390:	4501                	li	a0,0
   12392:	788140ef          	jal	ra,26b1a <strerror>
   12396:	6622                	ld	a2,8(sp)
   12398:	872a                	mv	a4,a0
   1239a:	000905b7          	lui	a1,0x90
   1239e:	00046537          	lui	a0,0x46
   123a2:	4699                	li	a3,6
   123a4:	56858593          	addi	a1,a1,1384 # 90568 <messages+0x1d0>
   123a8:	a8850513          	addi	a0,a0,-1400 # 45a88 <CSWTCH.18+0x3600>
   123ac:	25a110ef          	jal	ra,23606 <t_printf>
		TEST(i, y, 8, "%d != %d");
   123b0:	4672                	lw	a2,28(sp)
   123b2:	00042023          	sw	zero,0(s0)
   123b6:	47a1                	li	a5,8
   123b8:	e432                	sd	a2,8(sp)
   123ba:	02f60263          	beq	a2,a5,123de <fscanf_main+0x874>
   123be:	4501                	li	a0,0
   123c0:	75a140ef          	jal	ra,26b1a <strerror>
   123c4:	6622                	ld	a2,8(sp)
   123c6:	872a                	mv	a4,a0
   123c8:	000465b7          	lui	a1,0x46
   123cc:	00046537          	lui	a0,0x46
   123d0:	46a1                	li	a3,8
   123d2:	ac058593          	addi	a1,a1,-1344 # 45ac0 <CSWTCH.18+0x3638>
   123d6:	ac850513          	addi	a0,a0,-1336 # 45ac8 <CSWTCH.18+0x3640>
   123da:	22c110ef          	jal	ra,23606 <t_printf>
		TEST(i, ftell(f), 8, "%d != %d");
   123de:	00042023          	sw	zero,0(s0)
   123e2:	8526                	mv	a0,s1
   123e4:	6e61d0ef          	jal	ra,2faca <ftell>
   123e8:	0005061b          	sext.w	a2,a0
   123ec:	47a1                	li	a5,8
   123ee:	e432                	sd	a2,8(sp)
   123f0:	02f60263          	beq	a2,a5,12414 <fscanf_main+0x8aa>
   123f4:	4008                	lw	a0,0(s0)
   123f6:	724140ef          	jal	ra,26b1a <strerror>
   123fa:	6622                	ld	a2,8(sp)
   123fc:	872a                	mv	a4,a0
   123fe:	000465b7          	lui	a1,0x46
   12402:	00046537          	lui	a0,0x46
   12406:	46a1                	li	a3,8
   12408:	b0058593          	addi	a1,a1,-1280 # 45b00 <CSWTCH.18+0x3678>
   1240c:	b1050513          	addi	a0,a0,-1264 # 45b10 <CSWTCH.18+0x3688>
   12410:	1f6110ef          	jal	ra,23606 <t_printf>
		TEST(i, !!feof(f), 1, "%d != %d");
   12414:	00042023          	sw	zero,0(s0)
   12418:	8526                	mv	a0,s1
   1241a:	3a51c0ef          	jal	ra,2efbe <feof>
   1241e:	e10d                	bnez	a0,12440 <fscanf_main+0x8d6>
   12420:	4008                	lw	a0,0(s0)
   12422:	6f8140ef          	jal	ra,26b1a <strerror>
   12426:	872a                	mv	a4,a0
   12428:	000465b7          	lui	a1,0x46
   1242c:	00046537          	lui	a0,0x46
   12430:	4685                	li	a3,1
   12432:	4601                	li	a2,0
   12434:	b4858593          	addi	a1,a1,-1208 # 45b48 <CSWTCH.18+0x36c0>
   12438:	b5850513          	addi	a0,a0,-1192 # 45b58 <CSWTCH.18+0x36d0>
   1243c:	1ca110ef          	jal	ra,23606 <t_printf>
		fclose(f);
   12440:	8526                	mv	a0,s1
   12442:	2fd1c0ef          	jal	ra,2ef3e <fclose>
   12446:	a43d                	j	12674 <fscanf_main+0xb0a>
	TEST(i, write(p[1], "hello, world\n", 13), 13, "write error %d!=%d (%s)");
   12448:	5532                	lw	a0,44(sp)
   1244a:	000465b7          	lui	a1,0x46
   1244e:	4635                	li	a2,13
   12450:	00042023          	sw	zero,0(s0)
   12454:	68058593          	addi	a1,a1,1664 # 46680 <CSWTCH.18+0x41f8>
   12458:	0cc260ef          	jal	ra,38524 <write>
   1245c:	0005061b          	sext.w	a2,a0
   12460:	47b5                	li	a5,13
   12462:	02f60363          	beq	a2,a5,12488 <fscanf_main+0x91e>
   12466:	4008                	lw	a0,0(s0)
   12468:	e432                	sd	a2,8(sp)
   1246a:	6b0140ef          	jal	ra,26b1a <strerror>
   1246e:	6622                	ld	a2,8(sp)
   12470:	872a                	mv	a4,a0
   12472:	000455b7          	lui	a1,0x45
   12476:	00045537          	lui	a0,0x45
   1247a:	46b5                	li	a3,13
   1247c:	68058593          	addi	a1,a1,1664 # 45680 <CSWTCH.18+0x31f8>
   12480:	6a850513          	addi	a0,a0,1704 # 456a8 <CSWTCH.18+0x3220>
   12484:	182110ef          	jal	ra,23606 <t_printf>
	TEST(i, fscanf(f, "%s %[own]", a, b), 2, "got %d fields, expected %d");
   12488:	000455b7          	lui	a1,0x45
   1248c:	00042023          	sw	zero,0(s0)
   12490:	0934                	addi	a3,sp,152
   12492:	1810                	addi	a2,sp,48
   12494:	6f058593          	addi	a1,a1,1776 # 456f0 <CSWTCH.18+0x3268>
   12498:	8526                	mv	a0,s1
   1249a:	4c61d0ef          	jal	ra,2f960 <fscanf>
   1249e:	4789                	li	a5,2
   124a0:	e42a                	sd	a0,8(sp)
   124a2:	02f50263          	beq	a0,a5,124c6 <fscanf_main+0x95c>
   124a6:	4008                	lw	a0,0(s0)
   124a8:	672140ef          	jal	ra,26b1a <strerror>
   124ac:	6622                	ld	a2,8(sp)
   124ae:	872a                	mv	a4,a0
   124b0:	000455b7          	lui	a1,0x45
   124b4:	00045537          	lui	a0,0x45
   124b8:	4689                	li	a3,2
   124ba:	70058593          	addi	a1,a1,1792 # 45700 <CSWTCH.18+0x3278>
   124be:	72050513          	addi	a0,a0,1824 # 45720 <CSWTCH.18+0x3298>
   124c2:	144110ef          	jal	ra,23606 <t_printf>
	TEST_S(a, "hello,", "wrong result for %s");
   124c6:	00045937          	lui	s2,0x45
   124ca:	76890593          	addi	a1,s2,1896 # 45768 <CSWTCH.18+0x32e0>
   124ce:	1808                	addi	a0,sp,48
   124d0:	41e210ef          	jal	ra,338ee <strcmp>
   124d4:	cd11                	beqz	a0,124f0 <fscanf_main+0x986>
   124d6:	000456b7          	lui	a3,0x45
   124da:	00045537          	lui	a0,0x45
   124de:	77068693          	addi	a3,a3,1904 # 45770 <CSWTCH.18+0x32e8>
   124e2:	76890613          	addi	a2,s2,1896
   124e6:	180c                	addi	a1,sp,48
   124e8:	78850513          	addi	a0,a0,1928 # 45788 <CSWTCH.18+0x3300>
   124ec:	11a110ef          	jal	ra,23606 <t_printf>
	TEST_S(b, "wo", "wrong result for %[own]");
   124f0:	00045937          	lui	s2,0x45
   124f4:	7b890593          	addi	a1,s2,1976 # 457b8 <CSWTCH.18+0x3330>
   124f8:	0928                	addi	a0,sp,152
   124fa:	3f4210ef          	jal	ra,338ee <strcmp>
   124fe:	cd11                	beqz	a0,1251a <fscanf_main+0x9b0>
   12500:	000456b7          	lui	a3,0x45
   12504:	00045537          	lui	a0,0x45
   12508:	7c068693          	addi	a3,a3,1984 # 457c0 <CSWTCH.18+0x3338>
   1250c:	7b890613          	addi	a2,s2,1976
   12510:	092c                	addi	a1,sp,152
   12512:	7d850513          	addi	a0,a0,2008 # 457d8 <CSWTCH.18+0x3350>
   12516:	0f0110ef          	jal	ra,23606 <t_printf>
	TEST(i, fgetc(f), 'r', "'%c' != '%c') (%s)");
   1251a:	00042023          	sw	zero,0(s0)
   1251e:	8526                	mv	a0,s1
   12520:	49b1c0ef          	jal	ra,2f1ba <fgetc>
   12524:	07200793          	li	a5,114
   12528:	e42a                	sd	a0,8(sp)
   1252a:	02f50363          	beq	a0,a5,12550 <fscanf_main+0x9e6>
   1252e:	4008                	lw	a0,0(s0)
   12530:	5ea140ef          	jal	ra,26b1a <strerror>
   12534:	6622                	ld	a2,8(sp)
   12536:	872a                	mv	a4,a0
   12538:	000465b7          	lui	a1,0x46
   1253c:	00046537          	lui	a0,0x46
   12540:	07200693          	li	a3,114
   12544:	80858593          	addi	a1,a1,-2040 # 45808 <CSWTCH.18+0x3380>
   12548:	81850513          	addi	a0,a0,-2024 # 45818 <CSWTCH.18+0x3390>
   1254c:	0ba110ef          	jal	ra,23606 <t_printf>
	TEST(i, write(p[1], " 0x12 0x34", 10), 10, "write error %d!=%d (%s)");
   12550:	5532                	lw	a0,44(sp)
   12552:	000465b7          	lui	a1,0x46
   12556:	4629                	li	a2,10
   12558:	00042023          	sw	zero,0(s0)
   1255c:	85858593          	addi	a1,a1,-1960 # 45858 <CSWTCH.18+0x33d0>
   12560:	7c5250ef          	jal	ra,38524 <write>
   12564:	0005061b          	sext.w	a2,a0
   12568:	47a9                	li	a5,10
   1256a:	e432                	sd	a2,8(sp)
   1256c:	02f60263          	beq	a2,a5,12590 <fscanf_main+0xa26>
   12570:	4008                	lw	a0,0(s0)
   12572:	5a8140ef          	jal	ra,26b1a <strerror>
   12576:	6622                	ld	a2,8(sp)
   12578:	872a                	mv	a4,a0
   1257a:	000465b7          	lui	a1,0x46
   1257e:	00046537          	lui	a0,0x46
   12582:	46a9                	li	a3,10
   12584:	86858593          	addi	a1,a1,-1944 # 45868 <CSWTCH.18+0x33e0>
   12588:	88850513          	addi	a0,a0,-1912 # 45888 <CSWTCH.18+0x3400>
   1258c:	07a110ef          	jal	ra,23606 <t_printf>
	TEST(i, fscanf(f, "ld %5i%2i", &x, &y), 1, "got %d fields, expected %d");
   12590:	000465b7          	lui	a1,0x46
   12594:	00042023          	sw	zero,0(s0)
   12598:	0874                	addi	a3,sp,28
   1259a:	0830                	addi	a2,sp,24
   1259c:	8d058593          	addi	a1,a1,-1840 # 458d0 <CSWTCH.18+0x3448>
   125a0:	8526                	mv	a0,s1
   125a2:	3be1d0ef          	jal	ra,2f960 <fscanf>
   125a6:	4785                	li	a5,1
   125a8:	e42a                	sd	a0,8(sp)
   125aa:	02f50263          	beq	a0,a5,125ce <fscanf_main+0xa64>
   125ae:	4008                	lw	a0,0(s0)
   125b0:	56a140ef          	jal	ra,26b1a <strerror>
   125b4:	6622                	ld	a2,8(sp)
   125b6:	872a                	mv	a4,a0
   125b8:	000465b7          	lui	a1,0x46
   125bc:	00046537          	lui	a0,0x46
   125c0:	4685                	li	a3,1
   125c2:	8e058593          	addi	a1,a1,-1824 # 458e0 <CSWTCH.18+0x3458>
   125c6:	90050513          	addi	a0,a0,-1792 # 45900 <CSWTCH.18+0x3478>
   125ca:	03c110ef          	jal	ra,23606 <t_printf>
	TEST(i, x, 0x12, "%d != %d");
   125ce:	4662                	lw	a2,24(sp)
   125d0:	00042023          	sw	zero,0(s0)
   125d4:	47c9                	li	a5,18
   125d6:	e432                	sd	a2,8(sp)
   125d8:	02f60263          	beq	a2,a5,125fc <fscanf_main+0xa92>
   125dc:	4501                	li	a0,0
   125de:	53c140ef          	jal	ra,26b1a <strerror>
   125e2:	6622                	ld	a2,8(sp)
   125e4:	872a                	mv	a4,a0
   125e6:	000905b7          	lui	a1,0x90
   125ea:	00046537          	lui	a0,0x46
   125ee:	46c9                	li	a3,18
   125f0:	56858593          	addi	a1,a1,1384 # 90568 <messages+0x1d0>
   125f4:	94850513          	addi	a0,a0,-1720 # 45948 <CSWTCH.18+0x34c0>
   125f8:	00e110ef          	jal	ra,23606 <t_printf>
	TEST(i, fgetc(f), '3', "'%c' != '%c'");
   125fc:	00042023          	sw	zero,0(s0)
   12600:	8526                	mv	a0,s1
   12602:	3b91c0ef          	jal	ra,2f1ba <fgetc>
   12606:	03300793          	li	a5,51
   1260a:	e42a                	sd	a0,8(sp)
   1260c:	02f50363          	beq	a0,a5,12632 <fscanf_main+0xac8>
   12610:	4008                	lw	a0,0(s0)
   12612:	508140ef          	jal	ra,26b1a <strerror>
   12616:	6622                	ld	a2,8(sp)
   12618:	872a                	mv	a4,a0
   1261a:	000465b7          	lui	a1,0x46
   1261e:	00046537          	lui	a0,0x46
   12622:	03300693          	li	a3,51
   12626:	80858593          	addi	a1,a1,-2040 # 45808 <CSWTCH.18+0x3380>
   1262a:	98050513          	addi	a0,a0,-1664 # 45980 <CSWTCH.18+0x34f8>
   1262e:	7d9100ef          	jal	ra,23606 <t_printf>
	fclose(f);
   12632:	8526                	mv	a0,s1
   12634:	10b1c0ef          	jal	ra,2ef3e <fclose>
	close(p[1]);
   12638:	5532                	lw	a0,44(sp)
   1263a:	56f250ef          	jal	ra,383a8 <close>
	TEST(i, !!(f=writetemp("      42")), 1, "failed to make temp file");
   1263e:	00046537          	lui	a0,0x46
   12642:	00042023          	sw	zero,0(s0)
   12646:	9b850513          	addi	a0,a0,-1608 # 459b8 <CSWTCH.18+0x3530>
   1264a:	46e110ef          	jal	ra,23ab8 <writetemp>
   1264e:	84aa                	mv	s1,a0
   12650:	ce0519e3          	bnez	a0,12342 <fscanf_main+0x7d8>
   12654:	4008                	lw	a0,0(s0)
   12656:	4c4140ef          	jal	ra,26b1a <strerror>
   1265a:	872a                	mv	a4,a0
   1265c:	000465b7          	lui	a1,0x46
   12660:	00046537          	lui	a0,0x46
   12664:	4685                	li	a3,1
   12666:	4601                	li	a2,0
   12668:	9c858593          	addi	a1,a1,-1592 # 459c8 <CSWTCH.18+0x3540>
   1266c:	9e850513          	addi	a0,a0,-1560 # 459e8 <CSWTCH.18+0x3560>
   12670:	797100ef          	jal	ra,23606 <t_printf>
	TEST(i, !!(f=writetemp("[abc123]....x")), 1, "failed to make temp file");
   12674:	00046537          	lui	a0,0x46
   12678:	00042023          	sw	zero,0(s0)
   1267c:	b9050513          	addi	a0,a0,-1136 # 45b90 <CSWTCH.18+0x3708>
   12680:	438110ef          	jal	ra,23ab8 <writetemp>
   12684:	84aa                	mv	s1,a0
   12686:	b20511e3          	bnez	a0,121a8 <fscanf_main+0x63e>
   1268a:	4008                	lw	a0,0(s0)
   1268c:	48e140ef          	jal	ra,26b1a <strerror>
   12690:	872a                	mv	a4,a0
   12692:	000465b7          	lui	a1,0x46
   12696:	00046537          	lui	a0,0x46
   1269a:	4685                	li	a3,1
   1269c:	4601                	li	a2,0
   1269e:	ba058593          	addi	a1,a1,-1120 # 45ba0 <CSWTCH.18+0x3718>
   126a2:	bc850513          	addi	a0,a0,-1080 # 45bc8 <CSWTCH.18+0x3740>
   126a6:	761100ef          	jal	ra,23606 <t_printf>
	TEST(i, !!(f=writetemp("0x1p 12")), 1, "failed to make temp file");
   126aa:	00046537          	lui	a0,0x46
   126ae:	00042023          	sw	zero,0(s0)
   126b2:	e3850513          	addi	a0,a0,-456 # 45e38 <CSWTCH.18+0x39b0>
   126b6:	402110ef          	jal	ra,23ab8 <writetemp>
   126ba:	84aa                	mv	s1,a0
   126bc:	f8051c63          	bnez	a0,11e54 <fscanf_main+0x2ea>
   126c0:	4008                	lw	a0,0(s0)
   126c2:	458140ef          	jal	ra,26b1a <strerror>
   126c6:	872a                	mv	a4,a0
   126c8:	000465b7          	lui	a1,0x46
   126cc:	00046537          	lui	a0,0x46
   126d0:	4685                	li	a3,1
   126d2:	4601                	li	a2,0
   126d4:	e4058593          	addi	a1,a1,-448 # 45e40 <CSWTCH.18+0x39b8>
   126d8:	e6050513          	addi	a0,a0,-416 # 45e60 <CSWTCH.18+0x39d8>
   126dc:	72b100ef          	jal	ra,23606 <t_printf>
	TEST(i, !!(f=writetemp("0x.1p4    012")), 1, "failed to make temp file");
   126e0:	00046537          	lui	a0,0x46
   126e4:	00042023          	sw	zero,0(s0)
   126e8:	29850513          	addi	a0,a0,664 # 46298 <CSWTCH.18+0x3e10>
   126ec:	3cc110ef          	jal	ra,23ab8 <writetemp>
   126f0:	84aa                	mv	s1,a0
   126f2:	e0051d63          	bnez	a0,11d0c <fscanf_main+0x1a2>
   126f6:	4008                	lw	a0,0(s0)
   126f8:	422140ef          	jal	ra,26b1a <strerror>
   126fc:	872a                	mv	a4,a0
   126fe:	000465b7          	lui	a1,0x46
   12702:	00046537          	lui	a0,0x46
   12706:	4685                	li	a3,1
   12708:	4601                	li	a2,0
   1270a:	2a858593          	addi	a1,a1,680 # 462a8 <CSWTCH.18+0x3e20>
   1270e:	2d050513          	addi	a0,a0,720 # 462d0 <CSWTCH.18+0x3e48>
   12712:	6f5100ef          	jal	ra,23606 <t_printf>
	TEST(i, !!(f=writetemp("0xx")), 1, "failed to make temp file");
   12716:	00046537          	lui	a0,0x46
   1271a:	00042023          	sw	zero,0(s0)
   1271e:	49050513          	addi	a0,a0,1168 # 46490 <CSWTCH.18+0x4008>
   12722:	396110ef          	jal	ra,23ab8 <writetemp>
   12726:	84aa                	mv	s1,a0
   12728:	cc051d63          	bnez	a0,11c02 <fscanf_main+0x98>
   1272c:	4008                	lw	a0,0(s0)
   1272e:	3ec140ef          	jal	ra,26b1a <strerror>
   12732:	872a                	mv	a4,a0
   12734:	000465b7          	lui	a1,0x46
   12738:	00046537          	lui	a0,0x46
   1273c:	4685                	li	a3,1
   1273e:	4601                	li	a2,0
   12740:	49858593          	addi	a1,a1,1176 # 46498 <CSWTCH.18+0x4010>
   12744:	4b050513          	addi	a0,a0,1200 # 464b0 <CSWTCH.18+0x4028>
   12748:	6bf100ef          	jal	ra,23606 <t_printf>
	return t_status;
   1274c:	b801a503          	lw	a0,-1152(gp) # 98a08 <_edata>
   12750:	2501                	sext.w	a0,a0
   12752:	ca0ff06f          	j	11bf2 <fscanf_main+0x88>

0000000000012756 <fwscanf_main>:
	}
	return f;
}

int main(void)
{
   12756:	712d                	addi	sp,sp,-288
   12758:	ea22                	sd	s0,272(sp)
   1275a:	ee06                	sd	ra,280(sp)
   1275c:	e626                	sd	s1,264(sp)
   1275e:	e24a                	sd	s2,256(sp)
   12760:	bda2                	fsd	fs0,248(sp)
   12762:	b9a6                	fsd	fs1,240(sp)
	int i, x, y;
	double u;
	char a[100], b[100];
	FILE *f;

	TEST(i, !!(f=writetemp("      42")), 1, "failed to make temp file");
   12764:	386140ef          	jal	ra,26aea <__errno_location>
   12768:	842a                	mv	s0,a0
   1276a:	00052023          	sw	zero,0(a0)
   1276e:	00046537          	lui	a0,0x46
   12772:	9b850513          	addi	a0,a0,-1608 # 459b8 <CSWTCH.18+0x3530>
   12776:	384110ef          	jal	ra,23afa <writetemp>
   1277a:	04051fe3          	bnez	a0,12fd8 <fwscanf_main+0x882>
   1277e:	4008                	lw	a0,0(s0)
   12780:	39a140ef          	jal	ra,26b1a <strerror>
   12784:	872a                	mv	a4,a0
   12786:	000465b7          	lui	a1,0x46
   1278a:	00046537          	lui	a0,0x46
   1278e:	4685                	li	a3,1
   12790:	4601                	li	a2,0
   12792:	9c858593          	addi	a1,a1,-1592 # 459c8 <CSWTCH.18+0x3540>
   12796:	6e050513          	addi	a0,a0,1760 # 466e0 <CSWTCH.18+0x4258>
   1279a:	66d100ef          	jal	ra,23606 <t_printf>
		TEST(i, ftell(f), 8, "%d != %d");
		TEST(i, !!feof(f), 1, "%d != %d");
		fclose(f);
	}

	TEST(i, !!(f=writetemp("[abc123]....x")), 1, "failed to make temp file");
   1279e:	00046537          	lui	a0,0x46
   127a2:	00042023          	sw	zero,0(s0)
   127a6:	b9050513          	addi	a0,a0,-1136 # 45b90 <CSWTCH.18+0x3708>
   127aa:	350110ef          	jal	ra,23afa <writetemp>
   127ae:	84aa                	mv	s1,a0
   127b0:	68051463          	bnez	a0,12e38 <fwscanf_main+0x6e2>
   127b4:	4008                	lw	a0,0(s0)
   127b6:	364140ef          	jal	ra,26b1a <strerror>
   127ba:	872a                	mv	a4,a0
   127bc:	000465b7          	lui	a1,0x46
   127c0:	00047537          	lui	a0,0x47
   127c4:	4685                	li	a3,1
   127c6:	4601                	li	a2,0
   127c8:	ba058593          	addi	a1,a1,-1120 # 45ba0 <CSWTCH.18+0x3718>
   127cc:	86050513          	addi	a0,a0,-1952 # 46860 <CSWTCH.18+0x43d8>
   127d0:	637100ef          	jal	ra,23606 <t_printf>
		TEST(i, feof(f), 0, "%d != %d");
		TEST(i, fgetwc(f), 'x', "%d != %d");
		fclose(f);
	}

	TEST(i, !!(f=writetemp("0x1p 12")), 1, "failed to make temp file");
   127d4:	00046537          	lui	a0,0x46
   127d8:	00042023          	sw	zero,0(s0)
   127dc:	e3850513          	addi	a0,a0,-456 # 45e38 <CSWTCH.18+0x39b0>
   127e0:	31a110ef          	jal	ra,23afa <writetemp>
   127e4:	84aa                	mv	s1,a0
   127e6:	2e051963          	bnez	a0,12ad8 <fwscanf_main+0x382>
   127ea:	4008                	lw	a0,0(s0)
   127ec:	32e140ef          	jal	ra,26b1a <strerror>
   127f0:	872a                	mv	a4,a0
   127f2:	000465b7          	lui	a1,0x46
   127f6:	00047537          	lui	a0,0x47
   127fa:	4685                	li	a3,1
   127fc:	4601                	li	a2,0
   127fe:	e4058593          	addi	a1,a1,-448 # 45e40 <CSWTCH.18+0x39b8>
   12802:	a9850513          	addi	a0,a0,-1384 # 46a98 <CSWTCH.18+0x4610>
   12806:	601100ef          	jal	ra,23606 <t_printf>
		TEST(i, ftell(f), 7, "%d != %d");
		TEST(i, !!feof(f), 1, "%d != %d");
		fclose(f);
	}

	TEST(i, !!(f=writetemp("0x.1p4    012")), 1, "failed to make temp file");
   1280a:	00046537          	lui	a0,0x46
   1280e:	00042023          	sw	zero,0(s0)
   12812:	29850513          	addi	a0,a0,664 # 46298 <CSWTCH.18+0x3e10>
   12816:	2e4110ef          	jal	ra,23afa <writetemp>
   1281a:	84aa                	mv	s1,a0
   1281c:	16051b63          	bnez	a0,12992 <fwscanf_main+0x23c>
   12820:	4008                	lw	a0,0(s0)
   12822:	2f8140ef          	jal	ra,26b1a <strerror>
   12826:	872a                	mv	a4,a0
   12828:	000465b7          	lui	a1,0x46
   1282c:	00047537          	lui	a0,0x47
   12830:	4685                	li	a3,1
   12832:	4601                	li	a2,0
   12834:	2a858593          	addi	a1,a1,680 # 462a8 <CSWTCH.18+0x3e20>
   12838:	eb850513          	addi	a0,a0,-328 # 46eb8 <CSWTCH.18+0x4a30>
   1283c:	5cb100ef          	jal	ra,23606 <t_printf>
		TEST(i, ftell(f), 13, "%d != %d");
		TEST(i, !!feof(f), 1, "%d != %d");
		fclose(f);
	}

	TEST(i, !!(f=writetemp("0xx")), 1, "failed to make temp file");
   12840:	00046537          	lui	a0,0x46
   12844:	00042023          	sw	zero,0(s0)
   12848:	49050513          	addi	a0,a0,1168 # 46490 <CSWTCH.18+0x4008>
   1284c:	2ae110ef          	jal	ra,23afa <writetemp>
   12850:	84aa                	mv	s1,a0
   12852:	ed05                	bnez	a0,1288a <fwscanf_main+0x134>
   12854:	4008                	lw	a0,0(s0)
   12856:	2c4140ef          	jal	ra,26b1a <strerror>
   1285a:	872a                	mv	a4,a0
   1285c:	000465b7          	lui	a1,0x46
   12860:	00047537          	lui	a0,0x47
   12864:	4685                	li	a3,1
   12866:	4601                	li	a2,0
   12868:	49858593          	addi	a1,a1,1176 # 46498 <CSWTCH.18+0x4010>
   1286c:	07850513          	addi	a0,a0,120 # 47078 <CSWTCH.18+0x4bf0>
   12870:	597100ef          	jal	ra,23606 <t_printf>
		TEST(i, ftell(f), 2, "%d != %d");
		TEST(i, feof(f), 0, "%d != %d");
		fclose(f);
	}

	return t_status;
   12874:	b801a503          	lw	a0,-1152(gp) # 98a08 <_edata>
}
   12878:	60f2                	ld	ra,280(sp)
   1287a:	6452                	ld	s0,272(sp)
   1287c:	64b2                	ld	s1,264(sp)
   1287e:	6912                	ld	s2,256(sp)
   12880:	346e                	fld	fs0,248(sp)
   12882:	34ce                	fld	fs1,240(sp)
	return t_status;
   12884:	2501                	sext.w	a0,a0
}
   12886:	6115                	addi	sp,sp,288
   12888:	8082                	ret
		TEST(i, fwscanf(f, L"%x%n", &x, &y), 0, "%d != %d");
   1288a:	000475b7          	lui	a1,0x47
		x=y=-1;
   1288e:	57fd                	li	a5,-1
		TEST(i, fwscanf(f, L"%x%n", &x, &y), 0, "%d != %d");
   12890:	0810                	addi	a2,sp,16
   12892:	00042023          	sw	zero,0(s0)
   12896:	0854                	addi	a3,sp,20
   12898:	22858593          	addi	a1,a1,552 # 47228 <CSWTCH.18+0x4da0>
		x=y=-1;
   1289c:	ca3e                	sw	a5,20(sp)
   1289e:	c83e                	sw	a5,16(sp)
		TEST(i, fwscanf(f, L"%x%n", &x, &y), 0, "%d != %d");
   128a0:	48a1d0ef          	jal	ra,2fd2a <fwscanf>
   128a4:	862a                	mv	a2,a0
   128a6:	c115                	beqz	a0,128ca <fwscanf_main+0x174>
   128a8:	4008                	lw	a0,0(s0)
   128aa:	e432                	sd	a2,8(sp)
   128ac:	26e140ef          	jal	ra,26b1a <strerror>
   128b0:	6622                	ld	a2,8(sp)
   128b2:	872a                	mv	a4,a0
   128b4:	000475b7          	lui	a1,0x47
   128b8:	00047537          	lui	a0,0x47
   128bc:	4681                	li	a3,0
   128be:	0c058593          	addi	a1,a1,192 # 470c0 <CSWTCH.18+0x4c38>
   128c2:	0e050513          	addi	a0,a0,224 # 470e0 <CSWTCH.18+0x4c58>
   128c6:	541100ef          	jal	ra,23606 <t_printf>
		TEST(i, x, -1, "%d != %d");
   128ca:	4642                	lw	a2,16(sp)
   128cc:	00042023          	sw	zero,0(s0)
   128d0:	57fd                	li	a5,-1
   128d2:	e432                	sd	a2,8(sp)
   128d4:	02f60263          	beq	a2,a5,128f8 <fwscanf_main+0x1a2>
   128d8:	4501                	li	a0,0
   128da:	240140ef          	jal	ra,26b1a <strerror>
   128de:	6622                	ld	a2,8(sp)
   128e0:	872a                	mv	a4,a0
   128e2:	000905b7          	lui	a1,0x90
   128e6:	00047537          	lui	a0,0x47
   128ea:	56fd                	li	a3,-1
   128ec:	56858593          	addi	a1,a1,1384 # 90568 <messages+0x1d0>
   128f0:	11850513          	addi	a0,a0,280 # 47118 <CSWTCH.18+0x4c90>
   128f4:	513100ef          	jal	ra,23606 <t_printf>
		TEST(i, y, -1, "%d != %d");
   128f8:	4652                	lw	a2,20(sp)
   128fa:	00042023          	sw	zero,0(s0)
   128fe:	57fd                	li	a5,-1
   12900:	e432                	sd	a2,8(sp)
   12902:	02f60263          	beq	a2,a5,12926 <fwscanf_main+0x1d0>
   12906:	4501                	li	a0,0
   12908:	212140ef          	jal	ra,26b1a <strerror>
   1290c:	6622                	ld	a2,8(sp)
   1290e:	872a                	mv	a4,a0
   12910:	000465b7          	lui	a1,0x46
   12914:	00047537          	lui	a0,0x47
   12918:	56fd                	li	a3,-1
   1291a:	ac058593          	addi	a1,a1,-1344 # 45ac0 <CSWTCH.18+0x3638>
   1291e:	15050513          	addi	a0,a0,336 # 47150 <CSWTCH.18+0x4cc8>
   12922:	4e5100ef          	jal	ra,23606 <t_printf>
		TEST(i, ftell(f), 2, "%d != %d");
   12926:	00042023          	sw	zero,0(s0)
   1292a:	8526                	mv	a0,s1
   1292c:	19e1d0ef          	jal	ra,2faca <ftell>
   12930:	0005061b          	sext.w	a2,a0
   12934:	4789                	li	a5,2
   12936:	e432                	sd	a2,8(sp)
   12938:	02f60263          	beq	a2,a5,1295c <fwscanf_main+0x206>
   1293c:	4008                	lw	a0,0(s0)
   1293e:	1dc140ef          	jal	ra,26b1a <strerror>
   12942:	6622                	ld	a2,8(sp)
   12944:	872a                	mv	a4,a0
   12946:	000465b7          	lui	a1,0x46
   1294a:	00047537          	lui	a0,0x47
   1294e:	4689                	li	a3,2
   12950:	b0058593          	addi	a1,a1,-1280 # 45b00 <CSWTCH.18+0x3678>
   12954:	18850513          	addi	a0,a0,392 # 47188 <CSWTCH.18+0x4d00>
   12958:	4af100ef          	jal	ra,23606 <t_printf>
		TEST(i, feof(f), 0, "%d != %d");
   1295c:	00042023          	sw	zero,0(s0)
   12960:	8526                	mv	a0,s1
   12962:	65c1c0ef          	jal	ra,2efbe <feof>
   12966:	c115                	beqz	a0,1298a <fwscanf_main+0x234>
   12968:	e42a                	sd	a0,8(sp)
   1296a:	4008                	lw	a0,0(s0)
   1296c:	1ae140ef          	jal	ra,26b1a <strerror>
   12970:	6622                	ld	a2,8(sp)
   12972:	872a                	mv	a4,a0
   12974:	000465b7          	lui	a1,0x46
   12978:	00047537          	lui	a0,0x47
   1297c:	4681                	li	a3,0
   1297e:	dc058593          	addi	a1,a1,-576 # 45dc0 <CSWTCH.18+0x3938>
   12982:	1c050513          	addi	a0,a0,448 # 471c0 <CSWTCH.18+0x4d38>
   12986:	481100ef          	jal	ra,23606 <t_printf>
		fclose(f);
   1298a:	8526                	mv	a0,s1
   1298c:	5b21c0ef          	jal	ra,2ef3e <fclose>
   12990:	b5d5                	j	12874 <fwscanf_main+0x11e>
		x=y=-1;
   12992:	57fd                	li	a5,-1
   12994:	ca3e                	sw	a5,20(sp)
   12996:	c83e                	sw	a5,16(sp)
		u=-1;
   12998:	8181b787          	fld	fa5,-2024(gp) # 986a0 <__SDATA_BEGIN__+0x18>
		TEST(i, fwscanf(f, L"%lf%n %i", &u, &x, &y), 2, "%d != %d");
   1299c:	000475b7          	lui	a1,0x47
   129a0:	0830                	addi	a2,sp,24
   129a2:	00042023          	sw	zero,0(s0)
   129a6:	0858                	addi	a4,sp,20
   129a8:	0814                	addi	a3,sp,16
   129aa:	24058593          	addi	a1,a1,576 # 47240 <CSWTCH.18+0x4db8>
		u=-1;
   129ae:	ac3e                	fsd	fa5,24(sp)
		TEST(i, fwscanf(f, L"%lf%n %i", &u, &x, &y), 2, "%d != %d");
   129b0:	37a1d0ef          	jal	ra,2fd2a <fwscanf>
   129b4:	4789                	li	a5,2
   129b6:	862a                	mv	a2,a0
   129b8:	02f50363          	beq	a0,a5,129de <fwscanf_main+0x288>
   129bc:	4008                	lw	a0,0(s0)
   129be:	e432                	sd	a2,8(sp)
   129c0:	15a140ef          	jal	ra,26b1a <strerror>
   129c4:	6622                	ld	a2,8(sp)
   129c6:	872a                	mv	a4,a0
   129c8:	000475b7          	lui	a1,0x47
   129cc:	00047537          	lui	a0,0x47
   129d0:	4689                	li	a3,2
   129d2:	f0058593          	addi	a1,a1,-256 # 46f00 <CSWTCH.18+0x4a78>
   129d6:	f2850513          	addi	a0,a0,-216 # 46f28 <CSWTCH.18+0x4aa0>
   129da:	42d100ef          	jal	ra,23606 <t_printf>
		TEST(u, u, 1.0, "%g != %g");
   129de:	2462                	fld	fs0,24(sp)
   129e0:	8201b487          	fld	fs1,-2016(gp) # 986a8 <__SDATA_BEGIN__+0x20>
   129e4:	00042023          	sw	zero,0(s0)
   129e8:	a29427d3          	feq.d	a5,fs0,fs1
   129ec:	e39d                	bnez	a5,12a12 <fwscanf_main+0x2bc>
   129ee:	4501                	li	a0,0
   129f0:	12a140ef          	jal	ra,26b1a <strerror>
   129f4:	e20486d3          	fmv.x.d	a3,fs1
   129f8:	e2040653          	fmv.x.d	a2,fs0
   129fc:	872a                	mv	a4,a0
   129fe:	000465b7          	lui	a1,0x46
   12a02:	00047537          	lui	a0,0x47
   12a06:	f0858593          	addi	a1,a1,-248 # 45f08 <CSWTCH.18+0x3a80>
   12a0a:	f6050513          	addi	a0,a0,-160 # 46f60 <CSWTCH.18+0x4ad8>
   12a0e:	3f9100ef          	jal	ra,23606 <t_printf>
		TEST(i, x, 6, "%d != %d");
   12a12:	4642                	lw	a2,16(sp)
   12a14:	00042023          	sw	zero,0(s0)
   12a18:	4799                	li	a5,6
   12a1a:	e432                	sd	a2,8(sp)
   12a1c:	02f60263          	beq	a2,a5,12a40 <fwscanf_main+0x2ea>
   12a20:	4501                	li	a0,0
   12a22:	0f8140ef          	jal	ra,26b1a <strerror>
   12a26:	6622                	ld	a2,8(sp)
   12a28:	872a                	mv	a4,a0
   12a2a:	000905b7          	lui	a1,0x90
   12a2e:	00047537          	lui	a0,0x47
   12a32:	4699                	li	a3,6
   12a34:	56858593          	addi	a1,a1,1384 # 90568 <messages+0x1d0>
   12a38:	f9850513          	addi	a0,a0,-104 # 46f98 <CSWTCH.18+0x4b10>
   12a3c:	3cb100ef          	jal	ra,23606 <t_printf>
		TEST(i, y, 10, "%d != %d");
   12a40:	4652                	lw	a2,20(sp)
   12a42:	00042023          	sw	zero,0(s0)
   12a46:	47a9                	li	a5,10
   12a48:	e432                	sd	a2,8(sp)
   12a4a:	02f60263          	beq	a2,a5,12a6e <fwscanf_main+0x318>
   12a4e:	4501                	li	a0,0
   12a50:	0ca140ef          	jal	ra,26b1a <strerror>
   12a54:	6622                	ld	a2,8(sp)
   12a56:	872a                	mv	a4,a0
   12a58:	000465b7          	lui	a1,0x46
   12a5c:	00047537          	lui	a0,0x47
   12a60:	46a9                	li	a3,10
   12a62:	ac058593          	addi	a1,a1,-1344 # 45ac0 <CSWTCH.18+0x3638>
   12a66:	fd050513          	addi	a0,a0,-48 # 46fd0 <CSWTCH.18+0x4b48>
   12a6a:	39d100ef          	jal	ra,23606 <t_printf>
		TEST(i, ftell(f), 13, "%d != %d");
   12a6e:	00042023          	sw	zero,0(s0)
   12a72:	8526                	mv	a0,s1
   12a74:	0561d0ef          	jal	ra,2faca <ftell>
   12a78:	0005061b          	sext.w	a2,a0
   12a7c:	47b5                	li	a5,13
   12a7e:	e432                	sd	a2,8(sp)
   12a80:	02f60263          	beq	a2,a5,12aa4 <fwscanf_main+0x34e>
   12a84:	4008                	lw	a0,0(s0)
   12a86:	094140ef          	jal	ra,26b1a <strerror>
   12a8a:	6622                	ld	a2,8(sp)
   12a8c:	872a                	mv	a4,a0
   12a8e:	000465b7          	lui	a1,0x46
   12a92:	00047537          	lui	a0,0x47
   12a96:	46b5                	li	a3,13
   12a98:	b0058593          	addi	a1,a1,-1280 # 45b00 <CSWTCH.18+0x3678>
   12a9c:	00850513          	addi	a0,a0,8 # 47008 <CSWTCH.18+0x4b80>
   12aa0:	367100ef          	jal	ra,23606 <t_printf>
		TEST(i, !!feof(f), 1, "%d != %d");
   12aa4:	00042023          	sw	zero,0(s0)
   12aa8:	8526                	mv	a0,s1
   12aaa:	5141c0ef          	jal	ra,2efbe <feof>
   12aae:	e10d                	bnez	a0,12ad0 <fwscanf_main+0x37a>
   12ab0:	4008                	lw	a0,0(s0)
   12ab2:	068140ef          	jal	ra,26b1a <strerror>
   12ab6:	872a                	mv	a4,a0
   12ab8:	000465b7          	lui	a1,0x46
   12abc:	00047537          	lui	a0,0x47
   12ac0:	4685                	li	a3,1
   12ac2:	4601                	li	a2,0
   12ac4:	b4858593          	addi	a1,a1,-1208 # 45b48 <CSWTCH.18+0x36c0>
   12ac8:	04050513          	addi	a0,a0,64 # 47040 <CSWTCH.18+0x4bb8>
   12acc:	33b100ef          	jal	ra,23606 <t_printf>
		fclose(f);
   12ad0:	8526                	mv	a0,s1
   12ad2:	46c1c0ef          	jal	ra,2ef3e <fclose>
   12ad6:	b3ad                	j	12840 <fwscanf_main+0xea>
		u=-1;
   12ad8:	8181b787          	fld	fa5,-2024(gp) # 986a0 <__SDATA_BEGIN__+0x18>
		TEST(i, fwscanf(f, L"%lf%n %d", &u, &x, &y), 0, "%d != %d");
   12adc:	000475b7          	lui	a1,0x47
		x=y=-1;
   12ae0:	57fd                	li	a5,-1
		TEST(i, fwscanf(f, L"%lf%n %d", &u, &x, &y), 0, "%d != %d");
   12ae2:	0830                	addi	a2,sp,24
   12ae4:	00042023          	sw	zero,0(s0)
   12ae8:	0858                	addi	a4,sp,20
   12aea:	0814                	addi	a3,sp,16
   12aec:	26858593          	addi	a1,a1,616 # 47268 <CSWTCH.18+0x4de0>
		x=y=-1;
   12af0:	ca3e                	sw	a5,20(sp)
   12af2:	c83e                	sw	a5,16(sp)
		u=-1;
   12af4:	ac3e                	fsd	fa5,24(sp)
		TEST(i, fwscanf(f, L"%lf%n %d", &u, &x, &y), 0, "%d != %d");
   12af6:	2341d0ef          	jal	ra,2fd2a <fwscanf>
   12afa:	862a                	mv	a2,a0
   12afc:	c115                	beqz	a0,12b20 <fwscanf_main+0x3ca>
   12afe:	4008                	lw	a0,0(s0)
   12b00:	e432                	sd	a2,8(sp)
   12b02:	018140ef          	jal	ra,26b1a <strerror>
   12b06:	6622                	ld	a2,8(sp)
   12b08:	872a                	mv	a4,a0
   12b0a:	000475b7          	lui	a1,0x47
   12b0e:	00047537          	lui	a0,0x47
   12b12:	4681                	li	a3,0
   12b14:	ae058593          	addi	a1,a1,-1312 # 46ae0 <CSWTCH.18+0x4658>
   12b18:	b0850513          	addi	a0,a0,-1272 # 46b08 <CSWTCH.18+0x4680>
   12b1c:	2eb100ef          	jal	ra,23606 <t_printf>
		TEST(u, u, -1.0, "%g != %g");
   12b20:	2462                	fld	fs0,24(sp)
   12b22:	8181b487          	fld	fs1,-2024(gp) # 986a0 <__SDATA_BEGIN__+0x18>
   12b26:	00042023          	sw	zero,0(s0)
   12b2a:	a29427d3          	feq.d	a5,fs0,fs1
   12b2e:	e39d                	bnez	a5,12b54 <fwscanf_main+0x3fe>
   12b30:	4501                	li	a0,0
   12b32:	7e9130ef          	jal	ra,26b1a <strerror>
   12b36:	e20486d3          	fmv.x.d	a3,fs1
   12b3a:	e2040653          	fmv.x.d	a2,fs0
   12b3e:	872a                	mv	a4,a0
   12b40:	000465b7          	lui	a1,0x46
   12b44:	00047537          	lui	a0,0x47
   12b48:	f0858593          	addi	a1,a1,-248 # 45f08 <CSWTCH.18+0x3a80>
   12b4c:	b4050513          	addi	a0,a0,-1216 # 46b40 <CSWTCH.18+0x46b8>
   12b50:	2b7100ef          	jal	ra,23606 <t_printf>
		TEST(i, x, -1, "%d != %d");
   12b54:	4642                	lw	a2,16(sp)
   12b56:	00042023          	sw	zero,0(s0)
   12b5a:	57fd                	li	a5,-1
   12b5c:	e432                	sd	a2,8(sp)
   12b5e:	02f60263          	beq	a2,a5,12b82 <fwscanf_main+0x42c>
   12b62:	4501                	li	a0,0
   12b64:	7b7130ef          	jal	ra,26b1a <strerror>
   12b68:	6622                	ld	a2,8(sp)
   12b6a:	872a                	mv	a4,a0
   12b6c:	000905b7          	lui	a1,0x90
   12b70:	00047537          	lui	a0,0x47
   12b74:	56fd                	li	a3,-1
   12b76:	56858593          	addi	a1,a1,1384 # 90568 <messages+0x1d0>
   12b7a:	b7850513          	addi	a0,a0,-1160 # 46b78 <CSWTCH.18+0x46f0>
   12b7e:	289100ef          	jal	ra,23606 <t_printf>
		TEST(i, y, -1, "%d != %d");
   12b82:	4652                	lw	a2,20(sp)
   12b84:	00042023          	sw	zero,0(s0)
   12b88:	57fd                	li	a5,-1
   12b8a:	e432                	sd	a2,8(sp)
   12b8c:	02f60263          	beq	a2,a5,12bb0 <fwscanf_main+0x45a>
   12b90:	4501                	li	a0,0
   12b92:	789130ef          	jal	ra,26b1a <strerror>
   12b96:	6622                	ld	a2,8(sp)
   12b98:	872a                	mv	a4,a0
   12b9a:	000465b7          	lui	a1,0x46
   12b9e:	00047537          	lui	a0,0x47
   12ba2:	56fd                	li	a3,-1
   12ba4:	ac058593          	addi	a1,a1,-1344 # 45ac0 <CSWTCH.18+0x3638>
   12ba8:	bb050513          	addi	a0,a0,-1104 # 46bb0 <CSWTCH.18+0x4728>
   12bac:	25b100ef          	jal	ra,23606 <t_printf>
		TEST(i, ftell(f), 4, "%d != %d");
   12bb0:	00042023          	sw	zero,0(s0)
   12bb4:	8526                	mv	a0,s1
   12bb6:	7151c0ef          	jal	ra,2faca <ftell>
   12bba:	0005061b          	sext.w	a2,a0
   12bbe:	4791                	li	a5,4
   12bc0:	e432                	sd	a2,8(sp)
   12bc2:	02f60263          	beq	a2,a5,12be6 <fwscanf_main+0x490>
   12bc6:	4008                	lw	a0,0(s0)
   12bc8:	753130ef          	jal	ra,26b1a <strerror>
   12bcc:	6622                	ld	a2,8(sp)
   12bce:	872a                	mv	a4,a0
   12bd0:	000465b7          	lui	a1,0x46
   12bd4:	00047537          	lui	a0,0x47
   12bd8:	4691                	li	a3,4
   12bda:	b0058593          	addi	a1,a1,-1280 # 45b00 <CSWTCH.18+0x3678>
   12bde:	be850513          	addi	a0,a0,-1048 # 46be8 <CSWTCH.18+0x4760>
   12be2:	225100ef          	jal	ra,23606 <t_printf>
		TEST(i, feof(f), 0, "%d != %d");
   12be6:	00042023          	sw	zero,0(s0)
   12bea:	8526                	mv	a0,s1
   12bec:	3d21c0ef          	jal	ra,2efbe <feof>
   12bf0:	c115                	beqz	a0,12c14 <fwscanf_main+0x4be>
   12bf2:	e42a                	sd	a0,8(sp)
   12bf4:	4008                	lw	a0,0(s0)
   12bf6:	725130ef          	jal	ra,26b1a <strerror>
   12bfa:	6622                	ld	a2,8(sp)
   12bfc:	872a                	mv	a4,a0
   12bfe:	000465b7          	lui	a1,0x46
   12c02:	00047537          	lui	a0,0x47
   12c06:	4681                	li	a3,0
   12c08:	dc058593          	addi	a1,a1,-576 # 45dc0 <CSWTCH.18+0x3938>
   12c0c:	c2050513          	addi	a0,a0,-992 # 46c20 <CSWTCH.18+0x4798>
   12c10:	1f7100ef          	jal	ra,23606 <t_printf>
		TEST(i, fgetwc(f), ' ', "%d != %d");
   12c14:	00042023          	sw	zero,0(s0)
   12c18:	8526                	mv	a0,s1
   12c1a:	7d21c0ef          	jal	ra,2f3ec <fgetwc>
   12c1e:	0005061b          	sext.w	a2,a0
   12c22:	02000793          	li	a5,32
   12c26:	e432                	sd	a2,8(sp)
   12c28:	02f60363          	beq	a2,a5,12c4e <fwscanf_main+0x4f8>
   12c2c:	4008                	lw	a0,0(s0)
   12c2e:	6ed130ef          	jal	ra,26b1a <strerror>
   12c32:	6622                	ld	a2,8(sp)
   12c34:	872a                	mv	a4,a0
   12c36:	000475b7          	lui	a1,0x47
   12c3a:	00047537          	lui	a0,0x47
   12c3e:	02000693          	li	a3,32
   12c42:	a5058593          	addi	a1,a1,-1456 # 46a50 <CSWTCH.18+0x45c8>
   12c46:	c5850513          	addi	a0,a0,-936 # 46c58 <CSWTCH.18+0x47d0>
   12c4a:	1bd100ef          	jal	ra,23606 <t_printf>
		rewind(f);
   12c4e:	8526                	mv	a0,s1
   12c50:	4d81d0ef          	jal	ra,30128 <rewind>
		TEST(i, fgetwc(f), '0', "%d != %d");
   12c54:	8526                	mv	a0,s1
   12c56:	00042023          	sw	zero,0(s0)
   12c5a:	7921c0ef          	jal	ra,2f3ec <fgetwc>
   12c5e:	0005061b          	sext.w	a2,a0
   12c62:	03000793          	li	a5,48
   12c66:	e432                	sd	a2,8(sp)
   12c68:	02f60363          	beq	a2,a5,12c8e <fwscanf_main+0x538>
   12c6c:	4008                	lw	a0,0(s0)
   12c6e:	6ad130ef          	jal	ra,26b1a <strerror>
   12c72:	6622                	ld	a2,8(sp)
   12c74:	872a                	mv	a4,a0
   12c76:	000475b7          	lui	a1,0x47
   12c7a:	00047537          	lui	a0,0x47
   12c7e:	03000693          	li	a3,48
   12c82:	a5058593          	addi	a1,a1,-1456 # 46a50 <CSWTCH.18+0x45c8>
   12c86:	c9050513          	addi	a0,a0,-880 # 46c90 <CSWTCH.18+0x4808>
   12c8a:	17d100ef          	jal	ra,23606 <t_printf>
		TEST(i, fgetwc(f), 'x', "%d != %d");
   12c8e:	00042023          	sw	zero,0(s0)
   12c92:	8526                	mv	a0,s1
   12c94:	7581c0ef          	jal	ra,2f3ec <fgetwc>
   12c98:	0005061b          	sext.w	a2,a0
   12c9c:	07800793          	li	a5,120
   12ca0:	e432                	sd	a2,8(sp)
   12ca2:	02f60363          	beq	a2,a5,12cc8 <fwscanf_main+0x572>
   12ca6:	4008                	lw	a0,0(s0)
   12ca8:	673130ef          	jal	ra,26b1a <strerror>
   12cac:	6622                	ld	a2,8(sp)
   12cae:	872a                	mv	a4,a0
   12cb0:	000475b7          	lui	a1,0x47
   12cb4:	00047537          	lui	a0,0x47
   12cb8:	07800693          	li	a3,120
   12cbc:	a5058593          	addi	a1,a1,-1456 # 46a50 <CSWTCH.18+0x45c8>
   12cc0:	cc850513          	addi	a0,a0,-824 # 46cc8 <CSWTCH.18+0x4840>
   12cc4:	143100ef          	jal	ra,23606 <t_printf>
		TEST(i, fwscanf(f, L"%lf%n%c %d", &u, &x, a, &y), 3, "%d != %d");
   12cc8:	000475b7          	lui	a1,0x47
   12ccc:	085c                	addi	a5,sp,20
   12cce:	00042023          	sw	zero,0(s0)
   12cd2:	1018                	addi	a4,sp,32
   12cd4:	0814                	addi	a3,sp,16
   12cd6:	0830                	addi	a2,sp,24
   12cd8:	1f858593          	addi	a1,a1,504 # 471f8 <CSWTCH.18+0x4d70>
   12cdc:	8526                	mv	a0,s1
   12cde:	04c1d0ef          	jal	ra,2fd2a <fwscanf>
   12ce2:	478d                	li	a5,3
   12ce4:	e42a                	sd	a0,8(sp)
   12ce6:	02f50263          	beq	a0,a5,12d0a <fwscanf_main+0x5b4>
   12cea:	4008                	lw	a0,0(s0)
   12cec:	62f130ef          	jal	ra,26b1a <strerror>
   12cf0:	6622                	ld	a2,8(sp)
   12cf2:	872a                	mv	a4,a0
   12cf4:	000475b7          	lui	a1,0x47
   12cf8:	00047537          	lui	a0,0x47
   12cfc:	468d                	li	a3,3
   12cfe:	d0058593          	addi	a1,a1,-768 # 46d00 <CSWTCH.18+0x4878>
   12d02:	d3050513          	addi	a0,a0,-720 # 46d30 <CSWTCH.18+0x48a8>
   12d06:	101100ef          	jal	ra,23606 <t_printf>
		TEST(u, u, 1.0, "%g != %g");
   12d0a:	2462                	fld	fs0,24(sp)
   12d0c:	8201b487          	fld	fs1,-2016(gp) # 986a8 <__SDATA_BEGIN__+0x20>
   12d10:	00042023          	sw	zero,0(s0)
   12d14:	a29427d3          	feq.d	a5,fs0,fs1
   12d18:	e39d                	bnez	a5,12d3e <fwscanf_main+0x5e8>
   12d1a:	4501                	li	a0,0
   12d1c:	5ff130ef          	jal	ra,26b1a <strerror>
   12d20:	e20486d3          	fmv.x.d	a3,fs1
   12d24:	e2040653          	fmv.x.d	a2,fs0
   12d28:	872a                	mv	a4,a0
   12d2a:	000465b7          	lui	a1,0x46
   12d2e:	00047537          	lui	a0,0x47
   12d32:	f0858593          	addi	a1,a1,-248 # 45f08 <CSWTCH.18+0x3a80>
   12d36:	d6850513          	addi	a0,a0,-664 # 46d68 <CSWTCH.18+0x48e0>
   12d3a:	0cd100ef          	jal	ra,23606 <t_printf>
		TEST(i, x, 1, "%d != %d");
   12d3e:	4642                	lw	a2,16(sp)
   12d40:	00042023          	sw	zero,0(s0)
   12d44:	4785                	li	a5,1
   12d46:	e432                	sd	a2,8(sp)
   12d48:	02f60263          	beq	a2,a5,12d6c <fwscanf_main+0x616>
   12d4c:	4501                	li	a0,0
   12d4e:	5cd130ef          	jal	ra,26b1a <strerror>
   12d52:	6622                	ld	a2,8(sp)
   12d54:	872a                	mv	a4,a0
   12d56:	000905b7          	lui	a1,0x90
   12d5a:	00047537          	lui	a0,0x47
   12d5e:	4685                	li	a3,1
   12d60:	56858593          	addi	a1,a1,1384 # 90568 <messages+0x1d0>
   12d64:	da050513          	addi	a0,a0,-608 # 46da0 <CSWTCH.18+0x4918>
   12d68:	09f100ef          	jal	ra,23606 <t_printf>
		TEST(i, a[0], 'p', "%d != %d");
   12d6c:	02014603          	lbu	a2,32(sp)
   12d70:	00042023          	sw	zero,0(s0)
   12d74:	07000793          	li	a5,112
   12d78:	e432                	sd	a2,8(sp)
   12d7a:	02f60363          	beq	a2,a5,12da0 <fwscanf_main+0x64a>
   12d7e:	4501                	li	a0,0
   12d80:	59b130ef          	jal	ra,26b1a <strerror>
   12d84:	6622                	ld	a2,8(sp)
   12d86:	872a                	mv	a4,a0
   12d88:	000465b7          	lui	a1,0x46
   12d8c:	00047537          	lui	a0,0x47
   12d90:	07000693          	li	a3,112
   12d94:	1b058593          	addi	a1,a1,432 # 461b0 <CSWTCH.18+0x3d28>
   12d98:	dd850513          	addi	a0,a0,-552 # 46dd8 <CSWTCH.18+0x4950>
   12d9c:	06b100ef          	jal	ra,23606 <t_printf>
		TEST(i, y, 12, "%d != %d");
   12da0:	4652                	lw	a2,20(sp)
   12da2:	00042023          	sw	zero,0(s0)
   12da6:	47b1                	li	a5,12
   12da8:	e432                	sd	a2,8(sp)
   12daa:	02f60263          	beq	a2,a5,12dce <fwscanf_main+0x678>
   12dae:	4501                	li	a0,0
   12db0:	56b130ef          	jal	ra,26b1a <strerror>
   12db4:	6622                	ld	a2,8(sp)
   12db6:	872a                	mv	a4,a0
   12db8:	000465b7          	lui	a1,0x46
   12dbc:	00047537          	lui	a0,0x47
   12dc0:	46b1                	li	a3,12
   12dc2:	ac058593          	addi	a1,a1,-1344 # 45ac0 <CSWTCH.18+0x3638>
   12dc6:	e1050513          	addi	a0,a0,-496 # 46e10 <CSWTCH.18+0x4988>
   12dca:	03d100ef          	jal	ra,23606 <t_printf>
		TEST(i, ftell(f), 7, "%d != %d");
   12dce:	00042023          	sw	zero,0(s0)
   12dd2:	8526                	mv	a0,s1
   12dd4:	4f71c0ef          	jal	ra,2faca <ftell>
   12dd8:	0005061b          	sext.w	a2,a0
   12ddc:	479d                	li	a5,7
   12dde:	e432                	sd	a2,8(sp)
   12de0:	02f60263          	beq	a2,a5,12e04 <fwscanf_main+0x6ae>
   12de4:	4008                	lw	a0,0(s0)
   12de6:	535130ef          	jal	ra,26b1a <strerror>
   12dea:	6622                	ld	a2,8(sp)
   12dec:	872a                	mv	a4,a0
   12dee:	000465b7          	lui	a1,0x46
   12df2:	00047537          	lui	a0,0x47
   12df6:	469d                	li	a3,7
   12df8:	b0058593          	addi	a1,a1,-1280 # 45b00 <CSWTCH.18+0x3678>
   12dfc:	e4850513          	addi	a0,a0,-440 # 46e48 <CSWTCH.18+0x49c0>
   12e00:	007100ef          	jal	ra,23606 <t_printf>
		TEST(i, !!feof(f), 1, "%d != %d");
   12e04:	00042023          	sw	zero,0(s0)
   12e08:	8526                	mv	a0,s1
   12e0a:	1b41c0ef          	jal	ra,2efbe <feof>
   12e0e:	e10d                	bnez	a0,12e30 <fwscanf_main+0x6da>
   12e10:	4008                	lw	a0,0(s0)
   12e12:	509130ef          	jal	ra,26b1a <strerror>
   12e16:	872a                	mv	a4,a0
   12e18:	000465b7          	lui	a1,0x46
   12e1c:	00047537          	lui	a0,0x47
   12e20:	4685                	li	a3,1
   12e22:	4601                	li	a2,0
   12e24:	b4858593          	addi	a1,a1,-1208 # 45b48 <CSWTCH.18+0x36c0>
   12e28:	e8050513          	addi	a0,a0,-384 # 46e80 <CSWTCH.18+0x49f8>
   12e2c:	7da100ef          	jal	ra,23606 <t_printf>
		fclose(f);
   12e30:	8526                	mv	a0,s1
   12e32:	10c1c0ef          	jal	ra,2ef3e <fclose>
   12e36:	bad1                	j	1280a <fwscanf_main+0xb4>
		x=y=-1;
   12e38:	57fd                	li	a5,-1
		TEST(i, fwscanf(f, L"%10[^]]%n%10[].]%n", a, &x, b, &y), 2, "%d != %d");
   12e3a:	000475b7          	lui	a1,0x47
		x=y=-1;
   12e3e:	ca3e                	sw	a5,20(sp)
   12e40:	c83e                	sw	a5,16(sp)
		TEST(i, fwscanf(f, L"%10[^]]%n%10[].]%n", a, &x, b, &y), 2, "%d != %d");
   12e42:	1010                	addi	a2,sp,32
   12e44:	085c                	addi	a5,sp,20
   12e46:	00042023          	sw	zero,0(s0)
   12e4a:	0138                	addi	a4,sp,136
   12e4c:	0814                	addi	a3,sp,16
   12e4e:	29058593          	addi	a1,a1,656 # 47290 <CSWTCH.18+0x4e08>
   12e52:	6d91c0ef          	jal	ra,2fd2a <fwscanf>
   12e56:	4789                	li	a5,2
   12e58:	862a                	mv	a2,a0
   12e5a:	02f50363          	beq	a0,a5,12e80 <fwscanf_main+0x72a>
   12e5e:	4008                	lw	a0,0(s0)
   12e60:	e432                	sd	a2,8(sp)
   12e62:	4b9130ef          	jal	ra,26b1a <strerror>
   12e66:	6622                	ld	a2,8(sp)
   12e68:	872a                	mv	a4,a0
   12e6a:	000475b7          	lui	a1,0x47
   12e6e:	00047537          	lui	a0,0x47
   12e72:	4689                	li	a3,2
   12e74:	8a858593          	addi	a1,a1,-1880 # 468a8 <CSWTCH.18+0x4420>
   12e78:	8d850513          	addi	a0,a0,-1832 # 468d8 <CSWTCH.18+0x4450>
   12e7c:	78a100ef          	jal	ra,23606 <t_printf>
		TEST_S(a, "[abc123", "wrong result for %[^]]");
   12e80:	00046937          	lui	s2,0x46
   12e84:	c7890593          	addi	a1,s2,-904 # 45c78 <CSWTCH.18+0x37f0>
   12e88:	1008                	addi	a0,sp,32
   12e8a:	265200ef          	jal	ra,338ee <strcmp>
   12e8e:	cd11                	beqz	a0,12eaa <fwscanf_main+0x754>
   12e90:	000466b7          	lui	a3,0x46
   12e94:	00047537          	lui	a0,0x47
   12e98:	c8068693          	addi	a3,a3,-896 # 45c80 <CSWTCH.18+0x37f8>
   12e9c:	c7890613          	addi	a2,s2,-904
   12ea0:	100c                	addi	a1,sp,32
   12ea2:	91050513          	addi	a0,a0,-1776 # 46910 <CSWTCH.18+0x4488>
   12ea6:	760100ef          	jal	ra,23606 <t_printf>
		TEST_S(b, "]....", "wrong result for %[].]");
   12eaa:	00046937          	lui	s2,0x46
   12eae:	cc890593          	addi	a1,s2,-824 # 45cc8 <CSWTCH.18+0x3840>
   12eb2:	0128                	addi	a0,sp,136
   12eb4:	23b200ef          	jal	ra,338ee <strcmp>
   12eb8:	cd11                	beqz	a0,12ed4 <fwscanf_main+0x77e>
   12eba:	000466b7          	lui	a3,0x46
   12ebe:	00047537          	lui	a0,0x47
   12ec2:	cd068693          	addi	a3,a3,-816 # 45cd0 <CSWTCH.18+0x3848>
   12ec6:	cc890613          	addi	a2,s2,-824
   12eca:	012c                	addi	a1,sp,136
   12ecc:	94050513          	addi	a0,a0,-1728 # 46940 <CSWTCH.18+0x44b8>
   12ed0:	736100ef          	jal	ra,23606 <t_printf>
		TEST(i, x, 7, "%d != %d");
   12ed4:	4642                	lw	a2,16(sp)
   12ed6:	00042023          	sw	zero,0(s0)
   12eda:	479d                	li	a5,7
   12edc:	e432                	sd	a2,8(sp)
   12ede:	02f60263          	beq	a2,a5,12f02 <fwscanf_main+0x7ac>
   12ee2:	4501                	li	a0,0
   12ee4:	437130ef          	jal	ra,26b1a <strerror>
   12ee8:	6622                	ld	a2,8(sp)
   12eea:	872a                	mv	a4,a0
   12eec:	000905b7          	lui	a1,0x90
   12ef0:	00047537          	lui	a0,0x47
   12ef4:	469d                	li	a3,7
   12ef6:	56858593          	addi	a1,a1,1384 # 90568 <messages+0x1d0>
   12efa:	97050513          	addi	a0,a0,-1680 # 46970 <CSWTCH.18+0x44e8>
   12efe:	708100ef          	jal	ra,23606 <t_printf>
		TEST(i, y, 12, "%d != %d");
   12f02:	4652                	lw	a2,20(sp)
   12f04:	00042023          	sw	zero,0(s0)
   12f08:	47b1                	li	a5,12
   12f0a:	e432                	sd	a2,8(sp)
   12f0c:	02f60263          	beq	a2,a5,12f30 <fwscanf_main+0x7da>
   12f10:	4501                	li	a0,0
   12f12:	409130ef          	jal	ra,26b1a <strerror>
   12f16:	6622                	ld	a2,8(sp)
   12f18:	872a                	mv	a4,a0
   12f1a:	000465b7          	lui	a1,0x46
   12f1e:	00047537          	lui	a0,0x47
   12f22:	46b1                	li	a3,12
   12f24:	ac058593          	addi	a1,a1,-1344 # 45ac0 <CSWTCH.18+0x3638>
   12f28:	9a850513          	addi	a0,a0,-1624 # 469a8 <CSWTCH.18+0x4520>
   12f2c:	6da100ef          	jal	ra,23606 <t_printf>
		TEST(i, ftell(f), 12, "%d != %d");
   12f30:	00042023          	sw	zero,0(s0)
   12f34:	8526                	mv	a0,s1
   12f36:	3951c0ef          	jal	ra,2faca <ftell>
   12f3a:	0005061b          	sext.w	a2,a0
   12f3e:	47b1                	li	a5,12
   12f40:	e432                	sd	a2,8(sp)
   12f42:	02f60263          	beq	a2,a5,12f66 <fwscanf_main+0x810>
   12f46:	4008                	lw	a0,0(s0)
   12f48:	3d3130ef          	jal	ra,26b1a <strerror>
   12f4c:	6622                	ld	a2,8(sp)
   12f4e:	872a                	mv	a4,a0
   12f50:	000465b7          	lui	a1,0x46
   12f54:	00047537          	lui	a0,0x47
   12f58:	46b1                	li	a3,12
   12f5a:	b0058593          	addi	a1,a1,-1280 # 45b00 <CSWTCH.18+0x3678>
   12f5e:	9e050513          	addi	a0,a0,-1568 # 469e0 <CSWTCH.18+0x4558>
   12f62:	6a4100ef          	jal	ra,23606 <t_printf>
		TEST(i, feof(f), 0, "%d != %d");
   12f66:	00042023          	sw	zero,0(s0)
   12f6a:	8526                	mv	a0,s1
   12f6c:	0521c0ef          	jal	ra,2efbe <feof>
   12f70:	c115                	beqz	a0,12f94 <fwscanf_main+0x83e>
   12f72:	e42a                	sd	a0,8(sp)
   12f74:	4008                	lw	a0,0(s0)
   12f76:	3a5130ef          	jal	ra,26b1a <strerror>
   12f7a:	6622                	ld	a2,8(sp)
   12f7c:	872a                	mv	a4,a0
   12f7e:	000465b7          	lui	a1,0x46
   12f82:	00047537          	lui	a0,0x47
   12f86:	4681                	li	a3,0
   12f88:	dc058593          	addi	a1,a1,-576 # 45dc0 <CSWTCH.18+0x3938>
   12f8c:	a1850513          	addi	a0,a0,-1512 # 46a18 <CSWTCH.18+0x4590>
   12f90:	676100ef          	jal	ra,23606 <t_printf>
		TEST(i, fgetwc(f), 'x', "%d != %d");
   12f94:	00042023          	sw	zero,0(s0)
   12f98:	8526                	mv	a0,s1
   12f9a:	4521c0ef          	jal	ra,2f3ec <fgetwc>
   12f9e:	0005061b          	sext.w	a2,a0
   12fa2:	07800793          	li	a5,120
   12fa6:	e432                	sd	a2,8(sp)
   12fa8:	02f60363          	beq	a2,a5,12fce <fwscanf_main+0x878>
   12fac:	4008                	lw	a0,0(s0)
   12fae:	36d130ef          	jal	ra,26b1a <strerror>
   12fb2:	6622                	ld	a2,8(sp)
   12fb4:	872a                	mv	a4,a0
   12fb6:	000475b7          	lui	a1,0x47
   12fba:	00047537          	lui	a0,0x47
   12fbe:	07800693          	li	a3,120
   12fc2:	a5058593          	addi	a1,a1,-1456 # 46a50 <CSWTCH.18+0x45c8>
   12fc6:	a6050513          	addi	a0,a0,-1440 # 46a60 <CSWTCH.18+0x45d8>
   12fca:	63c100ef          	jal	ra,23606 <t_printf>
		fclose(f);
   12fce:	8526                	mv	a0,s1
   12fd0:	76f1b0ef          	jal	ra,2ef3e <fclose>
   12fd4:	801ff06f          	j	127d4 <fwscanf_main+0x7e>
		TEST(i, fwscanf(f, L" %n%*d%n", &x, &y), 0, "%d != %d");
   12fd8:	000475b7          	lui	a1,0x47
		x=y=-1;
   12fdc:	57fd                	li	a5,-1
		TEST(i, fwscanf(f, L" %n%*d%n", &x, &y), 0, "%d != %d");
   12fde:	0810                	addi	a2,sp,16
   12fe0:	00042023          	sw	zero,0(s0)
   12fe4:	0854                	addi	a3,sp,20
   12fe6:	2e058593          	addi	a1,a1,736 # 472e0 <CSWTCH.18+0x4e58>
   12fea:	84aa                	mv	s1,a0
		x=y=-1;
   12fec:	ca3e                	sw	a5,20(sp)
   12fee:	c83e                	sw	a5,16(sp)
		TEST(i, fwscanf(f, L" %n%*d%n", &x, &y), 0, "%d != %d");
   12ff0:	53b1c0ef          	jal	ra,2fd2a <fwscanf>
   12ff4:	862a                	mv	a2,a0
   12ff6:	c115                	beqz	a0,1301a <fwscanf_main+0x8c4>
   12ff8:	4008                	lw	a0,0(s0)
   12ffa:	e432                	sd	a2,8(sp)
   12ffc:	31f130ef          	jal	ra,26b1a <strerror>
   13000:	6622                	ld	a2,8(sp)
   13002:	872a                	mv	a4,a0
   13004:	000465b7          	lui	a1,0x46
   13008:	00046537          	lui	a0,0x46
   1300c:	4681                	li	a3,0
   1300e:	72858593          	addi	a1,a1,1832 # 46728 <CSWTCH.18+0x42a0>
   13012:	74850513          	addi	a0,a0,1864 # 46748 <CSWTCH.18+0x42c0>
   13016:	5f0100ef          	jal	ra,23606 <t_printf>
		TEST(i, x, 6, "%d != %d");
   1301a:	4642                	lw	a2,16(sp)
   1301c:	00042023          	sw	zero,0(s0)
   13020:	4799                	li	a5,6
   13022:	e432                	sd	a2,8(sp)
   13024:	02f60263          	beq	a2,a5,13048 <fwscanf_main+0x8f2>
   13028:	4501                	li	a0,0
   1302a:	2f1130ef          	jal	ra,26b1a <strerror>
   1302e:	6622                	ld	a2,8(sp)
   13030:	872a                	mv	a4,a0
   13032:	000905b7          	lui	a1,0x90
   13036:	00046537          	lui	a0,0x46
   1303a:	4699                	li	a3,6
   1303c:	56858593          	addi	a1,a1,1384 # 90568 <messages+0x1d0>
   13040:	78050513          	addi	a0,a0,1920 # 46780 <CSWTCH.18+0x42f8>
   13044:	5c2100ef          	jal	ra,23606 <t_printf>
		TEST(i, y, 8, "%d != %d");
   13048:	4652                	lw	a2,20(sp)
   1304a:	00042023          	sw	zero,0(s0)
   1304e:	47a1                	li	a5,8
   13050:	e432                	sd	a2,8(sp)
   13052:	02f60263          	beq	a2,a5,13076 <fwscanf_main+0x920>
   13056:	4501                	li	a0,0
   13058:	2c3130ef          	jal	ra,26b1a <strerror>
   1305c:	6622                	ld	a2,8(sp)
   1305e:	872a                	mv	a4,a0
   13060:	000465b7          	lui	a1,0x46
   13064:	00046537          	lui	a0,0x46
   13068:	46a1                	li	a3,8
   1306a:	ac058593          	addi	a1,a1,-1344 # 45ac0 <CSWTCH.18+0x3638>
   1306e:	7b850513          	addi	a0,a0,1976 # 467b8 <CSWTCH.18+0x4330>
   13072:	594100ef          	jal	ra,23606 <t_printf>
		TEST(i, ftell(f), 8, "%d != %d");
   13076:	00042023          	sw	zero,0(s0)
   1307a:	8526                	mv	a0,s1
   1307c:	24f1c0ef          	jal	ra,2faca <ftell>
   13080:	0005061b          	sext.w	a2,a0
   13084:	47a1                	li	a5,8
   13086:	e432                	sd	a2,8(sp)
   13088:	02f60263          	beq	a2,a5,130ac <fwscanf_main+0x956>
   1308c:	4008                	lw	a0,0(s0)
   1308e:	28d130ef          	jal	ra,26b1a <strerror>
   13092:	6622                	ld	a2,8(sp)
   13094:	872a                	mv	a4,a0
   13096:	000465b7          	lui	a1,0x46
   1309a:	00046537          	lui	a0,0x46
   1309e:	46a1                	li	a3,8
   130a0:	b0058593          	addi	a1,a1,-1280 # 45b00 <CSWTCH.18+0x3678>
   130a4:	7f050513          	addi	a0,a0,2032 # 467f0 <CSWTCH.18+0x4368>
   130a8:	55e100ef          	jal	ra,23606 <t_printf>
		TEST(i, !!feof(f), 1, "%d != %d");
   130ac:	00042023          	sw	zero,0(s0)
   130b0:	8526                	mv	a0,s1
   130b2:	70d1b0ef          	jal	ra,2efbe <feof>
   130b6:	e10d                	bnez	a0,130d8 <fwscanf_main+0x982>
   130b8:	4008                	lw	a0,0(s0)
   130ba:	261130ef          	jal	ra,26b1a <strerror>
   130be:	872a                	mv	a4,a0
   130c0:	000465b7          	lui	a1,0x46
   130c4:	00047537          	lui	a0,0x47
   130c8:	4685                	li	a3,1
   130ca:	4601                	li	a2,0
   130cc:	b4858593          	addi	a1,a1,-1208 # 45b48 <CSWTCH.18+0x36c0>
   130d0:	82850513          	addi	a0,a0,-2008 # 46828 <CSWTCH.18+0x43a0>
   130d4:	532100ef          	jal	ra,23606 <t_printf>
		fclose(f);
   130d8:	8526                	mv	a0,s1
   130da:	6651b0ef          	jal	ra,2ef3e <fclose>
   130de:	ec0ff06f          	j	1279e <fwscanf_main+0x48>

00000000000130e2 <iconv_open_main>:

int main(void)
{
	iconv_t cd;
	char buf[100];
	char *inbuf = "test";
   130e2:	00092537          	lui	a0,0x92
{
   130e6:	7171                	addi	sp,sp,-176
	char *inbuf = "test";
   130e8:	1e050793          	addi	a5,a0,480 # 921e0 <test_hashes.1275+0x98>
   130ec:	e43e                	sd	a5,8(sp)
	char *outbuf = buf;
	size_t inlen = strlen(inbuf);
   130ee:	1e050513          	addi	a0,a0,480
	char *outbuf = buf;
   130f2:	103c                	addi	a5,sp,40
   130f4:	e83e                	sd	a5,16(sp)
{
   130f6:	f506                	sd	ra,168(sp)
   130f8:	ed26                	sd	s1,152(sp)
   130fa:	f122                	sd	s0,160(sp)
	size_t outlen;
	size_t r;
	char *bad = "bad-codeset";

	cd = iconv_open(bad, bad);
   130fc:	000474b7          	lui	s1,0x47
	size_t inlen = strlen(inbuf);
   13100:	1f1200ef          	jal	ra,33af0 <strlen>
   13104:	ec2a                	sd	a0,24(sp)
	cd = iconv_open(bad, bad);
   13106:	30848593          	addi	a1,s1,776 # 47308 <CSWTCH.18+0x4e80>
   1310a:	30848513          	addi	a0,s1,776
   1310e:	71f130ef          	jal	ra,2702c <iconv_open>
	if (cd != (iconv_t)-1)
   13112:	57fd                	li	a5,-1
   13114:	00f50c63          	beq	a0,a5,1312c <iconv_open_main+0x4a>
		t_error("iconv_open(\"%s\",\"%s\") didn't fail\n", bad, bad);
   13118:	00047537          	lui	a0,0x47
   1311c:	30848613          	addi	a2,s1,776
   13120:	30848593          	addi	a1,s1,776
   13124:	31850513          	addi	a0,a0,792 # 47318 <CSWTCH.18+0x4e90>
   13128:	4de100ef          	jal	ra,23606 <t_printf>
	if (errno != EINVAL)
   1312c:	1bf130ef          	jal	ra,26aea <__errno_location>
   13130:	842a                	mv	s0,a0
   13132:	4108                	lw	a0,0(a0)
   13134:	47d9                	li	a5,22
   13136:	00f50f63          	beq	a0,a5,13154 <iconv_open_main+0x72>
		t_error("iconv_open(\"%s\",\"%s\") did not fail with EINVAL, got %s\n", bad, bad, strerror(errno));
   1313a:	1e1130ef          	jal	ra,26b1a <strerror>
   1313e:	86aa                	mv	a3,a0
   13140:	00047537          	lui	a0,0x47
   13144:	30848613          	addi	a2,s1,776
   13148:	30848593          	addi	a1,s1,776
   1314c:	36050513          	addi	a0,a0,864 # 47360 <CSWTCH.18+0x4ed8>
   13150:	4b6100ef          	jal	ra,23606 <t_printf>

	errno = 0;
	cd = iconv_open("UTF-8", "UTF-8");
   13154:	00042537          	lui	a0,0x42
   13158:	56850593          	addi	a1,a0,1384 # 42568 <CSWTCH.18+0xe0>
	errno = 0;
   1315c:	00042023          	sw	zero,0(s0)
	cd = iconv_open("UTF-8", "UTF-8");
   13160:	56850513          	addi	a0,a0,1384
   13164:	6c9130ef          	jal	ra,2702c <iconv_open>
	if (cd == (iconv_t)-1)
   13168:	57fd                	li	a5,-1
	cd = iconv_open("UTF-8", "UTF-8");
   1316a:	84aa                	mv	s1,a0
	if (cd == (iconv_t)-1)
   1316c:	00f51c63          	bne	a0,a5,13184 <iconv_open_main+0xa2>
		t_error("iconv_open(\"\",\"\") failed: %s\n", strerror(errno));
   13170:	4008                	lw	a0,0(s0)
   13172:	1a9130ef          	jal	ra,26b1a <strerror>
   13176:	85aa                	mv	a1,a0
   13178:	00047537          	lui	a0,0x47
   1317c:	3b850513          	addi	a0,a0,952 # 473b8 <CSWTCH.18+0x4f30>
   13180:	486100ef          	jal	ra,23606 <t_printf>

	errno = 0;
   13184:	00042023          	sw	zero,0(s0)
	outlen = 0;
	r = iconv(cd, &inbuf, &inlen, &outbuf, &outlen);
   13188:	1018                	addi	a4,sp,32
   1318a:	0814                	addi	a3,sp,16
   1318c:	0830                	addi	a2,sp,24
   1318e:	002c                	addi	a1,sp,8
   13190:	8526                	mv	a0,s1
	outlen = 0;
   13192:	f002                	sd	zero,32(sp)
	r = iconv(cd, &inbuf, &inlen, &outbuf, &outlen);
   13194:	729130ef          	jal	ra,270bc <iconv>
	if (r != -1)
   13198:	57fd                	li	a5,-1
   1319a:	00f50863          	beq	a0,a5,131aa <iconv_open_main+0xc8>
		t_error("iconv() did not fail with 0 output length\n");
   1319e:	00047537          	lui	a0,0x47
   131a2:	3f850513          	addi	a0,a0,1016 # 473f8 <CSWTCH.18+0x4f70>
   131a6:	460100ef          	jal	ra,23606 <t_printf>
	if (errno != E2BIG)
   131aa:	4008                	lw	a0,0(s0)
   131ac:	479d                	li	a5,7
   131ae:	00f50b63          	beq	a0,a5,131c4 <iconv_open_main+0xe2>
		t_error("iconv() did not fail with E2BIG, got %s\n", strerror(errno));
   131b2:	169130ef          	jal	ra,26b1a <strerror>
   131b6:	85aa                	mv	a1,a0
   131b8:	00047537          	lui	a0,0x47
   131bc:	44850513          	addi	a0,a0,1096 # 47448 <CSWTCH.18+0x4fc0>
   131c0:	446100ef          	jal	ra,23606 <t_printf>

	errno = 0;
	outlen = sizeof buf;
   131c4:	06400793          	li	a5,100
	r = iconv(cd, &inbuf, &inlen, &outbuf, &outlen);
   131c8:	002c                	addi	a1,sp,8
	errno = 0;
   131ca:	00042023          	sw	zero,0(s0)
	r = iconv(cd, &inbuf, &inlen, &outbuf, &outlen);
   131ce:	1018                	addi	a4,sp,32
   131d0:	0814                	addi	a3,sp,16
   131d2:	0830                	addi	a2,sp,24
   131d4:	8526                	mv	a0,s1
	outlen = sizeof buf;
   131d6:	f03e                	sd	a5,32(sp)
	r = iconv(cd, &inbuf, &inlen, &outbuf, &outlen);
   131d8:	6e5130ef          	jal	ra,270bc <iconv>
   131dc:	85aa                	mv	a1,a0
	if (r)
   131de:	c519                	beqz	a0,131ec <iconv_open_main+0x10a>
		t_error("iconv() did not return 0 when converting utf8 to utf8, got %d\n", r);
   131e0:	00047537          	lui	a0,0x47
   131e4:	49850513          	addi	a0,a0,1176 # 47498 <CSWTCH.18+0x5010>
   131e8:	41e100ef          	jal	ra,23606 <t_printf>
	if (errno)
   131ec:	4008                	lw	a0,0(s0)
   131ee:	c911                	beqz	a0,13202 <iconv_open_main+0x120>
		t_error("iconv() failed: %s\n", strerror(errno));
   131f0:	12b130ef          	jal	ra,26b1a <strerror>
   131f4:	85aa                	mv	a1,a0
   131f6:	00047537          	lui	a0,0x47
   131fa:	4f850513          	addi	a0,a0,1272 # 474f8 <CSWTCH.18+0x5070>
   131fe:	408100ef          	jal	ra,23606 <t_printf>

	r = iconv_close(cd);
   13202:	8526                	mv	a0,s1
   13204:	373140ef          	jal	ra,27d76 <iconv_close>
	if (r == -1)
   13208:	57fd                	li	a5,-1
   1320a:	00f51c63          	bne	a0,a5,13222 <iconv_open_main+0x140>
		t_error("iconv_close failed: %s\n", strerror(errno));
   1320e:	4008                	lw	a0,0(s0)
   13210:	10b130ef          	jal	ra,26b1a <strerror>
   13214:	85aa                	mv	a1,a0
   13216:	00047537          	lui	a0,0x47
   1321a:	53050513          	addi	a0,a0,1328 # 47530 <CSWTCH.18+0x50a8>
   1321e:	3e8100ef          	jal	ra,23606 <t_printf>

	return t_status;
   13222:	b801a503          	lw	a0,-1152(gp) # 98a08 <_edata>
}
   13226:	70aa                	ld	ra,168(sp)
   13228:	740a                	ld	s0,160(sp)
   1322a:	64ea                	ld	s1,152(sp)
   1322c:	2501                	sext.w	a0,a0
   1322e:	614d                	addi	sp,sp,176
   13230:	8082                	ret

0000000000013232 <inet_pton_main>:
	if (strcmp(p,src)) \
		t_error("inet_ntoa(<"#hex">) returned %s, want %s\n", p, src); \
}while(0);

int main(void)
{
   13232:	7171                	addi	sp,sp,-176
   13234:	ed26                	sd	s1,152(sp)

// errors
if (inet_pton(12345, "", 0) != -1 || errno != EAFNOSUPPORT)
   13236:	650d                	lui	a0,0x3
   13238:	0005f4b7          	lui	s1,0x5f
   1323c:	4601                	li	a2,0
   1323e:	5a848593          	addi	a1,s1,1448 # 5f5a8 <t+0x1758>
   13242:	03950513          	addi	a0,a0,57 # 3039 <c1+0x3023>
{
   13246:	f506                	sd	ra,168(sp)
   13248:	f122                	sd	s0,160(sp)
   1324a:	e94a                	sd	s2,144(sp)
   1324c:	e54e                	sd	s3,136(sp)
if (inet_pton(12345, "", 0) != -1 || errno != EAFNOSUPPORT)
   1324e:	16d160ef          	jal	ra,29bba <inet_pton>
   13252:	892a                	mv	s2,a0
   13254:	097130ef          	jal	ra,26aea <__errno_location>
   13258:	57fd                	li	a5,-1
   1325a:	842a                	mv	s0,a0
   1325c:	00f91763          	bne	s2,a5,1326a <inet_pton_main+0x38>
   13260:	4118                	lw	a4,0(a0)
   13262:	06100793          	li	a5,97
   13266:	00f70c63          	beq	a4,a5,1327e <inet_pton_main+0x4c>
	t_error("inet_pton(12345,,) should fail with EAFNOSUPPORT, got %s\n", strerror(errno));
   1326a:	4008                	lw	a0,0(s0)
   1326c:	0af130ef          	jal	ra,26b1a <strerror>
   13270:	85aa                	mv	a1,a0
   13272:	00047537          	lui	a0,0x47
   13276:	57050513          	addi	a0,a0,1392 # 47570 <CSWTCH.18+0x50e8>
   1327a:	38c100ef          	jal	ra,23606 <t_printf>
errno=0;
if (inet_ntop(AF_INET,"xxxx","",0) != 0 || errno != ENOSPC)
   1327e:	000475b7          	lui	a1,0x47
errno=0;
   13282:	00042023          	sw	zero,0(s0)
if (inet_ntop(AF_INET,"xxxx","",0) != 0 || errno != ENOSPC)
   13286:	4681                	li	a3,0
   13288:	5a848613          	addi	a2,s1,1448
   1328c:	5d058593          	addi	a1,a1,1488 # 475d0 <CSWTCH.18+0x5148>
   13290:	4509                	li	a0,2
   13292:	744160ef          	jal	ra,299d6 <inet_ntop>
   13296:	e509                	bnez	a0,132a0 <inet_pton_main+0x6e>
   13298:	4018                	lw	a4,0(s0)
   1329a:	47f1                	li	a5,28
   1329c:	00f70c63          	beq	a4,a5,132b4 <inet_pton_main+0x82>
	t_error("inet_ntop(,,0,0) should fail with ENOSPC, got %s\n", strerror(errno));
   132a0:	4008                	lw	a0,0(s0)
   132a2:	079130ef          	jal	ra,26b1a <strerror>
   132a6:	85aa                	mv	a1,a0
   132a8:	00047537          	lui	a0,0x47
   132ac:	5d850513          	addi	a0,a0,1496 # 475d8 <CSWTCH.18+0x5150>
   132b0:	356100ef          	jal	ra,23606 <t_printf>
errno=0;

// dotted-decimal notation
V4("0.0.0.0", 1, "00000000")
   132b4:	000474b7          	lui	s1,0x47
errno=0;
   132b8:	00042023          	sw	zero,0(s0)
V4("0.0.0.0", 1, "00000000")
   132bc:	63048513          	addi	a0,s1,1584 # 47630 <CSWTCH.18+0x51a8>
   132c0:	0080                	addi	s0,sp,64
   132c2:	e082                	sd	zero,64(sp)
   132c4:	e482                	sd	zero,72(sp)
   132c6:	c882                	sw	zero,80(sp)
   132c8:	5da160ef          	jal	ra,298a2 <inet_addr>
   132cc:	cc2a                	sw	a0,24(sp)
   132ce:	082c                	addi	a1,sp,24
   132d0:	8522                	mv	a0,s0
   132d2:	4611                	li	a2,4
   132d4:	0a9100ef          	jal	ra,23b7c <tohex>
   132d8:	00049937          	lui	s2,0x49
   132dc:	bc890593          	addi	a1,s2,-1080 # 48bc8 <CSWTCH.18+0x6740>
   132e0:	8522                	mv	a0,s0
   132e2:	60c200ef          	jal	ra,338ee <strcmp>
   132e6:	c911                	beqz	a0,132fa <inet_pton_main+0xc8>
   132e8:	00047537          	lui	a0,0x47
   132ec:	bc890613          	addi	a2,s2,-1080
   132f0:	85a2                	mv	a1,s0
   132f2:	63850513          	addi	a0,a0,1592 # 47638 <CSWTCH.18+0x51b0>
   132f6:	310100ef          	jal	ra,23606 <t_printf>
   132fa:	63048593          	addi	a1,s1,1584
   132fe:	0830                	addi	a2,sp,24
   13300:	4509                	li	a0,2
   13302:	0b9160ef          	jal	ra,29bba <inet_pton>
   13306:	4785                	li	a5,1
   13308:	85aa                	mv	a1,a0
   1330a:	00f50963          	beq	a0,a5,1331c <inet_pton_main+0xea>
   1330e:	00047537          	lui	a0,0x47
   13312:	4605                	li	a2,1
   13314:	68850513          	addi	a0,a0,1672 # 47688 <CSWTCH.18+0x5200>
   13318:	2ee100ef          	jal	ra,23606 <t_printf>
   1331c:	082c                	addi	a1,sp,24
   1331e:	8522                	mv	a0,s0
   13320:	4611                	li	a2,4
   13322:	05b100ef          	jal	ra,23b7c <tohex>
   13326:	bc890593          	addi	a1,s2,-1080
   1332a:	8522                	mv	a0,s0
   1332c:	5c2200ef          	jal	ra,338ee <strcmp>
   13330:	c911                	beqz	a0,13344 <inet_pton_main+0x112>
   13332:	00047537          	lui	a0,0x47
   13336:	bc890613          	addi	a2,s2,-1080
   1333a:	85a2                	mv	a1,s0
   1333c:	6e850513          	addi	a0,a0,1768 # 476e8 <CSWTCH.18+0x5260>
   13340:	2c6100ef          	jal	ra,23606 <t_printf>
   13344:	bc890593          	addi	a1,s2,-1080
   13348:	0828                	addi	a0,sp,24
   1334a:	07d100ef          	jal	ra,23bc6 <tobin>
   1334e:	46d1                	li	a3,20
   13350:	8622                	mv	a2,s0
   13352:	082c                	addi	a1,sp,24
   13354:	4509                	li	a0,2
   13356:	680160ef          	jal	ra,299d6 <inet_ntop>
   1335a:	00a40863          	beq	s0,a0,1336a <inet_pton_main+0x138>
   1335e:	00047537          	lui	a0,0x47
   13362:	74850513          	addi	a0,a0,1864 # 47748 <CSWTCH.18+0x52c0>
   13366:	2a0100ef          	jal	ra,23606 <t_printf>
   1336a:	63048593          	addi	a1,s1,1584
   1336e:	8522                	mv	a0,s0
   13370:	57e200ef          	jal	ra,338ee <strcmp>
   13374:	c911                	beqz	a0,13388 <inet_pton_main+0x156>
   13376:	00047537          	lui	a0,0x47
   1337a:	63048613          	addi	a2,s1,1584
   1337e:	85a2                	mv	a1,s0
   13380:	7a850513          	addi	a0,a0,1960 # 477a8 <CSWTCH.18+0x5320>
   13384:	282100ef          	jal	ra,23606 <t_printf>
   13388:	4562                	lw	a0,24(sp)
   1338a:	60c160ef          	jal	ra,29996 <inet_ntoa>
   1338e:	63048593          	addi	a1,s1,1584
   13392:	892a                	mv	s2,a0
   13394:	55a200ef          	jal	ra,338ee <strcmp>
   13398:	c911                	beqz	a0,133ac <inet_pton_main+0x17a>
   1339a:	00048537          	lui	a0,0x48
   1339e:	63048613          	addi	a2,s1,1584
   133a2:	85ca                	mv	a1,s2
   133a4:	80850513          	addi	a0,a0,-2040 # 47808 <CSWTCH.18+0x5380>
   133a8:	25e100ef          	jal	ra,23606 <t_printf>
V4("127.0.0.1", 1, "7f000001")
   133ac:	000484b7          	lui	s1,0x48
   133b0:	85848513          	addi	a0,s1,-1960 # 47858 <CSWTCH.18+0x53d0>
   133b4:	e082                	sd	zero,64(sp)
   133b6:	e482                	sd	zero,72(sp)
   133b8:	c882                	sw	zero,80(sp)
   133ba:	4e8160ef          	jal	ra,298a2 <inet_addr>
   133be:	cc2a                	sw	a0,24(sp)
   133c0:	082c                	addi	a1,sp,24
   133c2:	8522                	mv	a0,s0
   133c4:	4611                	li	a2,4
   133c6:	7b6100ef          	jal	ra,23b7c <tohex>
   133ca:	00048937          	lui	s2,0x48
   133ce:	86890593          	addi	a1,s2,-1944 # 47868 <CSWTCH.18+0x53e0>
   133d2:	8522                	mv	a0,s0
   133d4:	51a200ef          	jal	ra,338ee <strcmp>
   133d8:	c911                	beqz	a0,133ec <inet_pton_main+0x1ba>
   133da:	00048537          	lui	a0,0x48
   133de:	86890613          	addi	a2,s2,-1944
   133e2:	85a2                	mv	a1,s0
   133e4:	87850513          	addi	a0,a0,-1928 # 47878 <CSWTCH.18+0x53f0>
   133e8:	21e100ef          	jal	ra,23606 <t_printf>
   133ec:	85848593          	addi	a1,s1,-1960
   133f0:	0830                	addi	a2,sp,24
   133f2:	4509                	li	a0,2
   133f4:	7c6160ef          	jal	ra,29bba <inet_pton>
   133f8:	4785                	li	a5,1
   133fa:	85aa                	mv	a1,a0
   133fc:	00f50963          	beq	a0,a5,1340e <inet_pton_main+0x1dc>
   13400:	00048537          	lui	a0,0x48
   13404:	4605                	li	a2,1
   13406:	8c850513          	addi	a0,a0,-1848 # 478c8 <CSWTCH.18+0x5440>
   1340a:	1fc100ef          	jal	ra,23606 <t_printf>
   1340e:	082c                	addi	a1,sp,24
   13410:	8522                	mv	a0,s0
   13412:	4611                	li	a2,4
   13414:	768100ef          	jal	ra,23b7c <tohex>
   13418:	86890593          	addi	a1,s2,-1944
   1341c:	8522                	mv	a0,s0
   1341e:	4d0200ef          	jal	ra,338ee <strcmp>
   13422:	c911                	beqz	a0,13436 <inet_pton_main+0x204>
   13424:	00048537          	lui	a0,0x48
   13428:	86890613          	addi	a2,s2,-1944
   1342c:	85a2                	mv	a1,s0
   1342e:	92850513          	addi	a0,a0,-1752 # 47928 <CSWTCH.18+0x54a0>
   13432:	1d4100ef          	jal	ra,23606 <t_printf>
   13436:	86890593          	addi	a1,s2,-1944
   1343a:	0828                	addi	a0,sp,24
   1343c:	78a100ef          	jal	ra,23bc6 <tobin>
   13440:	46d1                	li	a3,20
   13442:	8622                	mv	a2,s0
   13444:	082c                	addi	a1,sp,24
   13446:	4509                	li	a0,2
   13448:	58e160ef          	jal	ra,299d6 <inet_ntop>
   1344c:	00a40863          	beq	s0,a0,1345c <inet_pton_main+0x22a>
   13450:	00048537          	lui	a0,0x48
   13454:	98850513          	addi	a0,a0,-1656 # 47988 <CSWTCH.18+0x5500>
   13458:	1ae100ef          	jal	ra,23606 <t_printf>
   1345c:	85848593          	addi	a1,s1,-1960
   13460:	8522                	mv	a0,s0
   13462:	48c200ef          	jal	ra,338ee <strcmp>
   13466:	c911                	beqz	a0,1347a <inet_pton_main+0x248>
   13468:	00048537          	lui	a0,0x48
   1346c:	85848613          	addi	a2,s1,-1960
   13470:	85a2                	mv	a1,s0
   13472:	9e850513          	addi	a0,a0,-1560 # 479e8 <CSWTCH.18+0x5560>
   13476:	190100ef          	jal	ra,23606 <t_printf>
   1347a:	4562                	lw	a0,24(sp)
   1347c:	51a160ef          	jal	ra,29996 <inet_ntoa>
   13480:	85848593          	addi	a1,s1,-1960
   13484:	892a                	mv	s2,a0
   13486:	468200ef          	jal	ra,338ee <strcmp>
   1348a:	c911                	beqz	a0,1349e <inet_pton_main+0x26c>
   1348c:	00048537          	lui	a0,0x48
   13490:	85848613          	addi	a2,s1,-1960
   13494:	85ca                	mv	a1,s2
   13496:	a4850513          	addi	a0,a0,-1464 # 47a48 <CSWTCH.18+0x55c0>
   1349a:	16c100ef          	jal	ra,23606 <t_printf>
V4("10.0.128.31", 1, "0a00801f")
   1349e:	000484b7          	lui	s1,0x48
   134a2:	a9848513          	addi	a0,s1,-1384 # 47a98 <CSWTCH.18+0x5610>
   134a6:	e082                	sd	zero,64(sp)
   134a8:	e482                	sd	zero,72(sp)
   134aa:	c882                	sw	zero,80(sp)
   134ac:	3f6160ef          	jal	ra,298a2 <inet_addr>
   134b0:	cc2a                	sw	a0,24(sp)
   134b2:	082c                	addi	a1,sp,24
   134b4:	8522                	mv	a0,s0
   134b6:	4611                	li	a2,4
   134b8:	6c4100ef          	jal	ra,23b7c <tohex>
   134bc:	00048937          	lui	s2,0x48
   134c0:	aa890593          	addi	a1,s2,-1368 # 47aa8 <CSWTCH.18+0x5620>
   134c4:	8522                	mv	a0,s0
   134c6:	428200ef          	jal	ra,338ee <strcmp>
   134ca:	c911                	beqz	a0,134de <inet_pton_main+0x2ac>
   134cc:	00048537          	lui	a0,0x48
   134d0:	aa890613          	addi	a2,s2,-1368
   134d4:	85a2                	mv	a1,s0
   134d6:	ab850513          	addi	a0,a0,-1352 # 47ab8 <CSWTCH.18+0x5630>
   134da:	12c100ef          	jal	ra,23606 <t_printf>
   134de:	a9848593          	addi	a1,s1,-1384
   134e2:	0830                	addi	a2,sp,24
   134e4:	4509                	li	a0,2
   134e6:	6d4160ef          	jal	ra,29bba <inet_pton>
   134ea:	4785                	li	a5,1
   134ec:	85aa                	mv	a1,a0
   134ee:	00f50963          	beq	a0,a5,13500 <inet_pton_main+0x2ce>
   134f2:	00048537          	lui	a0,0x48
   134f6:	4605                	li	a2,1
   134f8:	b0850513          	addi	a0,a0,-1272 # 47b08 <CSWTCH.18+0x5680>
   134fc:	10a100ef          	jal	ra,23606 <t_printf>
   13500:	082c                	addi	a1,sp,24
   13502:	8522                	mv	a0,s0
   13504:	4611                	li	a2,4
   13506:	676100ef          	jal	ra,23b7c <tohex>
   1350a:	aa890593          	addi	a1,s2,-1368
   1350e:	8522                	mv	a0,s0
   13510:	3de200ef          	jal	ra,338ee <strcmp>
   13514:	c911                	beqz	a0,13528 <inet_pton_main+0x2f6>
   13516:	00048537          	lui	a0,0x48
   1351a:	aa890613          	addi	a2,s2,-1368
   1351e:	85a2                	mv	a1,s0
   13520:	b6850513          	addi	a0,a0,-1176 # 47b68 <CSWTCH.18+0x56e0>
   13524:	0e2100ef          	jal	ra,23606 <t_printf>
   13528:	aa890593          	addi	a1,s2,-1368
   1352c:	0828                	addi	a0,sp,24
   1352e:	698100ef          	jal	ra,23bc6 <tobin>
   13532:	46d1                	li	a3,20
   13534:	8622                	mv	a2,s0
   13536:	082c                	addi	a1,sp,24
   13538:	4509                	li	a0,2
   1353a:	49c160ef          	jal	ra,299d6 <inet_ntop>
   1353e:	00a40863          	beq	s0,a0,1354e <inet_pton_main+0x31c>
   13542:	00048537          	lui	a0,0x48
   13546:	bc850513          	addi	a0,a0,-1080 # 47bc8 <CSWTCH.18+0x5740>
   1354a:	0bc100ef          	jal	ra,23606 <t_printf>
   1354e:	a9848593          	addi	a1,s1,-1384
   13552:	8522                	mv	a0,s0
   13554:	39a200ef          	jal	ra,338ee <strcmp>
   13558:	c911                	beqz	a0,1356c <inet_pton_main+0x33a>
   1355a:	00048537          	lui	a0,0x48
   1355e:	a9848613          	addi	a2,s1,-1384
   13562:	85a2                	mv	a1,s0
   13564:	c2850513          	addi	a0,a0,-984 # 47c28 <CSWTCH.18+0x57a0>
   13568:	09e100ef          	jal	ra,23606 <t_printf>
   1356c:	4562                	lw	a0,24(sp)
   1356e:	428160ef          	jal	ra,29996 <inet_ntoa>
   13572:	a9848593          	addi	a1,s1,-1384
   13576:	892a                	mv	s2,a0
   13578:	376200ef          	jal	ra,338ee <strcmp>
   1357c:	c911                	beqz	a0,13590 <inet_pton_main+0x35e>
   1357e:	00048537          	lui	a0,0x48
   13582:	a9848613          	addi	a2,s1,-1384
   13586:	85ca                	mv	a1,s2
   13588:	c8850513          	addi	a0,a0,-888 # 47c88 <CSWTCH.18+0x5800>
   1358c:	07a100ef          	jal	ra,23606 <t_printf>
V4("255.255.255.255", 1, "ffffffff")
   13590:	00048937          	lui	s2,0x48
   13594:	cd890513          	addi	a0,s2,-808 # 47cd8 <CSWTCH.18+0x5850>
   13598:	e082                	sd	zero,64(sp)
   1359a:	e482                	sd	zero,72(sp)
   1359c:	c882                	sw	zero,80(sp)
   1359e:	304160ef          	jal	ra,298a2 <inet_addr>
   135a2:	cc2a                	sw	a0,24(sp)
   135a4:	082c                	addi	a1,sp,24
   135a6:	8522                	mv	a0,s0
   135a8:	4611                	li	a2,4
   135aa:	5d2100ef          	jal	ra,23b7c <tohex>
   135ae:	000484b7          	lui	s1,0x48
   135b2:	ce848593          	addi	a1,s1,-792 # 47ce8 <CSWTCH.18+0x5860>
   135b6:	8522                	mv	a0,s0
   135b8:	336200ef          	jal	ra,338ee <strcmp>
   135bc:	c911                	beqz	a0,135d0 <inet_pton_main+0x39e>
   135be:	00048537          	lui	a0,0x48
   135c2:	ce848613          	addi	a2,s1,-792
   135c6:	85a2                	mv	a1,s0
   135c8:	cf850513          	addi	a0,a0,-776 # 47cf8 <CSWTCH.18+0x5870>
   135cc:	03a100ef          	jal	ra,23606 <t_printf>
   135d0:	cd890593          	addi	a1,s2,-808
   135d4:	0830                	addi	a2,sp,24
   135d6:	4509                	li	a0,2
   135d8:	5e2160ef          	jal	ra,29bba <inet_pton>
   135dc:	4785                	li	a5,1
   135de:	85aa                	mv	a1,a0
   135e0:	00f50963          	beq	a0,a5,135f2 <inet_pton_main+0x3c0>
   135e4:	00048537          	lui	a0,0x48
   135e8:	4605                	li	a2,1
   135ea:	d5050513          	addi	a0,a0,-688 # 47d50 <CSWTCH.18+0x58c8>
   135ee:	018100ef          	jal	ra,23606 <t_printf>
   135f2:	082c                	addi	a1,sp,24
   135f4:	8522                	mv	a0,s0
   135f6:	4611                	li	a2,4
   135f8:	584100ef          	jal	ra,23b7c <tohex>
   135fc:	ce848593          	addi	a1,s1,-792
   13600:	8522                	mv	a0,s0
   13602:	2ec200ef          	jal	ra,338ee <strcmp>
   13606:	c911                	beqz	a0,1361a <inet_pton_main+0x3e8>
   13608:	00048537          	lui	a0,0x48
   1360c:	ce848613          	addi	a2,s1,-792
   13610:	85a2                	mv	a1,s0
   13612:	db850513          	addi	a0,a0,-584 # 47db8 <CSWTCH.18+0x5930>
   13616:	7f10f0ef          	jal	ra,23606 <t_printf>
   1361a:	ce848593          	addi	a1,s1,-792
   1361e:	0828                	addi	a0,sp,24
   13620:	5a6100ef          	jal	ra,23bc6 <tobin>
   13624:	46d1                	li	a3,20
   13626:	8622                	mv	a2,s0
   13628:	082c                	addi	a1,sp,24
   1362a:	4509                	li	a0,2
   1362c:	3aa160ef          	jal	ra,299d6 <inet_ntop>
   13630:	00a40863          	beq	s0,a0,13640 <inet_pton_main+0x40e>
   13634:	00048537          	lui	a0,0x48
   13638:	e2050513          	addi	a0,a0,-480 # 47e20 <CSWTCH.18+0x5998>
   1363c:	7cb0f0ef          	jal	ra,23606 <t_printf>
   13640:	cd890593          	addi	a1,s2,-808
   13644:	8522                	mv	a0,s0
   13646:	2a8200ef          	jal	ra,338ee <strcmp>
   1364a:	c911                	beqz	a0,1365e <inet_pton_main+0x42c>
   1364c:	00048537          	lui	a0,0x48
   13650:	cd890613          	addi	a2,s2,-808
   13654:	85a2                	mv	a1,s0
   13656:	e8050513          	addi	a0,a0,-384 # 47e80 <CSWTCH.18+0x59f8>
   1365a:	7ad0f0ef          	jal	ra,23606 <t_printf>
   1365e:	4562                	lw	a0,24(sp)
   13660:	336160ef          	jal	ra,29996 <inet_ntoa>
   13664:	cd890593          	addi	a1,s2,-808
   13668:	89aa                	mv	s3,a0
   1366a:	284200ef          	jal	ra,338ee <strcmp>
   1366e:	c911                	beqz	a0,13682 <inet_pton_main+0x450>
   13670:	00048537          	lui	a0,0x48
   13674:	cd890613          	addi	a2,s2,-808
   13678:	85ce                	mv	a1,s3
   1367a:	ee050513          	addi	a0,a0,-288 # 47ee0 <CSWTCH.18+0x5a58>
   1367e:	7890f0ef          	jal	ra,23606 <t_printf>

// numbers-and-dots notation, but not dotted-decimal
V4("1.2.03.4", 0, "01020304")
   13682:	00048937          	lui	s2,0x48
   13686:	f3090513          	addi	a0,s2,-208 # 47f30 <CSWTCH.18+0x5aa8>
   1368a:	e082                	sd	zero,64(sp)
   1368c:	e482                	sd	zero,72(sp)
   1368e:	c882                	sw	zero,80(sp)
   13690:	212160ef          	jal	ra,298a2 <inet_addr>
   13694:	cc2a                	sw	a0,24(sp)
   13696:	082c                	addi	a1,sp,24
   13698:	8522                	mv	a0,s0
   1369a:	4611                	li	a2,4
   1369c:	4e0100ef          	jal	ra,23b7c <tohex>
   136a0:	000489b7          	lui	s3,0x48
   136a4:	f4098593          	addi	a1,s3,-192 # 47f40 <CSWTCH.18+0x5ab8>
   136a8:	8522                	mv	a0,s0
   136aa:	244200ef          	jal	ra,338ee <strcmp>
   136ae:	c911                	beqz	a0,136c2 <inet_pton_main+0x490>
   136b0:	00048537          	lui	a0,0x48
   136b4:	f4098613          	addi	a2,s3,-192
   136b8:	85a2                	mv	a1,s0
   136ba:	f5050513          	addi	a0,a0,-176 # 47f50 <CSWTCH.18+0x5ac8>
   136be:	7490f0ef          	jal	ra,23606 <t_printf>
   136c2:	f3090593          	addi	a1,s2,-208
   136c6:	0830                	addi	a2,sp,24
   136c8:	4509                	li	a0,2
   136ca:	4f0160ef          	jal	ra,29bba <inet_pton>
   136ce:	85aa                	mv	a1,a0
   136d0:	c901                	beqz	a0,136e0 <inet_pton_main+0x4ae>
   136d2:	00048537          	lui	a0,0x48
   136d6:	4601                	li	a2,0
   136d8:	fa050513          	addi	a0,a0,-96 # 47fa0 <CSWTCH.18+0x5b18>
   136dc:	72b0f0ef          	jal	ra,23606 <t_printf>
V4("1.2.0x33.4", 0, "01023304")
   136e0:	00048937          	lui	s2,0x48
   136e4:	00090513          	mv	a0,s2
   136e8:	e082                	sd	zero,64(sp)
   136ea:	e482                	sd	zero,72(sp)
   136ec:	c882                	sw	zero,80(sp)
   136ee:	1b4160ef          	jal	ra,298a2 <inet_addr>
   136f2:	cc2a                	sw	a0,24(sp)
   136f4:	082c                	addi	a1,sp,24
   136f6:	8522                	mv	a0,s0
   136f8:	4611                	li	a2,4
   136fa:	482100ef          	jal	ra,23b7c <tohex>
   136fe:	000489b7          	lui	s3,0x48
   13702:	01098593          	addi	a1,s3,16 # 48010 <CSWTCH.18+0x5b88>
   13706:	8522                	mv	a0,s0
   13708:	1e6200ef          	jal	ra,338ee <strcmp>
   1370c:	c911                	beqz	a0,13720 <inet_pton_main+0x4ee>
   1370e:	00048537          	lui	a0,0x48
   13712:	01098613          	addi	a2,s3,16
   13716:	85a2                	mv	a1,s0
   13718:	02050513          	addi	a0,a0,32 # 48020 <CSWTCH.18+0x5b98>
   1371c:	6eb0f0ef          	jal	ra,23606 <t_printf>
   13720:	00090593          	mv	a1,s2
   13724:	0830                	addi	a2,sp,24
   13726:	4509                	li	a0,2
   13728:	492160ef          	jal	ra,29bba <inet_pton>
   1372c:	85aa                	mv	a1,a0
   1372e:	c901                	beqz	a0,1373e <inet_pton_main+0x50c>
   13730:	00048537          	lui	a0,0x48
   13734:	4601                	li	a2,0
   13736:	07050513          	addi	a0,a0,112 # 48070 <CSWTCH.18+0x5be8>
   1373a:	6cd0f0ef          	jal	ra,23606 <t_printf>
V4("1.2.0XAB.4", 0, "0102ab04")
   1373e:	00048937          	lui	s2,0x48
   13742:	0d090513          	addi	a0,s2,208 # 480d0 <CSWTCH.18+0x5c48>
   13746:	e082                	sd	zero,64(sp)
   13748:	e482                	sd	zero,72(sp)
   1374a:	c882                	sw	zero,80(sp)
   1374c:	156160ef          	jal	ra,298a2 <inet_addr>
   13750:	cc2a                	sw	a0,24(sp)
   13752:	082c                	addi	a1,sp,24
   13754:	8522                	mv	a0,s0
   13756:	4611                	li	a2,4
   13758:	424100ef          	jal	ra,23b7c <tohex>
   1375c:	000489b7          	lui	s3,0x48
   13760:	0e098593          	addi	a1,s3,224 # 480e0 <CSWTCH.18+0x5c58>
   13764:	8522                	mv	a0,s0
   13766:	188200ef          	jal	ra,338ee <strcmp>
   1376a:	c911                	beqz	a0,1377e <inet_pton_main+0x54c>
   1376c:	00048537          	lui	a0,0x48
   13770:	0e098613          	addi	a2,s3,224
   13774:	85a2                	mv	a1,s0
   13776:	0f050513          	addi	a0,a0,240 # 480f0 <CSWTCH.18+0x5c68>
   1377a:	68d0f0ef          	jal	ra,23606 <t_printf>
   1377e:	0d090593          	addi	a1,s2,208
   13782:	0830                	addi	a2,sp,24
   13784:	4509                	li	a0,2
   13786:	434160ef          	jal	ra,29bba <inet_pton>
   1378a:	85aa                	mv	a1,a0
   1378c:	c901                	beqz	a0,1379c <inet_pton_main+0x56a>
   1378e:	00048537          	lui	a0,0x48
   13792:	4601                	li	a2,0
   13794:	14050513          	addi	a0,a0,320 # 48140 <CSWTCH.18+0x5cb8>
   13798:	66f0f0ef          	jal	ra,23606 <t_printf>
V4("1.2.0xabcd", 0, "0102abcd")
   1379c:	00048937          	lui	s2,0x48
   137a0:	1a090513          	addi	a0,s2,416 # 481a0 <CSWTCH.18+0x5d18>
   137a4:	e082                	sd	zero,64(sp)
   137a6:	e482                	sd	zero,72(sp)
   137a8:	c882                	sw	zero,80(sp)
   137aa:	0f8160ef          	jal	ra,298a2 <inet_addr>
   137ae:	cc2a                	sw	a0,24(sp)
   137b0:	082c                	addi	a1,sp,24
   137b2:	8522                	mv	a0,s0
   137b4:	4611                	li	a2,4
   137b6:	3c6100ef          	jal	ra,23b7c <tohex>
   137ba:	000489b7          	lui	s3,0x48
   137be:	1b098593          	addi	a1,s3,432 # 481b0 <CSWTCH.18+0x5d28>
   137c2:	8522                	mv	a0,s0
   137c4:	12a200ef          	jal	ra,338ee <strcmp>
   137c8:	c911                	beqz	a0,137dc <inet_pton_main+0x5aa>
   137ca:	00048537          	lui	a0,0x48
   137ce:	1b098613          	addi	a2,s3,432
   137d2:	85a2                	mv	a1,s0
   137d4:	1c050513          	addi	a0,a0,448 # 481c0 <CSWTCH.18+0x5d38>
   137d8:	62f0f0ef          	jal	ra,23606 <t_printf>
   137dc:	1a090593          	addi	a1,s2,416
   137e0:	0830                	addi	a2,sp,24
   137e2:	4509                	li	a0,2
   137e4:	3d6160ef          	jal	ra,29bba <inet_pton>
   137e8:	85aa                	mv	a1,a0
   137ea:	c901                	beqz	a0,137fa <inet_pton_main+0x5c8>
   137ec:	00048537          	lui	a0,0x48
   137f0:	4601                	li	a2,0
   137f2:	21050513          	addi	a0,a0,528 # 48210 <CSWTCH.18+0x5d88>
   137f6:	6110f0ef          	jal	ra,23606 <t_printf>
V4("1.0xabcdef", 0, "01abcdef")
   137fa:	00048937          	lui	s2,0x48
   137fe:	27090513          	addi	a0,s2,624 # 48270 <CSWTCH.18+0x5de8>
   13802:	0080                	addi	s0,sp,64
   13804:	e082                	sd	zero,64(sp)
   13806:	e482                	sd	zero,72(sp)
   13808:	c882                	sw	zero,80(sp)
   1380a:	098160ef          	jal	ra,298a2 <inet_addr>
   1380e:	cc2a                	sw	a0,24(sp)
   13810:	082c                	addi	a1,sp,24
   13812:	8522                	mv	a0,s0
   13814:	4611                	li	a2,4
   13816:	366100ef          	jal	ra,23b7c <tohex>
   1381a:	000489b7          	lui	s3,0x48
   1381e:	28098593          	addi	a1,s3,640 # 48280 <CSWTCH.18+0x5df8>
   13822:	8522                	mv	a0,s0
   13824:	0ca200ef          	jal	ra,338ee <strcmp>
   13828:	c911                	beqz	a0,1383c <inet_pton_main+0x60a>
   1382a:	00048537          	lui	a0,0x48
   1382e:	28098613          	addi	a2,s3,640
   13832:	85a2                	mv	a1,s0
   13834:	29050513          	addi	a0,a0,656 # 48290 <CSWTCH.18+0x5e08>
   13838:	5cf0f0ef          	jal	ra,23606 <t_printf>
   1383c:	27090593          	addi	a1,s2,624
   13840:	0830                	addi	a2,sp,24
   13842:	4509                	li	a0,2
   13844:	376160ef          	jal	ra,29bba <inet_pton>
   13848:	85aa                	mv	a1,a0
   1384a:	c901                	beqz	a0,1385a <inet_pton_main+0x628>
   1384c:	00048537          	lui	a0,0x48
   13850:	4601                	li	a2,0
   13852:	2e050513          	addi	a0,a0,736 # 482e0 <CSWTCH.18+0x5e58>
   13856:	5b10f0ef          	jal	ra,23606 <t_printf>
V4("00377.0x0ff.65534", 0, "fffffffe")
   1385a:	00048937          	lui	s2,0x48
   1385e:	34090513          	addi	a0,s2,832 # 48340 <CSWTCH.18+0x5eb8>
   13862:	e082                	sd	zero,64(sp)
   13864:	e482                	sd	zero,72(sp)
   13866:	c882                	sw	zero,80(sp)
   13868:	03a160ef          	jal	ra,298a2 <inet_addr>
   1386c:	cc2a                	sw	a0,24(sp)
   1386e:	082c                	addi	a1,sp,24
   13870:	8522                	mv	a0,s0
   13872:	4611                	li	a2,4
   13874:	308100ef          	jal	ra,23b7c <tohex>
   13878:	000489b7          	lui	s3,0x48
   1387c:	35898593          	addi	a1,s3,856 # 48358 <CSWTCH.18+0x5ed0>
   13880:	8522                	mv	a0,s0
   13882:	06c200ef          	jal	ra,338ee <strcmp>
   13886:	c911                	beqz	a0,1389a <inet_pton_main+0x668>
   13888:	00048537          	lui	a0,0x48
   1388c:	35898613          	addi	a2,s3,856
   13890:	85a2                	mv	a1,s0
   13892:	36850513          	addi	a0,a0,872 # 48368 <CSWTCH.18+0x5ee0>
   13896:	5710f0ef          	jal	ra,23606 <t_printf>
   1389a:	34090593          	addi	a1,s2,832
   1389e:	0830                	addi	a2,sp,24
   138a0:	4509                	li	a0,2
   138a2:	318160ef          	jal	ra,29bba <inet_pton>
   138a6:	85aa                	mv	a1,a0
   138a8:	c901                	beqz	a0,138b8 <inet_pton_main+0x686>
   138aa:	00048537          	lui	a0,0x48
   138ae:	4601                	li	a2,0
   138b0:	3c050513          	addi	a0,a0,960 # 483c0 <CSWTCH.18+0x5f38>
   138b4:	5530f0ef          	jal	ra,23606 <t_printf>

// invalid
V4(".1.2.3", 0, "ffffffff")
   138b8:	00048937          	lui	s2,0x48
   138bc:	42890513          	addi	a0,s2,1064 # 48428 <CSWTCH.18+0x5fa0>
   138c0:	e082                	sd	zero,64(sp)
   138c2:	e482                	sd	zero,72(sp)
   138c4:	c882                	sw	zero,80(sp)
   138c6:	7dd150ef          	jal	ra,298a2 <inet_addr>
   138ca:	cc2a                	sw	a0,24(sp)
   138cc:	082c                	addi	a1,sp,24
   138ce:	8522                	mv	a0,s0
   138d0:	4611                	li	a2,4
   138d2:	2aa100ef          	jal	ra,23b7c <tohex>
   138d6:	ce848593          	addi	a1,s1,-792
   138da:	8522                	mv	a0,s0
   138dc:	012200ef          	jal	ra,338ee <strcmp>
   138e0:	c911                	beqz	a0,138f4 <inet_pton_main+0x6c2>
   138e2:	00048537          	lui	a0,0x48
   138e6:	ce848613          	addi	a2,s1,-792
   138ea:	85a2                	mv	a1,s0
   138ec:	43050513          	addi	a0,a0,1072 # 48430 <CSWTCH.18+0x5fa8>
   138f0:	5170f0ef          	jal	ra,23606 <t_printf>
   138f4:	42890593          	addi	a1,s2,1064
   138f8:	0830                	addi	a2,sp,24
   138fa:	4509                	li	a0,2
   138fc:	2be160ef          	jal	ra,29bba <inet_pton>
   13900:	85aa                	mv	a1,a0
   13902:	c901                	beqz	a0,13912 <inet_pton_main+0x6e0>
   13904:	00048537          	lui	a0,0x48
   13908:	4601                	li	a2,0
   1390a:	48050513          	addi	a0,a0,1152 # 48480 <CSWTCH.18+0x5ff8>
   1390e:	4f90f0ef          	jal	ra,23606 <t_printf>
V4("1..2.3", 0, "ffffffff")
   13912:	00048937          	lui	s2,0x48
   13916:	4e090513          	addi	a0,s2,1248 # 484e0 <CSWTCH.18+0x6058>
   1391a:	e082                	sd	zero,64(sp)
   1391c:	e482                	sd	zero,72(sp)
   1391e:	c882                	sw	zero,80(sp)
   13920:	783150ef          	jal	ra,298a2 <inet_addr>
   13924:	cc2a                	sw	a0,24(sp)
   13926:	082c                	addi	a1,sp,24
   13928:	8522                	mv	a0,s0
   1392a:	4611                	li	a2,4
   1392c:	250100ef          	jal	ra,23b7c <tohex>
   13930:	ce848593          	addi	a1,s1,-792
   13934:	8522                	mv	a0,s0
   13936:	7b91f0ef          	jal	ra,338ee <strcmp>
   1393a:	c911                	beqz	a0,1394e <inet_pton_main+0x71c>
   1393c:	00048537          	lui	a0,0x48
   13940:	ce848613          	addi	a2,s1,-792
   13944:	85a2                	mv	a1,s0
   13946:	4e850513          	addi	a0,a0,1256 # 484e8 <CSWTCH.18+0x6060>
   1394a:	4bd0f0ef          	jal	ra,23606 <t_printf>
   1394e:	4e090593          	addi	a1,s2,1248
   13952:	0830                	addi	a2,sp,24
   13954:	4509                	li	a0,2
   13956:	264160ef          	jal	ra,29bba <inet_pton>
   1395a:	85aa                	mv	a1,a0
